
STM-V2.elf:     file format elf32-littlearm

Sections:
Idx Name          Size      VMA       LMA       File off  Algn
  0 .isr_vector   000001e0  08000000  08000000  00010000  2**0
                  CONTENTS, ALLOC, LOAD, READONLY, DATA
  1 .text         00004e70  080001e0  080001e0  000101e0  2**4
                  CONTENTS, ALLOC, LOAD, READONLY, CODE
  2 .rodata       000000d0  08005050  08005050  00015050  2**2
                  CONTENTS, ALLOC, LOAD, READONLY, DATA
  3 .ARM          00000008  08005120  08005120  00015120  2**2
                  CONTENTS, ALLOC, LOAD, READONLY, DATA
  4 .init_array   00000004  08005128  08005128  00015128  2**2
                  CONTENTS, ALLOC, LOAD, DATA
  5 .fini_array   00000004  0800512c  0800512c  0001512c  2**2
                  CONTENTS, ALLOC, LOAD, DATA
  6 .data         000001f0  20000000  08005130  00020000  2**2
                  CONTENTS, ALLOC, LOAD, DATA
  7 .bss          00001b60  200001f0  08005320  000201f0  2**2
                  ALLOC
  8 ._user_heap_stack 00000600  20001d50  08005320  00021d50  2**0
                  ALLOC
  9 .ARM.attributes 00000030  00000000  00000000  000201f0  2**0
                  CONTENTS, READONLY
 10 .debug_info   000196f9  00000000  00000000  00020220  2**0
                  CONTENTS, READONLY, DEBUGGING
 11 .debug_abbrev 00003638  00000000  00000000  00039919  2**0
                  CONTENTS, READONLY, DEBUGGING
 12 .debug_loc    00009224  00000000  00000000  0003cf51  2**0
                  CONTENTS, READONLY, DEBUGGING
 13 .debug_aranges 00000ef0  00000000  00000000  00046178  2**3
                  CONTENTS, READONLY, DEBUGGING
 14 .debug_ranges 00000de0  00000000  00000000  00047068  2**3
                  CONTENTS, READONLY, DEBUGGING
 15 .debug_macro  00024d7a  00000000  00000000  00047e48  2**0
                  CONTENTS, READONLY, DEBUGGING
 16 .debug_line   0000f464  00000000  00000000  0006cbc2  2**0
                  CONTENTS, READONLY, DEBUGGING
 17 .debug_str    000d25b6  00000000  00000000  0007c026  2**0
                  CONTENTS, READONLY, DEBUGGING
 18 .comment      0000007b  00000000  00000000  0014e5dc  2**0
                  CONTENTS, READONLY
 19 .debug_frame  00002900  00000000  00000000  0014e658  2**2
                  CONTENTS, READONLY, DEBUGGING

Disassembly of section .text:

080001e0 <__do_global_dtors_aux>:
 80001e0:	b510      	push	{r4, lr}
 80001e2:	4c05      	ldr	r4, [pc, #20]	; (80001f8 <__do_global_dtors_aux+0x18>)
 80001e4:	7823      	ldrb	r3, [r4, #0]
 80001e6:	b933      	cbnz	r3, 80001f6 <__do_global_dtors_aux+0x16>
 80001e8:	4b04      	ldr	r3, [pc, #16]	; (80001fc <__do_global_dtors_aux+0x1c>)
 80001ea:	b113      	cbz	r3, 80001f2 <__do_global_dtors_aux+0x12>
 80001ec:	4804      	ldr	r0, [pc, #16]	; (8000200 <__do_global_dtors_aux+0x20>)
 80001ee:	f3af 8000 	nop.w
 80001f2:	2301      	movs	r3, #1
 80001f4:	7023      	strb	r3, [r4, #0]
 80001f6:	bd10      	pop	{r4, pc}
 80001f8:	200001f0 	.word	0x200001f0
 80001fc:	00000000 	.word	0x00000000
 8000200:	08005038 	.word	0x08005038

08000204 <frame_dummy>:
 8000204:	b508      	push	{r3, lr}
 8000206:	4b03      	ldr	r3, [pc, #12]	; (8000214 <frame_dummy+0x10>)
 8000208:	b11b      	cbz	r3, 8000212 <frame_dummy+0xe>
 800020a:	4903      	ldr	r1, [pc, #12]	; (8000218 <frame_dummy+0x14>)
 800020c:	4803      	ldr	r0, [pc, #12]	; (800021c <frame_dummy+0x18>)
 800020e:	f3af 8000 	nop.w
 8000212:	bd08      	pop	{r3, pc}
 8000214:	00000000 	.word	0x00000000
 8000218:	200001f4 	.word	0x200001f4
 800021c:	08005038 	.word	0x08005038

08000220 <strlen>:
 8000220:	4603      	mov	r3, r0
 8000222:	f813 2b01 	ldrb.w	r2, [r3], #1
 8000226:	2a00      	cmp	r2, #0
 8000228:	d1fb      	bne.n	8000222 <strlen+0x2>
 800022a:	1a18      	subs	r0, r3, r0
 800022c:	3801      	subs	r0, #1
 800022e:	4770      	bx	lr

08000230 <memchr>:
 8000230:	f001 01ff 	and.w	r1, r1, #255	; 0xff
 8000234:	2a10      	cmp	r2, #16
 8000236:	db2b      	blt.n	8000290 <memchr+0x60>
 8000238:	f010 0f07 	tst.w	r0, #7
 800023c:	d008      	beq.n	8000250 <memchr+0x20>
 800023e:	f810 3b01 	ldrb.w	r3, [r0], #1
 8000242:	3a01      	subs	r2, #1
 8000244:	428b      	cmp	r3, r1
 8000246:	d02d      	beq.n	80002a4 <memchr+0x74>
 8000248:	f010 0f07 	tst.w	r0, #7
 800024c:	b342      	cbz	r2, 80002a0 <memchr+0x70>
 800024e:	d1f6      	bne.n	800023e <memchr+0xe>
 8000250:	b4f0      	push	{r4, r5, r6, r7}
 8000252:	ea41 2101 	orr.w	r1, r1, r1, lsl #8
 8000256:	ea41 4101 	orr.w	r1, r1, r1, lsl #16
 800025a:	f022 0407 	bic.w	r4, r2, #7
 800025e:	f07f 0700 	mvns.w	r7, #0
 8000262:	2300      	movs	r3, #0
 8000264:	e8f0 5602 	ldrd	r5, r6, [r0], #8
 8000268:	3c08      	subs	r4, #8
 800026a:	ea85 0501 	eor.w	r5, r5, r1
 800026e:	ea86 0601 	eor.w	r6, r6, r1
 8000272:	fa85 f547 	uadd8	r5, r5, r7
 8000276:	faa3 f587 	sel	r5, r3, r7
 800027a:	fa86 f647 	uadd8	r6, r6, r7
 800027e:	faa5 f687 	sel	r6, r5, r7
 8000282:	b98e      	cbnz	r6, 80002a8 <memchr+0x78>
 8000284:	d1ee      	bne.n	8000264 <memchr+0x34>
 8000286:	bcf0      	pop	{r4, r5, r6, r7}
 8000288:	f001 01ff 	and.w	r1, r1, #255	; 0xff
 800028c:	f002 0207 	and.w	r2, r2, #7
 8000290:	b132      	cbz	r2, 80002a0 <memchr+0x70>
 8000292:	f810 3b01 	ldrb.w	r3, [r0], #1
 8000296:	3a01      	subs	r2, #1
 8000298:	ea83 0301 	eor.w	r3, r3, r1
 800029c:	b113      	cbz	r3, 80002a4 <memchr+0x74>
 800029e:	d1f8      	bne.n	8000292 <memchr+0x62>
 80002a0:	2000      	movs	r0, #0
 80002a2:	4770      	bx	lr
 80002a4:	3801      	subs	r0, #1
 80002a6:	4770      	bx	lr
 80002a8:	2d00      	cmp	r5, #0
 80002aa:	bf06      	itte	eq
 80002ac:	4635      	moveq	r5, r6
 80002ae:	3803      	subeq	r0, #3
 80002b0:	3807      	subne	r0, #7
 80002b2:	f015 0f01 	tst.w	r5, #1
 80002b6:	d107      	bne.n	80002c8 <memchr+0x98>
 80002b8:	3001      	adds	r0, #1
 80002ba:	f415 7f80 	tst.w	r5, #256	; 0x100
 80002be:	bf02      	ittt	eq
 80002c0:	3001      	addeq	r0, #1
 80002c2:	f415 3fc0 	tsteq.w	r5, #98304	; 0x18000
 80002c6:	3001      	addeq	r0, #1
 80002c8:	bcf0      	pop	{r4, r5, r6, r7}
 80002ca:	3801      	subs	r0, #1
 80002cc:	4770      	bx	lr
 80002ce:	bf00      	nop

080002d0 <__aeabi_uldivmod>:
 80002d0:	b953      	cbnz	r3, 80002e8 <__aeabi_uldivmod+0x18>
 80002d2:	b94a      	cbnz	r2, 80002e8 <__aeabi_uldivmod+0x18>
 80002d4:	2900      	cmp	r1, #0
 80002d6:	bf08      	it	eq
 80002d8:	2800      	cmpeq	r0, #0
 80002da:	bf1c      	itt	ne
 80002dc:	f04f 31ff 	movne.w	r1, #4294967295
 80002e0:	f04f 30ff 	movne.w	r0, #4294967295
 80002e4:	f000 b972 	b.w	80005cc <__aeabi_idiv0>
 80002e8:	f1ad 0c08 	sub.w	ip, sp, #8
 80002ec:	e96d ce04 	strd	ip, lr, [sp, #-16]!
 80002f0:	f000 f806 	bl	8000300 <__udivmoddi4>
 80002f4:	f8dd e004 	ldr.w	lr, [sp, #4]
 80002f8:	e9dd 2302 	ldrd	r2, r3, [sp, #8]
 80002fc:	b004      	add	sp, #16
 80002fe:	4770      	bx	lr

08000300 <__udivmoddi4>:
 8000300:	e92d 47f0 	stmdb	sp!, {r4, r5, r6, r7, r8, r9, sl, lr}
 8000304:	9e08      	ldr	r6, [sp, #32]
 8000306:	4604      	mov	r4, r0
 8000308:	4688      	mov	r8, r1
 800030a:	2b00      	cmp	r3, #0
 800030c:	d14b      	bne.n	80003a6 <__udivmoddi4+0xa6>
 800030e:	428a      	cmp	r2, r1
 8000310:	4615      	mov	r5, r2
 8000312:	d967      	bls.n	80003e4 <__udivmoddi4+0xe4>
 8000314:	fab2 f282 	clz	r2, r2
 8000318:	b14a      	cbz	r2, 800032e <__udivmoddi4+0x2e>
 800031a:	f1c2 0720 	rsb	r7, r2, #32
 800031e:	fa01 f302 	lsl.w	r3, r1, r2
 8000322:	fa20 f707 	lsr.w	r7, r0, r7
 8000326:	4095      	lsls	r5, r2
 8000328:	ea47 0803 	orr.w	r8, r7, r3
 800032c:	4094      	lsls	r4, r2
 800032e:	ea4f 4e15 	mov.w	lr, r5, lsr #16
 8000332:	0c23      	lsrs	r3, r4, #16
 8000334:	fbb8 f7fe 	udiv	r7, r8, lr
 8000338:	fa1f fc85 	uxth.w	ip, r5
 800033c:	fb0e 8817 	mls	r8, lr, r7, r8
 8000340:	ea43 4308 	orr.w	r3, r3, r8, lsl #16
 8000344:	fb07 f10c 	mul.w	r1, r7, ip
 8000348:	4299      	cmp	r1, r3
 800034a:	d909      	bls.n	8000360 <__udivmoddi4+0x60>
 800034c:	18eb      	adds	r3, r5, r3
 800034e:	f107 30ff 	add.w	r0, r7, #4294967295
 8000352:	f080 811b 	bcs.w	800058c <__udivmoddi4+0x28c>
 8000356:	4299      	cmp	r1, r3
 8000358:	f240 8118 	bls.w	800058c <__udivmoddi4+0x28c>
 800035c:	3f02      	subs	r7, #2
 800035e:	442b      	add	r3, r5
 8000360:	1a5b      	subs	r3, r3, r1
 8000362:	b2a4      	uxth	r4, r4
 8000364:	fbb3 f0fe 	udiv	r0, r3, lr
 8000368:	fb0e 3310 	mls	r3, lr, r0, r3
 800036c:	ea44 4403 	orr.w	r4, r4, r3, lsl #16
 8000370:	fb00 fc0c 	mul.w	ip, r0, ip
 8000374:	45a4      	cmp	ip, r4
 8000376:	d909      	bls.n	800038c <__udivmoddi4+0x8c>
 8000378:	192c      	adds	r4, r5, r4
 800037a:	f100 33ff 	add.w	r3, r0, #4294967295
 800037e:	f080 8107 	bcs.w	8000590 <__udivmoddi4+0x290>
 8000382:	45a4      	cmp	ip, r4
 8000384:	f240 8104 	bls.w	8000590 <__udivmoddi4+0x290>
 8000388:	3802      	subs	r0, #2
 800038a:	442c      	add	r4, r5
 800038c:	ea40 4007 	orr.w	r0, r0, r7, lsl #16
 8000390:	eba4 040c 	sub.w	r4, r4, ip
 8000394:	2700      	movs	r7, #0
 8000396:	b11e      	cbz	r6, 80003a0 <__udivmoddi4+0xa0>
 8000398:	40d4      	lsrs	r4, r2
 800039a:	2300      	movs	r3, #0
 800039c:	e9c6 4300 	strd	r4, r3, [r6]
 80003a0:	4639      	mov	r1, r7
 80003a2:	e8bd 87f0 	ldmia.w	sp!, {r4, r5, r6, r7, r8, r9, sl, pc}
 80003a6:	428b      	cmp	r3, r1
 80003a8:	d909      	bls.n	80003be <__udivmoddi4+0xbe>
 80003aa:	2e00      	cmp	r6, #0
 80003ac:	f000 80eb 	beq.w	8000586 <__udivmoddi4+0x286>
 80003b0:	2700      	movs	r7, #0
 80003b2:	e9c6 0100 	strd	r0, r1, [r6]
 80003b6:	4638      	mov	r0, r7
 80003b8:	4639      	mov	r1, r7
 80003ba:	e8bd 87f0 	ldmia.w	sp!, {r4, r5, r6, r7, r8, r9, sl, pc}
 80003be:	fab3 f783 	clz	r7, r3
 80003c2:	2f00      	cmp	r7, #0
 80003c4:	d147      	bne.n	8000456 <__udivmoddi4+0x156>
 80003c6:	428b      	cmp	r3, r1
 80003c8:	d302      	bcc.n	80003d0 <__udivmoddi4+0xd0>
 80003ca:	4282      	cmp	r2, r0
 80003cc:	f200 80fa 	bhi.w	80005c4 <__udivmoddi4+0x2c4>
 80003d0:	1a84      	subs	r4, r0, r2
 80003d2:	eb61 0303 	sbc.w	r3, r1, r3
 80003d6:	2001      	movs	r0, #1
 80003d8:	4698      	mov	r8, r3
 80003da:	2e00      	cmp	r6, #0
 80003dc:	d0e0      	beq.n	80003a0 <__udivmoddi4+0xa0>
 80003de:	e9c6 4800 	strd	r4, r8, [r6]
 80003e2:	e7dd      	b.n	80003a0 <__udivmoddi4+0xa0>
 80003e4:	b902      	cbnz	r2, 80003e8 <__udivmoddi4+0xe8>
 80003e6:	deff      	udf	#255	; 0xff
 80003e8:	fab2 f282 	clz	r2, r2
 80003ec:	2a00      	cmp	r2, #0
 80003ee:	f040 808f 	bne.w	8000510 <__udivmoddi4+0x210>
 80003f2:	1b49      	subs	r1, r1, r5
 80003f4:	ea4f 4e15 	mov.w	lr, r5, lsr #16
 80003f8:	fa1f f885 	uxth.w	r8, r5
 80003fc:	2701      	movs	r7, #1
 80003fe:	fbb1 fcfe 	udiv	ip, r1, lr
 8000402:	0c23      	lsrs	r3, r4, #16
 8000404:	fb0e 111c 	mls	r1, lr, ip, r1
 8000408:	ea43 4301 	orr.w	r3, r3, r1, lsl #16
 800040c:	fb08 f10c 	mul.w	r1, r8, ip
 8000410:	4299      	cmp	r1, r3
 8000412:	d907      	bls.n	8000424 <__udivmoddi4+0x124>
 8000414:	18eb      	adds	r3, r5, r3
 8000416:	f10c 30ff 	add.w	r0, ip, #4294967295
 800041a:	d202      	bcs.n	8000422 <__udivmoddi4+0x122>
 800041c:	4299      	cmp	r1, r3
 800041e:	f200 80cd 	bhi.w	80005bc <__udivmoddi4+0x2bc>
 8000422:	4684      	mov	ip, r0
 8000424:	1a59      	subs	r1, r3, r1
 8000426:	b2a3      	uxth	r3, r4
 8000428:	fbb1 f0fe 	udiv	r0, r1, lr
 800042c:	fb0e 1410 	mls	r4, lr, r0, r1
 8000430:	ea43 4404 	orr.w	r4, r3, r4, lsl #16
 8000434:	fb08 f800 	mul.w	r8, r8, r0
 8000438:	45a0      	cmp	r8, r4
 800043a:	d907      	bls.n	800044c <__udivmoddi4+0x14c>
 800043c:	192c      	adds	r4, r5, r4
 800043e:	f100 33ff 	add.w	r3, r0, #4294967295
 8000442:	d202      	bcs.n	800044a <__udivmoddi4+0x14a>
 8000444:	45a0      	cmp	r8, r4
 8000446:	f200 80b6 	bhi.w	80005b6 <__udivmoddi4+0x2b6>
 800044a:	4618      	mov	r0, r3
 800044c:	eba4 0408 	sub.w	r4, r4, r8
 8000450:	ea40 400c 	orr.w	r0, r0, ip, lsl #16
 8000454:	e79f      	b.n	8000396 <__udivmoddi4+0x96>
 8000456:	f1c7 0c20 	rsb	ip, r7, #32
 800045a:	40bb      	lsls	r3, r7
 800045c:	fa22 fe0c 	lsr.w	lr, r2, ip
 8000460:	ea4e 0e03 	orr.w	lr, lr, r3
 8000464:	fa01 f407 	lsl.w	r4, r1, r7
 8000468:	fa20 f50c 	lsr.w	r5, r0, ip
 800046c:	fa21 f30c 	lsr.w	r3, r1, ip
 8000470:	ea4f 481e 	mov.w	r8, lr, lsr #16
 8000474:	4325      	orrs	r5, r4
 8000476:	fbb3 f9f8 	udiv	r9, r3, r8
 800047a:	0c2c      	lsrs	r4, r5, #16
 800047c:	fb08 3319 	mls	r3, r8, r9, r3
 8000480:	fa1f fa8e 	uxth.w	sl, lr
 8000484:	ea44 4303 	orr.w	r3, r4, r3, lsl #16
 8000488:	fb09 f40a 	mul.w	r4, r9, sl
 800048c:	429c      	cmp	r4, r3
 800048e:	fa02 f207 	lsl.w	r2, r2, r7
 8000492:	fa00 f107 	lsl.w	r1, r0, r7
 8000496:	d90b      	bls.n	80004b0 <__udivmoddi4+0x1b0>
 8000498:	eb1e 0303 	adds.w	r3, lr, r3
 800049c:	f109 30ff 	add.w	r0, r9, #4294967295
 80004a0:	f080 8087 	bcs.w	80005b2 <__udivmoddi4+0x2b2>
 80004a4:	429c      	cmp	r4, r3
 80004a6:	f240 8084 	bls.w	80005b2 <__udivmoddi4+0x2b2>
 80004aa:	f1a9 0902 	sub.w	r9, r9, #2
 80004ae:	4473      	add	r3, lr
 80004b0:	1b1b      	subs	r3, r3, r4
 80004b2:	b2ad      	uxth	r5, r5
 80004b4:	fbb3 f0f8 	udiv	r0, r3, r8
 80004b8:	fb08 3310 	mls	r3, r8, r0, r3
 80004bc:	ea45 4403 	orr.w	r4, r5, r3, lsl #16
 80004c0:	fb00 fa0a 	mul.w	sl, r0, sl
 80004c4:	45a2      	cmp	sl, r4
 80004c6:	d908      	bls.n	80004da <__udivmoddi4+0x1da>
 80004c8:	eb1e 0404 	adds.w	r4, lr, r4
 80004cc:	f100 33ff 	add.w	r3, r0, #4294967295
 80004d0:	d26b      	bcs.n	80005aa <__udivmoddi4+0x2aa>
 80004d2:	45a2      	cmp	sl, r4
 80004d4:	d969      	bls.n	80005aa <__udivmoddi4+0x2aa>
 80004d6:	3802      	subs	r0, #2
 80004d8:	4474      	add	r4, lr
 80004da:	ea40 4009 	orr.w	r0, r0, r9, lsl #16
 80004de:	fba0 8902 	umull	r8, r9, r0, r2
 80004e2:	eba4 040a 	sub.w	r4, r4, sl
 80004e6:	454c      	cmp	r4, r9
 80004e8:	46c2      	mov	sl, r8
 80004ea:	464b      	mov	r3, r9
 80004ec:	d354      	bcc.n	8000598 <__udivmoddi4+0x298>
 80004ee:	d051      	beq.n	8000594 <__udivmoddi4+0x294>
 80004f0:	2e00      	cmp	r6, #0
 80004f2:	d069      	beq.n	80005c8 <__udivmoddi4+0x2c8>
 80004f4:	ebb1 050a 	subs.w	r5, r1, sl
 80004f8:	eb64 0403 	sbc.w	r4, r4, r3
 80004fc:	fa04 fc0c 	lsl.w	ip, r4, ip
 8000500:	40fd      	lsrs	r5, r7
 8000502:	40fc      	lsrs	r4, r7
 8000504:	ea4c 0505 	orr.w	r5, ip, r5
 8000508:	e9c6 5400 	strd	r5, r4, [r6]
 800050c:	2700      	movs	r7, #0
 800050e:	e747      	b.n	80003a0 <__udivmoddi4+0xa0>
 8000510:	f1c2 0320 	rsb	r3, r2, #32
 8000514:	fa20 f703 	lsr.w	r7, r0, r3
 8000518:	4095      	lsls	r5, r2
 800051a:	fa01 f002 	lsl.w	r0, r1, r2
 800051e:	fa21 f303 	lsr.w	r3, r1, r3
 8000522:	ea4f 4e15 	mov.w	lr, r5, lsr #16
 8000526:	4338      	orrs	r0, r7
 8000528:	0c01      	lsrs	r1, r0, #16
 800052a:	fbb3 f7fe 	udiv	r7, r3, lr
 800052e:	fa1f f885 	uxth.w	r8, r5
 8000532:	fb0e 3317 	mls	r3, lr, r7, r3
 8000536:	ea41 4103 	orr.w	r1, r1, r3, lsl #16
 800053a:	fb07 f308 	mul.w	r3, r7, r8
 800053e:	428b      	cmp	r3, r1
 8000540:	fa04 f402 	lsl.w	r4, r4, r2
 8000544:	d907      	bls.n	8000556 <__udivmoddi4+0x256>
 8000546:	1869      	adds	r1, r5, r1
 8000548:	f107 3cff 	add.w	ip, r7, #4294967295
 800054c:	d22f      	bcs.n	80005ae <__udivmoddi4+0x2ae>
 800054e:	428b      	cmp	r3, r1
 8000550:	d92d      	bls.n	80005ae <__udivmoddi4+0x2ae>
 8000552:	3f02      	subs	r7, #2
 8000554:	4429      	add	r1, r5
 8000556:	1acb      	subs	r3, r1, r3
 8000558:	b281      	uxth	r1, r0
 800055a:	fbb3 f0fe 	udiv	r0, r3, lr
 800055e:	fb0e 3310 	mls	r3, lr, r0, r3
 8000562:	ea41 4103 	orr.w	r1, r1, r3, lsl #16
 8000566:	fb00 f308 	mul.w	r3, r0, r8
 800056a:	428b      	cmp	r3, r1
 800056c:	d907      	bls.n	800057e <__udivmoddi4+0x27e>
 800056e:	1869      	adds	r1, r5, r1
 8000570:	f100 3cff 	add.w	ip, r0, #4294967295
 8000574:	d217      	bcs.n	80005a6 <__udivmoddi4+0x2a6>
 8000576:	428b      	cmp	r3, r1
 8000578:	d915      	bls.n	80005a6 <__udivmoddi4+0x2a6>
 800057a:	3802      	subs	r0, #2
 800057c:	4429      	add	r1, r5
 800057e:	1ac9      	subs	r1, r1, r3
 8000580:	ea40 4707 	orr.w	r7, r0, r7, lsl #16
 8000584:	e73b      	b.n	80003fe <__udivmoddi4+0xfe>
 8000586:	4637      	mov	r7, r6
 8000588:	4630      	mov	r0, r6
 800058a:	e709      	b.n	80003a0 <__udivmoddi4+0xa0>
 800058c:	4607      	mov	r7, r0
 800058e:	e6e7      	b.n	8000360 <__udivmoddi4+0x60>
 8000590:	4618      	mov	r0, r3
 8000592:	e6fb      	b.n	800038c <__udivmoddi4+0x8c>
 8000594:	4541      	cmp	r1, r8
 8000596:	d2ab      	bcs.n	80004f0 <__udivmoddi4+0x1f0>
 8000598:	ebb8 0a02 	subs.w	sl, r8, r2
 800059c:	eb69 020e 	sbc.w	r2, r9, lr
 80005a0:	3801      	subs	r0, #1
 80005a2:	4613      	mov	r3, r2
 80005a4:	e7a4      	b.n	80004f0 <__udivmoddi4+0x1f0>
 80005a6:	4660      	mov	r0, ip
 80005a8:	e7e9      	b.n	800057e <__udivmoddi4+0x27e>
 80005aa:	4618      	mov	r0, r3
 80005ac:	e795      	b.n	80004da <__udivmoddi4+0x1da>
 80005ae:	4667      	mov	r7, ip
 80005b0:	e7d1      	b.n	8000556 <__udivmoddi4+0x256>
 80005b2:	4681      	mov	r9, r0
 80005b4:	e77c      	b.n	80004b0 <__udivmoddi4+0x1b0>
 80005b6:	3802      	subs	r0, #2
 80005b8:	442c      	add	r4, r5
 80005ba:	e747      	b.n	800044c <__udivmoddi4+0x14c>
 80005bc:	f1ac 0c02 	sub.w	ip, ip, #2
 80005c0:	442b      	add	r3, r5
 80005c2:	e72f      	b.n	8000424 <__udivmoddi4+0x124>
 80005c4:	4638      	mov	r0, r7
 80005c6:	e708      	b.n	80003da <__udivmoddi4+0xda>
 80005c8:	4637      	mov	r7, r6
 80005ca:	e6e9      	b.n	80003a0 <__udivmoddi4+0xa0>

080005cc <__aeabi_idiv0>:
 80005cc:	4770      	bx	lr
 80005ce:	bf00      	nop

080005d0 <HAL_InitTick>:
  *       implementation  in user file.
  * @param TickPriority Tick interrupt priority.
  * @retval HAL status
  */
__weak HAL_StatusTypeDef HAL_InitTick(uint32_t TickPriority)
{
 80005d0:	b510      	push	{r4, lr}
 80005d2:	4604      	mov	r4, r0
  /* Configure the SysTick to have interrupt in 1ms time basis*/
  if (HAL_SYSTICK_Config(SystemCoreClock / (1000U / uwTickFreq)) > 0U)
 80005d4:	4b0e      	ldr	r3, [pc, #56]	; (8000610 <HAL_InitTick+0x40>)
 80005d6:	7818      	ldrb	r0, [r3, #0]
 80005d8:	f44f 737a 	mov.w	r3, #1000	; 0x3e8
 80005dc:	fbb3 f3f0 	udiv	r3, r3, r0
 80005e0:	4a0c      	ldr	r2, [pc, #48]	; (8000614 <HAL_InitTick+0x44>)
 80005e2:	6810      	ldr	r0, [r2, #0]
 80005e4:	fbb0 f0f3 	udiv	r0, r0, r3
 80005e8:	f000 f89a 	bl	8000720 <HAL_SYSTICK_Config>
 80005ec:	b968      	cbnz	r0, 800060a <HAL_InitTick+0x3a>
  {
    return HAL_ERROR;
  }

  /* Configure the SysTick IRQ priority */
  if (TickPriority < (1UL << __NVIC_PRIO_BITS))
 80005ee:	2c0f      	cmp	r4, #15
 80005f0:	d901      	bls.n	80005f6 <HAL_InitTick+0x26>
    HAL_NVIC_SetPriority(SysTick_IRQn, TickPriority, 0U);
    uwTickPrio = TickPriority;
  }
  else
  {
    return HAL_ERROR;
 80005f2:	2001      	movs	r0, #1
 80005f4:	e00a      	b.n	800060c <HAL_InitTick+0x3c>
    HAL_NVIC_SetPriority(SysTick_IRQn, TickPriority, 0U);
 80005f6:	2200      	movs	r2, #0
 80005f8:	4621      	mov	r1, r4
 80005fa:	f04f 30ff 	mov.w	r0, #4294967295
 80005fe:	f000 f84f 	bl	80006a0 <HAL_NVIC_SetPriority>
    uwTickPrio = TickPriority;
 8000602:	4b03      	ldr	r3, [pc, #12]	; (8000610 <HAL_InitTick+0x40>)
 8000604:	605c      	str	r4, [r3, #4]
  }

  /* Return function status */
  return HAL_OK;
 8000606:	2000      	movs	r0, #0
 8000608:	e000      	b.n	800060c <HAL_InitTick+0x3c>
    return HAL_ERROR;
 800060a:	2001      	movs	r0, #1
}
 800060c:	bd10      	pop	{r4, pc}
 800060e:	bf00      	nop
 8000610:	20000000 	.word	0x20000000
 8000614:	20000118 	.word	0x20000118

08000618 <HAL_Init>:
{
 8000618:	b508      	push	{r3, lr}
  HAL_NVIC_SetPriorityGrouping(NVIC_PRIORITYGROUP_4);
 800061a:	2003      	movs	r0, #3
 800061c:	f000 f82e 	bl	800067c <HAL_NVIC_SetPriorityGrouping>
  HAL_InitTick(TICK_INT_PRIORITY);
 8000620:	2000      	movs	r0, #0
 8000622:	f7ff ffd5 	bl	80005d0 <HAL_InitTick>
  HAL_MspInit();
 8000626:	f003 fd39 	bl	800409c <HAL_MspInit>
}
 800062a:	2000      	movs	r0, #0
 800062c:	bd08      	pop	{r3, pc}
	...

08000630 <HAL_IncTick>:
  *      implementations in user file.
  * @retval None
  */
__weak void HAL_IncTick(void)
{
  uwTick += uwTickFreq;
 8000630:	4a03      	ldr	r2, [pc, #12]	; (8000640 <HAL_IncTick+0x10>)
 8000632:	6811      	ldr	r1, [r2, #0]
 8000634:	4b03      	ldr	r3, [pc, #12]	; (8000644 <HAL_IncTick+0x14>)
 8000636:	781b      	ldrb	r3, [r3, #0]
 8000638:	440b      	add	r3, r1
 800063a:	6013      	str	r3, [r2, #0]
}
 800063c:	4770      	bx	lr
 800063e:	bf00      	nop
 8000640:	20000228 	.word	0x20000228
 8000644:	20000000 	.word	0x20000000

08000648 <HAL_GetTick>:
  *       implementations in user file.
  * @retval tick value
  */
__weak uint32_t HAL_GetTick(void)
{
  return uwTick;
 8000648:	4b01      	ldr	r3, [pc, #4]	; (8000650 <HAL_GetTick+0x8>)
 800064a:	6818      	ldr	r0, [r3, #0]
}
 800064c:	4770      	bx	lr
 800064e:	bf00      	nop
 8000650:	20000228 	.word	0x20000228

08000654 <HAL_Delay>:
  *       implementations in user file.
  * @param Delay  specifies the delay time length, in milliseconds.
  * @retval None
  */
__weak void HAL_Delay(uint32_t Delay)
{
 8000654:	b538      	push	{r3, r4, r5, lr}
 8000656:	4604      	mov	r4, r0
  uint32_t tickstart = HAL_GetTick();
 8000658:	f7ff fff6 	bl	8000648 <HAL_GetTick>
 800065c:	4605      	mov	r5, r0
  uint32_t wait = Delay;

  /* Add a freq to guarantee minimum wait */
  if (wait < HAL_MAX_DELAY)
 800065e:	f1b4 3fff 	cmp.w	r4, #4294967295
 8000662:	d002      	beq.n	800066a <HAL_Delay+0x16>
  {
    wait += (uint32_t)(uwTickFreq);
 8000664:	4b04      	ldr	r3, [pc, #16]	; (8000678 <HAL_Delay+0x24>)
 8000666:	781b      	ldrb	r3, [r3, #0]
 8000668:	441c      	add	r4, r3
  }

  while ((HAL_GetTick() - tickstart) < wait)
 800066a:	f7ff ffed 	bl	8000648 <HAL_GetTick>
 800066e:	1b40      	subs	r0, r0, r5
 8000670:	42a0      	cmp	r0, r4
 8000672:	d3fa      	bcc.n	800066a <HAL_Delay+0x16>
  {
  }
}
 8000674:	bd38      	pop	{r3, r4, r5, pc}
 8000676:	bf00      	nop
 8000678:	20000000 	.word	0x20000000

0800067c <HAL_NVIC_SetPriorityGrouping>:
__STATIC_INLINE void __NVIC_SetPriorityGrouping(uint32_t PriorityGroup)
{
  uint32_t reg_value;
  uint32_t PriorityGroupTmp = (PriorityGroup & (uint32_t)0x07UL);             /* only values 0..7 are used          */

  reg_value  =  SCB->AIRCR;                                                   /* read old register configuration    */
 800067c:	4906      	ldr	r1, [pc, #24]	; (8000698 <HAL_NVIC_SetPriorityGrouping+0x1c>)
 800067e:	68cb      	ldr	r3, [r1, #12]
  reg_value &= ~((uint32_t)(SCB_AIRCR_VECTKEY_Msk | SCB_AIRCR_PRIGROUP_Msk)); /* clear bits to change               */
 8000680:	f423 63e0 	bic.w	r3, r3, #1792	; 0x700
 8000684:	041b      	lsls	r3, r3, #16
 8000686:	0c1b      	lsrs	r3, r3, #16
  reg_value  =  (reg_value                                   |
                ((uint32_t)0x5FAUL << SCB_AIRCR_VECTKEY_Pos) |
                (PriorityGroupTmp << SCB_AIRCR_PRIGROUP_Pos)  );              /* Insert write key and priority group */
 8000688:	0200      	lsls	r0, r0, #8
 800068a:	f400 60e0 	and.w	r0, r0, #1792	; 0x700
                ((uint32_t)0x5FAUL << SCB_AIRCR_VECTKEY_Pos) |
 800068e:	4303      	orrs	r3, r0
  reg_value  =  (reg_value                                   |
 8000690:	4a02      	ldr	r2, [pc, #8]	; (800069c <HAL_NVIC_SetPriorityGrouping+0x20>)
 8000692:	431a      	orrs	r2, r3
  SCB->AIRCR =  reg_value;
 8000694:	60ca      	str	r2, [r1, #12]
  /* Check the parameters */
  assert_param(IS_NVIC_PRIORITY_GROUP(PriorityGroup));
  
  /* Set the PRIGROUP[10:8] bits according to the PriorityGroup parameter value */
  NVIC_SetPriorityGrouping(PriorityGroup);
}
 8000696:	4770      	bx	lr
 8000698:	e000ed00 	.word	0xe000ed00
 800069c:	05fa0000 	.word	0x05fa0000

080006a0 <HAL_NVIC_SetPriority>:
  *         This parameter can be a value between 0 and 15
  *         A lower priority value indicates a higher priority.          
  * @retval None
  */
void HAL_NVIC_SetPriority(IRQn_Type IRQn, uint32_t PreemptPriority, uint32_t SubPriority)
{ 
 80006a0:	b430      	push	{r4, r5}
  \details Reads the priority grouping field from the NVIC Interrupt Controller.
  \return                Priority grouping field (SCB->AIRCR [10:8] PRIGROUP field).
 */
__STATIC_INLINE uint32_t __NVIC_GetPriorityGrouping(void)
{
  return ((uint32_t)((SCB->AIRCR & SCB_AIRCR_PRIGROUP_Msk) >> SCB_AIRCR_PRIGROUP_Pos));
 80006a2:	4b15      	ldr	r3, [pc, #84]	; (80006f8 <HAL_NVIC_SetPriority+0x58>)
 80006a4:	68db      	ldr	r3, [r3, #12]
 80006a6:	f3c3 2302 	ubfx	r3, r3, #8, #3
{
  uint32_t PriorityGroupTmp = (PriorityGroup & (uint32_t)0x07UL);   /* only values 0..7 are used          */
  uint32_t PreemptPriorityBits;
  uint32_t SubPriorityBits;

  PreemptPriorityBits = ((7UL - PriorityGroupTmp) > (uint32_t)(__NVIC_PRIO_BITS)) ? (uint32_t)(__NVIC_PRIO_BITS) : (uint32_t)(7UL - PriorityGroupTmp);
 80006aa:	f1c3 0407 	rsb	r4, r3, #7
 80006ae:	2c04      	cmp	r4, #4
 80006b0:	bf28      	it	cs
 80006b2:	2404      	movcs	r4, #4
  SubPriorityBits     = ((PriorityGroupTmp + (uint32_t)(__NVIC_PRIO_BITS)) < (uint32_t)7UL) ? (uint32_t)0UL : (uint32_t)((PriorityGroupTmp - 7UL) + (uint32_t)(__NVIC_PRIO_BITS));
 80006b4:	1d1d      	adds	r5, r3, #4
 80006b6:	2d06      	cmp	r5, #6
 80006b8:	d914      	bls.n	80006e4 <HAL_NVIC_SetPriority+0x44>
 80006ba:	3b03      	subs	r3, #3

  return (
           ((PreemptPriority & (uint32_t)((1UL << (PreemptPriorityBits)) - 1UL)) << SubPriorityBits) |
 80006bc:	f04f 35ff 	mov.w	r5, #4294967295
 80006c0:	fa05 f404 	lsl.w	r4, r5, r4
 80006c4:	ea21 0104 	bic.w	r1, r1, r4
 80006c8:	4099      	lsls	r1, r3
           ((SubPriority     & (uint32_t)((1UL << (SubPriorityBits    )) - 1UL)))
 80006ca:	fa05 f303 	lsl.w	r3, r5, r3
 80006ce:	ea22 0303 	bic.w	r3, r2, r3
           ((PreemptPriority & (uint32_t)((1UL << (PreemptPriorityBits)) - 1UL)) << SubPriorityBits) |
 80006d2:	4319      	orrs	r1, r3
  if ((int32_t)(IRQn) >= 0)
 80006d4:	2800      	cmp	r0, #0
 80006d6:	db07      	blt.n	80006e8 <HAL_NVIC_SetPriority+0x48>
    NVIC->IP[((uint32_t)IRQn)]                = (uint8_t)((priority << (8U - __NVIC_PRIO_BITS)) & (uint32_t)0xFFUL);
 80006d8:	0109      	lsls	r1, r1, #4
 80006da:	b2c9      	uxtb	r1, r1
 80006dc:	4b07      	ldr	r3, [pc, #28]	; (80006fc <HAL_NVIC_SetPriority+0x5c>)
 80006de:	5419      	strb	r1, [r3, r0]
  assert_param(IS_NVIC_PREEMPTION_PRIORITY(PreemptPriority));
  
  prioritygroup = NVIC_GetPriorityGrouping();
  
  NVIC_SetPriority(IRQn, NVIC_EncodePriority(prioritygroup, PreemptPriority, SubPriority));
}
 80006e0:	bc30      	pop	{r4, r5}
 80006e2:	4770      	bx	lr
  SubPriorityBits     = ((PriorityGroupTmp + (uint32_t)(__NVIC_PRIO_BITS)) < (uint32_t)7UL) ? (uint32_t)0UL : (uint32_t)((PriorityGroupTmp - 7UL) + (uint32_t)(__NVIC_PRIO_BITS));
 80006e4:	2300      	movs	r3, #0
 80006e6:	e7e9      	b.n	80006bc <HAL_NVIC_SetPriority+0x1c>
    SCB->SHPR[(((uint32_t)IRQn) & 0xFUL)-4UL] = (uint8_t)((priority << (8U - __NVIC_PRIO_BITS)) & (uint32_t)0xFFUL);
 80006e8:	f000 000f 	and.w	r0, r0, #15
 80006ec:	0109      	lsls	r1, r1, #4
 80006ee:	b2c9      	uxtb	r1, r1
 80006f0:	4b03      	ldr	r3, [pc, #12]	; (8000700 <HAL_NVIC_SetPriority+0x60>)
 80006f2:	5419      	strb	r1, [r3, r0]
 80006f4:	e7f4      	b.n	80006e0 <HAL_NVIC_SetPriority+0x40>
 80006f6:	bf00      	nop
 80006f8:	e000ed00 	.word	0xe000ed00
 80006fc:	e000e400 	.word	0xe000e400
 8000700:	e000ed14 	.word	0xe000ed14

08000704 <HAL_NVIC_EnableIRQ>:
  if ((int32_t)(IRQn) >= 0)
 8000704:	2800      	cmp	r0, #0
 8000706:	db07      	blt.n	8000718 <HAL_NVIC_EnableIRQ+0x14>
    NVIC->ISER[(((uint32_t)IRQn) >> 5UL)] = (uint32_t)(1UL << (((uint32_t)IRQn) & 0x1FUL));
 8000708:	f000 021f 	and.w	r2, r0, #31
 800070c:	0940      	lsrs	r0, r0, #5
 800070e:	2301      	movs	r3, #1
 8000710:	4093      	lsls	r3, r2
 8000712:	4a02      	ldr	r2, [pc, #8]	; (800071c <HAL_NVIC_EnableIRQ+0x18>)
 8000714:	f842 3020 	str.w	r3, [r2, r0, lsl #2]
  /* Check the parameters */
  assert_param(IS_NVIC_DEVICE_IRQ(IRQn));
  
  /* Enable interrupt */
  NVIC_EnableIRQ(IRQn);
}
 8000718:	4770      	bx	lr
 800071a:	bf00      	nop
 800071c:	e000e100 	.word	0xe000e100

08000720 <HAL_SYSTICK_Config>:
           function <b>SysTick_Config</b> is not included. In this case, the file <b><i>device</i>.h</b>
           must contain a vendor-specific implementation of this function.
 */
__STATIC_INLINE uint32_t SysTick_Config(uint32_t ticks)
{
  if ((ticks - 1UL) > SysTick_LOAD_RELOAD_Msk)
 8000720:	3801      	subs	r0, #1
 8000722:	f1b0 7f80 	cmp.w	r0, #16777216	; 0x1000000
 8000726:	d20a      	bcs.n	800073e <HAL_SYSTICK_Config+0x1e>
  {
    return (1UL);                                                   /* Reload value impossible */
  }

  SysTick->LOAD  = (uint32_t)(ticks - 1UL);                         /* set reload register */
 8000728:	4b06      	ldr	r3, [pc, #24]	; (8000744 <HAL_SYSTICK_Config+0x24>)
 800072a:	6058      	str	r0, [r3, #4]
    SCB->SHPR[(((uint32_t)IRQn) & 0xFUL)-4UL] = (uint8_t)((priority << (8U - __NVIC_PRIO_BITS)) & (uint32_t)0xFFUL);
 800072c:	4a06      	ldr	r2, [pc, #24]	; (8000748 <HAL_SYSTICK_Config+0x28>)
 800072e:	21f0      	movs	r1, #240	; 0xf0
 8000730:	f882 1023 	strb.w	r1, [r2, #35]	; 0x23
  NVIC_SetPriority (SysTick_IRQn, (1UL << __NVIC_PRIO_BITS) - 1UL); /* set Priority for Systick Interrupt */
  SysTick->VAL   = 0UL;                                             /* Load the SysTick Counter Value */
 8000734:	2000      	movs	r0, #0
 8000736:	6098      	str	r0, [r3, #8]
  SysTick->CTRL  = SysTick_CTRL_CLKSOURCE_Msk |
 8000738:	2207      	movs	r2, #7
 800073a:	601a      	str	r2, [r3, #0]
 800073c:	4770      	bx	lr
    return (1UL);                                                   /* Reload value impossible */
 800073e:	2001      	movs	r0, #1
  *                  - 1  Function failed.
  */
uint32_t HAL_SYSTICK_Config(uint32_t TicksNumb)
{
   return SysTick_Config(TicksNumb);
}
 8000740:	4770      	bx	lr
 8000742:	bf00      	nop
 8000744:	e000e010 	.word	0xe000e010
 8000748:	e000ed00 	.word	0xe000ed00

0800074c <HAL_GPIO_Init>:
  assert_param(IS_GPIO_PIN(GPIO_Init->Pin));
  assert_param(IS_GPIO_MODE(GPIO_Init->Mode));
  assert_param(IS_GPIO_PULL(GPIO_Init->Pull));

  /* Configure the port pins */
  for(position = 0; position < GPIO_NUMBER; position++)
 800074c:	2300      	movs	r3, #0
 800074e:	2b0f      	cmp	r3, #15
 8000750:	f200 80d6 	bhi.w	8000900 <HAL_GPIO_Init+0x1b4>
{
 8000754:	b4f0      	push	{r4, r5, r6, r7}
 8000756:	b082      	sub	sp, #8
 8000758:	e039      	b.n	80007ce <HAL_GPIO_Init+0x82>
        /* Enable SYSCFG Clock */
        __HAL_RCC_SYSCFG_CLK_ENABLE();

        temp = SYSCFG->EXTICR[position >> 2];
        temp &= ~(((uint32_t)0x0F) << (4 * (position & 0x03)));
        temp |= ((uint32_t)(GPIO_GET_INDEX(GPIOx)) << (4 * (position & 0x03)));
 800075a:	2207      	movs	r2, #7
 800075c:	e000      	b.n	8000760 <HAL_GPIO_Init+0x14>
 800075e:	2200      	movs	r2, #0
 8000760:	40b2      	lsls	r2, r6
 8000762:	433a      	orrs	r2, r7
        SYSCFG->EXTICR[position >> 2] = temp;
 8000764:	3402      	adds	r4, #2
 8000766:	4e67      	ldr	r6, [pc, #412]	; (8000904 <HAL_GPIO_Init+0x1b8>)
 8000768:	f846 2024 	str.w	r2, [r6, r4, lsl #2]

        /* Clear EXTI line configuration */
        temp = EXTI->IMR;
 800076c:	4a66      	ldr	r2, [pc, #408]	; (8000908 <HAL_GPIO_Init+0x1bc>)
 800076e:	6814      	ldr	r4, [r2, #0]
        temp &= ~((uint32_t)iocurrent);
 8000770:	43ea      	mvns	r2, r5
 8000772:	ea02 0604 	and.w	r6, r2, r4
        if((GPIO_Init->Mode & GPIO_MODE_IT) == GPIO_MODE_IT)
 8000776:	684f      	ldr	r7, [r1, #4]
 8000778:	f417 3f80 	tst.w	r7, #65536	; 0x10000
 800077c:	d001      	beq.n	8000782 <HAL_GPIO_Init+0x36>
        {
          temp |= iocurrent;
 800077e:	ea45 0604 	orr.w	r6, r5, r4
        }
        EXTI->IMR = temp;
 8000782:	4c61      	ldr	r4, [pc, #388]	; (8000908 <HAL_GPIO_Init+0x1bc>)
 8000784:	6026      	str	r6, [r4, #0]

        temp = EXTI->EMR;
 8000786:	6864      	ldr	r4, [r4, #4]
        temp &= ~((uint32_t)iocurrent);
 8000788:	ea02 0604 	and.w	r6, r2, r4
        if((GPIO_Init->Mode & GPIO_MODE_EVT) == GPIO_MODE_EVT)
 800078c:	684f      	ldr	r7, [r1, #4]
 800078e:	f417 3f00 	tst.w	r7, #131072	; 0x20000
 8000792:	d001      	beq.n	8000798 <HAL_GPIO_Init+0x4c>
        {
          temp |= iocurrent;
 8000794:	ea45 0604 	orr.w	r6, r5, r4
        }
        EXTI->EMR = temp;
 8000798:	4c5b      	ldr	r4, [pc, #364]	; (8000908 <HAL_GPIO_Init+0x1bc>)
 800079a:	6066      	str	r6, [r4, #4]

        /* Clear Rising Falling edge configuration */
        temp = EXTI->RTSR;
 800079c:	68a4      	ldr	r4, [r4, #8]
        temp &= ~((uint32_t)iocurrent);
 800079e:	ea02 0604 	and.w	r6, r2, r4
        if((GPIO_Init->Mode & RISING_EDGE) == RISING_EDGE)
 80007a2:	684f      	ldr	r7, [r1, #4]
 80007a4:	f417 1f80 	tst.w	r7, #1048576	; 0x100000
 80007a8:	d001      	beq.n	80007ae <HAL_GPIO_Init+0x62>
        {
          temp |= iocurrent;
 80007aa:	ea45 0604 	orr.w	r6, r5, r4
        }
        EXTI->RTSR = temp;
 80007ae:	4c56      	ldr	r4, [pc, #344]	; (8000908 <HAL_GPIO_Init+0x1bc>)
 80007b0:	60a6      	str	r6, [r4, #8]

        temp = EXTI->FTSR;
 80007b2:	68e4      	ldr	r4, [r4, #12]
        temp &= ~((uint32_t)iocurrent);
 80007b4:	4022      	ands	r2, r4
        if((GPIO_Init->Mode & FALLING_EDGE) == FALLING_EDGE)
 80007b6:	684e      	ldr	r6, [r1, #4]
 80007b8:	f416 1f00 	tst.w	r6, #2097152	; 0x200000
 80007bc:	d001      	beq.n	80007c2 <HAL_GPIO_Init+0x76>
        {
          temp |= iocurrent;
 80007be:	ea45 0204 	orr.w	r2, r5, r4
        }
        EXTI->FTSR = temp;
 80007c2:	4c51      	ldr	r4, [pc, #324]	; (8000908 <HAL_GPIO_Init+0x1bc>)
 80007c4:	60e2      	str	r2, [r4, #12]
  for(position = 0; position < GPIO_NUMBER; position++)
 80007c6:	3301      	adds	r3, #1
 80007c8:	2b0f      	cmp	r3, #15
 80007ca:	f200 8096 	bhi.w	80008fa <HAL_GPIO_Init+0x1ae>
    ioposition = ((uint32_t)0x01) << position;
 80007ce:	2201      	movs	r2, #1
 80007d0:	409a      	lsls	r2, r3
    iocurrent = (uint32_t)(GPIO_Init->Pin) & ioposition;
 80007d2:	680c      	ldr	r4, [r1, #0]
 80007d4:	ea04 0502 	and.w	r5, r4, r2
    if(iocurrent == ioposition)
 80007d8:	42aa      	cmp	r2, r5
 80007da:	d1f4      	bne.n	80007c6 <HAL_GPIO_Init+0x7a>
      if((GPIO_Init->Mode == GPIO_MODE_AF_PP) || (GPIO_Init->Mode == GPIO_MODE_AF_OD))
 80007dc:	684c      	ldr	r4, [r1, #4]
 80007de:	2c12      	cmp	r4, #18
 80007e0:	bf18      	it	ne
 80007e2:	2c02      	cmpne	r4, #2
 80007e4:	d110      	bne.n	8000808 <HAL_GPIO_Init+0xbc>
        temp = GPIOx->AFR[position >> 3];
 80007e6:	08de      	lsrs	r6, r3, #3
 80007e8:	3608      	adds	r6, #8
 80007ea:	f850 c026 	ldr.w	ip, [r0, r6, lsl #2]
        temp &= ~((uint32_t)0xF << ((uint32_t)(position & (uint32_t)0x07) * 4)) ;
 80007ee:	f003 0407 	and.w	r4, r3, #7
 80007f2:	00a7      	lsls	r7, r4, #2
 80007f4:	240f      	movs	r4, #15
 80007f6:	40bc      	lsls	r4, r7
 80007f8:	ea2c 0c04 	bic.w	ip, ip, r4
        temp |= ((uint32_t)(GPIO_Init->Alternate) << (((uint32_t)position & (uint32_t)0x07) * 4));
 80007fc:	690c      	ldr	r4, [r1, #16]
 80007fe:	40bc      	lsls	r4, r7
 8000800:	ea44 040c 	orr.w	r4, r4, ip
        GPIOx->AFR[position >> 3] = temp;
 8000804:	f840 4026 	str.w	r4, [r0, r6, lsl #2]
      temp = GPIOx->MODER;
 8000808:	6804      	ldr	r4, [r0, #0]
      temp &= ~(GPIO_MODER_MODER0 << (position * 2));
 800080a:	005f      	lsls	r7, r3, #1
 800080c:	2603      	movs	r6, #3
 800080e:	40be      	lsls	r6, r7
 8000810:	43f6      	mvns	r6, r6
 8000812:	ea06 0c04 	and.w	ip, r6, r4
      temp |= ((GPIO_Init->Mode & GPIO_MODE) << (position * 2));
 8000816:	684c      	ldr	r4, [r1, #4]
 8000818:	f004 0403 	and.w	r4, r4, #3
 800081c:	40bc      	lsls	r4, r7
 800081e:	ea44 040c 	orr.w	r4, r4, ip
      GPIOx->MODER = temp;
 8000822:	6004      	str	r4, [r0, #0]
      if((GPIO_Init->Mode == GPIO_MODE_OUTPUT_PP) || (GPIO_Init->Mode == GPIO_MODE_AF_PP) ||
 8000824:	684c      	ldr	r4, [r1, #4]
 8000826:	f104 3cff 	add.w	ip, r4, #4294967295
 800082a:	2c11      	cmp	r4, #17
 800082c:	bf18      	it	ne
 800082e:	f1bc 0f01 	cmpne.w	ip, #1
 8000832:	d901      	bls.n	8000838 <HAL_GPIO_Init+0xec>
         (GPIO_Init->Mode == GPIO_MODE_OUTPUT_OD) || (GPIO_Init->Mode == GPIO_MODE_AF_OD))
 8000834:	2c12      	cmp	r4, #18
 8000836:	d111      	bne.n	800085c <HAL_GPIO_Init+0x110>
        temp = GPIOx->OSPEEDR; 
 8000838:	6884      	ldr	r4, [r0, #8]
        temp &= ~(GPIO_OSPEEDER_OSPEEDR0 << (position * 2));
 800083a:	ea06 0c04 	and.w	ip, r6, r4
        temp |= (GPIO_Init->Speed << (position * 2));
 800083e:	68cc      	ldr	r4, [r1, #12]
 8000840:	40bc      	lsls	r4, r7
 8000842:	ea44 040c 	orr.w	r4, r4, ip
        GPIOx->OSPEEDR = temp;
 8000846:	6084      	str	r4, [r0, #8]
        temp = GPIOx->OTYPER;
 8000848:	6844      	ldr	r4, [r0, #4]
        temp &= ~(GPIO_OTYPER_OT_0 << position) ;
 800084a:	ea24 0c02 	bic.w	ip, r4, r2
        temp |= (((GPIO_Init->Mode & GPIO_OUTPUT_TYPE) >> 4) << position);
 800084e:	684c      	ldr	r4, [r1, #4]
 8000850:	f3c4 1200 	ubfx	r2, r4, #4, #1
 8000854:	409a      	lsls	r2, r3
 8000856:	ea42 020c 	orr.w	r2, r2, ip
        GPIOx->OTYPER = temp;
 800085a:	6042      	str	r2, [r0, #4]
      temp = GPIOx->PUPDR;
 800085c:	68c2      	ldr	r2, [r0, #12]
      temp &= ~(GPIO_PUPDR_PUPDR0 << (position * 2));
 800085e:	4016      	ands	r6, r2
      temp |= ((GPIO_Init->Pull) << (position * 2));
 8000860:	688a      	ldr	r2, [r1, #8]
 8000862:	40ba      	lsls	r2, r7
 8000864:	4332      	orrs	r2, r6
      GPIOx->PUPDR = temp;
 8000866:	60c2      	str	r2, [r0, #12]
      if((GPIO_Init->Mode & EXTI_MODE) == EXTI_MODE)
 8000868:	684a      	ldr	r2, [r1, #4]
 800086a:	f012 5f80 	tst.w	r2, #268435456	; 0x10000000
 800086e:	d0aa      	beq.n	80007c6 <HAL_GPIO_Init+0x7a>
        __HAL_RCC_SYSCFG_CLK_ENABLE();
 8000870:	4a26      	ldr	r2, [pc, #152]	; (800090c <HAL_GPIO_Init+0x1c0>)
 8000872:	6c54      	ldr	r4, [r2, #68]	; 0x44
 8000874:	f444 4480 	orr.w	r4, r4, #16384	; 0x4000
 8000878:	6454      	str	r4, [r2, #68]	; 0x44
 800087a:	6c52      	ldr	r2, [r2, #68]	; 0x44
 800087c:	f402 4280 	and.w	r2, r2, #16384	; 0x4000
 8000880:	9201      	str	r2, [sp, #4]
 8000882:	9a01      	ldr	r2, [sp, #4]
        temp = SYSCFG->EXTICR[position >> 2];
 8000884:	089c      	lsrs	r4, r3, #2
 8000886:	1ca6      	adds	r6, r4, #2
 8000888:	4a1e      	ldr	r2, [pc, #120]	; (8000904 <HAL_GPIO_Init+0x1b8>)
 800088a:	f852 7026 	ldr.w	r7, [r2, r6, lsl #2]
        temp &= ~(((uint32_t)0x0F) << (4 * (position & 0x03)));
 800088e:	f003 0203 	and.w	r2, r3, #3
 8000892:	0096      	lsls	r6, r2, #2
 8000894:	220f      	movs	r2, #15
 8000896:	40b2      	lsls	r2, r6
 8000898:	ea27 0702 	bic.w	r7, r7, r2
        temp |= ((uint32_t)(GPIO_GET_INDEX(GPIOx)) << (4 * (position & 0x03)));
 800089c:	4a1c      	ldr	r2, [pc, #112]	; (8000910 <HAL_GPIO_Init+0x1c4>)
 800089e:	4290      	cmp	r0, r2
 80008a0:	f43f af5d 	beq.w	800075e <HAL_GPIO_Init+0x12>
 80008a4:	f502 6280 	add.w	r2, r2, #1024	; 0x400
 80008a8:	4290      	cmp	r0, r2
 80008aa:	d01a      	beq.n	80008e2 <HAL_GPIO_Init+0x196>
 80008ac:	f502 6280 	add.w	r2, r2, #1024	; 0x400
 80008b0:	4290      	cmp	r0, r2
 80008b2:	d018      	beq.n	80008e6 <HAL_GPIO_Init+0x19a>
 80008b4:	f502 6280 	add.w	r2, r2, #1024	; 0x400
 80008b8:	4290      	cmp	r0, r2
 80008ba:	d016      	beq.n	80008ea <HAL_GPIO_Init+0x19e>
 80008bc:	f502 6280 	add.w	r2, r2, #1024	; 0x400
 80008c0:	4290      	cmp	r0, r2
 80008c2:	d014      	beq.n	80008ee <HAL_GPIO_Init+0x1a2>
 80008c4:	f502 6280 	add.w	r2, r2, #1024	; 0x400
 80008c8:	4290      	cmp	r0, r2
 80008ca:	d012      	beq.n	80008f2 <HAL_GPIO_Init+0x1a6>
 80008cc:	f502 6280 	add.w	r2, r2, #1024	; 0x400
 80008d0:	4290      	cmp	r0, r2
 80008d2:	d010      	beq.n	80008f6 <HAL_GPIO_Init+0x1aa>
 80008d4:	f502 6280 	add.w	r2, r2, #1024	; 0x400
 80008d8:	4290      	cmp	r0, r2
 80008da:	f43f af3e 	beq.w	800075a <HAL_GPIO_Init+0xe>
 80008de:	2208      	movs	r2, #8
 80008e0:	e73e      	b.n	8000760 <HAL_GPIO_Init+0x14>
 80008e2:	2201      	movs	r2, #1
 80008e4:	e73c      	b.n	8000760 <HAL_GPIO_Init+0x14>
 80008e6:	2202      	movs	r2, #2
 80008e8:	e73a      	b.n	8000760 <HAL_GPIO_Init+0x14>
 80008ea:	2203      	movs	r2, #3
 80008ec:	e738      	b.n	8000760 <HAL_GPIO_Init+0x14>
 80008ee:	2204      	movs	r2, #4
 80008f0:	e736      	b.n	8000760 <HAL_GPIO_Init+0x14>
 80008f2:	2205      	movs	r2, #5
 80008f4:	e734      	b.n	8000760 <HAL_GPIO_Init+0x14>
 80008f6:	2206      	movs	r2, #6
 80008f8:	e732      	b.n	8000760 <HAL_GPIO_Init+0x14>
      }
    }
  }
}
 80008fa:	b002      	add	sp, #8
 80008fc:	bcf0      	pop	{r4, r5, r6, r7}
 80008fe:	4770      	bx	lr
 8000900:	4770      	bx	lr
 8000902:	bf00      	nop
 8000904:	40013800 	.word	0x40013800
 8000908:	40013c00 	.word	0x40013c00
 800090c:	40023800 	.word	0x40023800
 8000910:	40020000 	.word	0x40020000

08000914 <HAL_GPIO_WritePin>:
{
  /* Check the parameters */
  assert_param(IS_GPIO_PIN(GPIO_Pin));
  assert_param(IS_GPIO_PIN_ACTION(PinState));

  if(PinState != GPIO_PIN_RESET)
 8000914:	b912      	cbnz	r2, 800091c <HAL_GPIO_WritePin+0x8>
  {
    GPIOx->BSRR = GPIO_Pin;
  }
  else
  {
    GPIOx->BSRR = (uint32_t)GPIO_Pin << 16;
 8000916:	0409      	lsls	r1, r1, #16
 8000918:	6181      	str	r1, [r0, #24]
  }
}
 800091a:	4770      	bx	lr
    GPIOx->BSRR = GPIO_Pin;
 800091c:	6181      	str	r1, [r0, #24]
 800091e:	4770      	bx	lr

08000920 <PCD_WriteEmptyTxFifo>:
  * @param  hpcd PCD handle
  * @param  epnum endpoint number
  * @retval HAL status
  */
static HAL_StatusTypeDef PCD_WriteEmptyTxFifo(PCD_HandleTypeDef *hpcd, uint32_t epnum)
{
 8000920:	e92d 47f0 	stmdb	sp!, {r4, r5, r6, r7, r8, r9, sl, lr}
 8000924:	b082      	sub	sp, #8
  USB_OTG_GlobalTypeDef *USBx = hpcd->Instance;
 8000926:	6807      	ldr	r7, [r0, #0]
  uint32_t len32b;
  uint32_t fifoemptymsk;

  ep = &hpcd->IN_ep[epnum];

  if (ep->xfer_count > ep->xfer_len)
 8000928:	00ca      	lsls	r2, r1, #3
 800092a:	1a52      	subs	r2, r2, r1
 800092c:	0093      	lsls	r3, r2, #2
 800092e:	4403      	add	r3, r0
 8000930:	6d5a      	ldr	r2, [r3, #84]	; 0x54
 8000932:	6d1b      	ldr	r3, [r3, #80]	; 0x50
 8000934:	429a      	cmp	r2, r3
 8000936:	d857      	bhi.n	80009e8 <PCD_WriteEmptyTxFifo+0xc8>
 8000938:	46b8      	mov	r8, r7
  {
    return HAL_ERROR;
  }

  len = ep->xfer_len - ep->xfer_count;
 800093a:	1a9b      	subs	r3, r3, r2

  if (len > ep->maxpacket)
 800093c:	ebc1 04c1 	rsb	r4, r1, r1, lsl #3
 8000940:	00a2      	lsls	r2, r4, #2
 8000942:	4402      	add	r2, r0
 8000944:	6c52      	ldr	r2, [r2, #68]	; 0x44
 8000946:	429a      	cmp	r2, r3
 8000948:	d300      	bcc.n	800094c <PCD_WriteEmptyTxFifo+0x2c>
  len = ep->xfer_len - ep->xfer_count;
 800094a:	461a      	mov	r2, r3
 800094c:	460c      	mov	r4, r1
 800094e:	4606      	mov	r6, r0
  {
    len = ep->maxpacket;
  }

  len32b = (len + 3U) / 4U;
 8000950:	f102 0a03 	add.w	sl, r2, #3
 8000954:	ea4f 0a9a 	mov.w	sl, sl, lsr #2

  while (((USBx_INEP(epnum)->DTXFSTS & USB_OTG_DTXFSTS_INEPTFSAV) >= len32b) &&
 8000958:	e016      	b.n	8000988 <PCD_WriteEmptyTxFifo+0x68>

    if (len > ep->maxpacket)
    {
      len = ep->maxpacket;
    }
    len32b = (len + 3U) / 4U;
 800095a:	f109 0a03 	add.w	sl, r9, #3
 800095e:	ea4f 0a9a 	mov.w	sl, sl, lsr #2

    (void)USB_WritePacket(USBx, ep->xfer_buff, (uint8_t)epnum, (uint16_t)len,
 8000962:	00e3      	lsls	r3, r4, #3
 8000964:	1b1b      	subs	r3, r3, r4
 8000966:	009d      	lsls	r5, r3, #2
 8000968:	4435      	add	r5, r6
 800096a:	6ca9      	ldr	r1, [r5, #72]	; 0x48
 800096c:	7c33      	ldrb	r3, [r6, #16]
 800096e:	9300      	str	r3, [sp, #0]
 8000970:	fa1f f389 	uxth.w	r3, r9
 8000974:	b2e2      	uxtb	r2, r4
 8000976:	4638      	mov	r0, r7
 8000978:	f002 f952 	bl	8002c20 <USB_WritePacket>
                          (uint8_t)hpcd->Init.dma_enable);

    ep->xfer_buff  += len;
 800097c:	6cab      	ldr	r3, [r5, #72]	; 0x48
 800097e:	444b      	add	r3, r9
 8000980:	64ab      	str	r3, [r5, #72]	; 0x48
    ep->xfer_count += len;
 8000982:	6d6b      	ldr	r3, [r5, #84]	; 0x54
 8000984:	444b      	add	r3, r9
 8000986:	656b      	str	r3, [r5, #84]	; 0x54
  while (((USBx_INEP(epnum)->DTXFSTS & USB_OTG_DTXFSTS_INEPTFSAV) >= len32b) &&
 8000988:	eb08 1344 	add.w	r3, r8, r4, lsl #5
 800098c:	f503 6310 	add.w	r3, r3, #2304	; 0x900
 8000990:	699b      	ldr	r3, [r3, #24]
 8000992:	b29b      	uxth	r3, r3
 8000994:	4553      	cmp	r3, sl
 8000996:	d313      	bcc.n	80009c0 <PCD_WriteEmptyTxFifo+0xa0>
         (ep->xfer_count < ep->xfer_len) && (ep->xfer_len != 0U))
 8000998:	00e3      	lsls	r3, r4, #3
 800099a:	1b1b      	subs	r3, r3, r4
 800099c:	009a      	lsls	r2, r3, #2
 800099e:	4432      	add	r2, r6
 80009a0:	6d51      	ldr	r1, [r2, #84]	; 0x54
 80009a2:	6d13      	ldr	r3, [r2, #80]	; 0x50
  while (((USBx_INEP(epnum)->DTXFSTS & USB_OTG_DTXFSTS_INEPTFSAV) >= len32b) &&
 80009a4:	4299      	cmp	r1, r3
 80009a6:	d20b      	bcs.n	80009c0 <PCD_WriteEmptyTxFifo+0xa0>
         (ep->xfer_count < ep->xfer_len) && (ep->xfer_len != 0U))
 80009a8:	b153      	cbz	r3, 80009c0 <PCD_WriteEmptyTxFifo+0xa0>
    len = ep->xfer_len - ep->xfer_count;
 80009aa:	1a5b      	subs	r3, r3, r1
    if (len > ep->maxpacket)
 80009ac:	ebc4 01c4 	rsb	r1, r4, r4, lsl #3
 80009b0:	008a      	lsls	r2, r1, #2
 80009b2:	4432      	add	r2, r6
 80009b4:	f8d2 9044 	ldr.w	r9, [r2, #68]	; 0x44
 80009b8:	4599      	cmp	r9, r3
 80009ba:	d3ce      	bcc.n	800095a <PCD_WriteEmptyTxFifo+0x3a>
    len = ep->xfer_len - ep->xfer_count;
 80009bc:	4699      	mov	r9, r3
 80009be:	e7cc      	b.n	800095a <PCD_WriteEmptyTxFifo+0x3a>
  }

  if (ep->xfer_len <= ep->xfer_count)
 80009c0:	00e3      	lsls	r3, r4, #3
 80009c2:	1b1b      	subs	r3, r3, r4
 80009c4:	0098      	lsls	r0, r3, #2
 80009c6:	4406      	add	r6, r0
 80009c8:	6d32      	ldr	r2, [r6, #80]	; 0x50
 80009ca:	6d73      	ldr	r3, [r6, #84]	; 0x54
 80009cc:	429a      	cmp	r2, r3
 80009ce:	d80f      	bhi.n	80009f0 <PCD_WriteEmptyTxFifo+0xd0>
  {
    fifoemptymsk = (uint32_t)(0x1UL << (epnum & EP_ADDR_MSK));
 80009d0:	f004 040f 	and.w	r4, r4, #15
 80009d4:	2101      	movs	r1, #1
 80009d6:	40a1      	lsls	r1, r4
    USBx_DEVICE->DIEPEMPMSK &= ~fifoemptymsk;
 80009d8:	f8d7 4834 	ldr.w	r4, [r7, #2100]	; 0x834
 80009dc:	ea24 0401 	bic.w	r4, r4, r1
 80009e0:	f8c7 4834 	str.w	r4, [r7, #2100]	; 0x834
  }

  return HAL_OK;
 80009e4:	2000      	movs	r0, #0
 80009e6:	e000      	b.n	80009ea <PCD_WriteEmptyTxFifo+0xca>
    return HAL_ERROR;
 80009e8:	2001      	movs	r0, #1
}
 80009ea:	b002      	add	sp, #8
 80009ec:	e8bd 87f0 	ldmia.w	sp!, {r4, r5, r6, r7, r8, r9, sl, pc}
  return HAL_OK;
 80009f0:	2000      	movs	r0, #0
 80009f2:	e7fa      	b.n	80009ea <PCD_WriteEmptyTxFifo+0xca>

080009f4 <HAL_PCD_Init>:
{
 80009f4:	b5f0      	push	{r4, r5, r6, r7, lr}
 80009f6:	b08b      	sub	sp, #44	; 0x2c
  if (hpcd == NULL)
 80009f8:	2800      	cmp	r0, #0
 80009fa:	f000 808a 	beq.w	8000b12 <HAL_PCD_Init+0x11e>
 80009fe:	4604      	mov	r4, r0
  if (hpcd->State == HAL_PCD_STATE_RESET)
 8000a00:	f890 33bd 	ldrb.w	r3, [r0, #957]	; 0x3bd
 8000a04:	b1f3      	cbz	r3, 8000a44 <HAL_PCD_Init+0x50>
  hpcd->State = HAL_PCD_STATE_BUSY;
 8000a06:	2303      	movs	r3, #3
 8000a08:	f884 33bd 	strb.w	r3, [r4, #957]	; 0x3bd
  __HAL_PCD_DISABLE(hpcd);
 8000a0c:	6820      	ldr	r0, [r4, #0]
 8000a0e:	f001 febd 	bl	800278c <USB_DisableGlobalInt>
  if (USB_CoreInit(hpcd->Instance, hpcd->Init) != HAL_OK)
 8000a12:	4625      	mov	r5, r4
 8000a14:	f855 7b10 	ldr.w	r7, [r5], #16
 8000a18:	466e      	mov	r6, sp
 8000a1a:	cd0f      	ldmia	r5!, {r0, r1, r2, r3}
 8000a1c:	c60f      	stmia	r6!, {r0, r1, r2, r3}
 8000a1e:	cd0f      	ldmia	r5!, {r0, r1, r2, r3}
 8000a20:	c60f      	stmia	r6!, {r0, r1, r2, r3}
 8000a22:	e895 0003 	ldmia.w	r5, {r0, r1}
 8000a26:	e886 0003 	stmia.w	r6, {r0, r1}
 8000a2a:	1d23      	adds	r3, r4, #4
 8000a2c:	cb0e      	ldmia	r3, {r1, r2, r3}
 8000a2e:	4638      	mov	r0, r7
 8000a30:	f001 fdf2 	bl	8002618 <USB_CoreInit>
 8000a34:	b158      	cbz	r0, 8000a4e <HAL_PCD_Init+0x5a>
    hpcd->State = HAL_PCD_STATE_ERROR;
 8000a36:	2302      	movs	r3, #2
 8000a38:	f884 33bd 	strb.w	r3, [r4, #957]	; 0x3bd
    return HAL_ERROR;
 8000a3c:	2501      	movs	r5, #1
}
 8000a3e:	4628      	mov	r0, r5
 8000a40:	b00b      	add	sp, #44	; 0x2c
 8000a42:	bdf0      	pop	{r4, r5, r6, r7, pc}
    hpcd->Lock = HAL_UNLOCKED;
 8000a44:	f880 33bc 	strb.w	r3, [r0, #956]	; 0x3bc
    HAL_PCD_MspInit(hpcd);
 8000a48:	f003 fc48 	bl	80042dc <HAL_PCD_MspInit>
 8000a4c:	e7db      	b.n	8000a06 <HAL_PCD_Init+0x12>
  (void)USB_SetCurrentMode(hpcd->Instance, USB_DEVICE_MODE);
 8000a4e:	2100      	movs	r1, #0
 8000a50:	6820      	ldr	r0, [r4, #0]
 8000a52:	f001 fea1 	bl	8002798 <USB_SetCurrentMode>
  for (i = 0U; i < hpcd->Init.dev_endpoints; i++)
 8000a56:	2300      	movs	r3, #0
 8000a58:	e015      	b.n	8000a86 <HAL_PCD_Init+0x92>
    hpcd->IN_ep[i].is_in = 1U;
 8000a5a:	00d9      	lsls	r1, r3, #3
 8000a5c:	1ac8      	subs	r0, r1, r3
 8000a5e:	0082      	lsls	r2, r0, #2
 8000a60:	4422      	add	r2, r4
 8000a62:	2001      	movs	r0, #1
 8000a64:	f882 003d 	strb.w	r0, [r2, #61]	; 0x3d
    hpcd->IN_ep[i].num = i;
 8000a68:	f882 303c 	strb.w	r3, [r2, #60]	; 0x3c
    hpcd->IN_ep[i].tx_fifo_num = i;
 8000a6c:	f8a2 3042 	strh.w	r3, [r2, #66]	; 0x42
    hpcd->IN_ep[i].type = EP_TYPE_CTRL;
 8000a70:	2000      	movs	r0, #0
 8000a72:	f882 003f 	strb.w	r0, [r2, #63]	; 0x3f
    hpcd->IN_ep[i].maxpacket = 0U;
 8000a76:	6450      	str	r0, [r2, #68]	; 0x44
    hpcd->IN_ep[i].xfer_buff = 0U;
 8000a78:	6490      	str	r0, [r2, #72]	; 0x48
    hpcd->IN_ep[i].xfer_len = 0U;
 8000a7a:	1aca      	subs	r2, r1, r3
 8000a7c:	0091      	lsls	r1, r2, #2
 8000a7e:	4421      	add	r1, r4
 8000a80:	6508      	str	r0, [r1, #80]	; 0x50
  for (i = 0U; i < hpcd->Init.dev_endpoints; i++)
 8000a82:	3301      	adds	r3, #1
 8000a84:	b2db      	uxtb	r3, r3
 8000a86:	6865      	ldr	r5, [r4, #4]
 8000a88:	42ab      	cmp	r3, r5
 8000a8a:	d3e6      	bcc.n	8000a5a <HAL_PCD_Init+0x66>
  for (i = 0U; i < hpcd->Init.dev_endpoints; i++)
 8000a8c:	2300      	movs	r3, #0
 8000a8e:	e015      	b.n	8000abc <HAL_PCD_Init+0xc8>
    hpcd->OUT_ep[i].is_in = 0U;
 8000a90:	00d8      	lsls	r0, r3, #3
 8000a92:	1ac1      	subs	r1, r0, r3
 8000a94:	008a      	lsls	r2, r1, #2
 8000a96:	4422      	add	r2, r4
 8000a98:	2100      	movs	r1, #0
 8000a9a:	f882 11fd 	strb.w	r1, [r2, #509]	; 0x1fd
    hpcd->OUT_ep[i].num = i;
 8000a9e:	f882 31fc 	strb.w	r3, [r2, #508]	; 0x1fc
    hpcd->OUT_ep[i].type = EP_TYPE_CTRL;
 8000aa2:	f882 11ff 	strb.w	r1, [r2, #511]	; 0x1ff
    hpcd->OUT_ep[i].maxpacket = 0U;
 8000aa6:	f8c2 1204 	str.w	r1, [r2, #516]	; 0x204
    hpcd->OUT_ep[i].xfer_buff = 0U;
 8000aaa:	f8c2 1208 	str.w	r1, [r2, #520]	; 0x208
    hpcd->OUT_ep[i].xfer_len = 0U;
 8000aae:	1ac2      	subs	r2, r0, r3
 8000ab0:	0090      	lsls	r0, r2, #2
 8000ab2:	4420      	add	r0, r4
 8000ab4:	f8c0 1210 	str.w	r1, [r0, #528]	; 0x210
  for (i = 0U; i < hpcd->Init.dev_endpoints; i++)
 8000ab8:	3301      	adds	r3, #1
 8000aba:	b2db      	uxtb	r3, r3
 8000abc:	429d      	cmp	r5, r3
 8000abe:	d8e7      	bhi.n	8000a90 <HAL_PCD_Init+0x9c>
  if (USB_DevInit(hpcd->Instance, hpcd->Init) != HAL_OK)
 8000ac0:	4625      	mov	r5, r4
 8000ac2:	f855 7b10 	ldr.w	r7, [r5], #16
 8000ac6:	466e      	mov	r6, sp
 8000ac8:	cd0f      	ldmia	r5!, {r0, r1, r2, r3}
 8000aca:	c60f      	stmia	r6!, {r0, r1, r2, r3}
 8000acc:	cd0f      	ldmia	r5!, {r0, r1, r2, r3}
 8000ace:	c60f      	stmia	r6!, {r0, r1, r2, r3}
 8000ad0:	e895 0003 	ldmia.w	r5, {r0, r1}
 8000ad4:	e886 0003 	stmia.w	r6, {r0, r1}
 8000ad8:	1d23      	adds	r3, r4, #4
 8000ada:	cb0e      	ldmia	r3, {r1, r2, r3}
 8000adc:	4638      	mov	r0, r7
 8000ade:	f001 fea1 	bl	8002824 <USB_DevInit>
 8000ae2:	4605      	mov	r5, r0
 8000ae4:	b960      	cbnz	r0, 8000b00 <HAL_PCD_Init+0x10c>
  hpcd->USB_Address = 0U;
 8000ae6:	2300      	movs	r3, #0
 8000ae8:	f884 3038 	strb.w	r3, [r4, #56]	; 0x38
  hpcd->State = HAL_PCD_STATE_READY;
 8000aec:	2301      	movs	r3, #1
 8000aee:	f884 33bd 	strb.w	r3, [r4, #957]	; 0x3bd
  if (hpcd->Init.lpm_enable == 1U)
 8000af2:	6a63      	ldr	r3, [r4, #36]	; 0x24
 8000af4:	2b01      	cmp	r3, #1
 8000af6:	d008      	beq.n	8000b0a <HAL_PCD_Init+0x116>
  (void)USB_DevDisconnect(hpcd->Instance);
 8000af8:	6820      	ldr	r0, [r4, #0]
 8000afa:	f002 fa24 	bl	8002f46 <USB_DevDisconnect>
  return HAL_OK;
 8000afe:	e79e      	b.n	8000a3e <HAL_PCD_Init+0x4a>
    hpcd->State = HAL_PCD_STATE_ERROR;
 8000b00:	2302      	movs	r3, #2
 8000b02:	f884 33bd 	strb.w	r3, [r4, #957]	; 0x3bd
    return HAL_ERROR;
 8000b06:	2501      	movs	r5, #1
 8000b08:	e799      	b.n	8000a3e <HAL_PCD_Init+0x4a>
    (void)HAL_PCDEx_ActivateLPM(hpcd);
 8000b0a:	4620      	mov	r0, r4
 8000b0c:	f000 fcca 	bl	80014a4 <HAL_PCDEx_ActivateLPM>
 8000b10:	e7f2      	b.n	8000af8 <HAL_PCD_Init+0x104>
    return HAL_ERROR;
 8000b12:	2501      	movs	r5, #1
 8000b14:	e793      	b.n	8000a3e <HAL_PCD_Init+0x4a>

08000b16 <HAL_PCD_Start>:
  __HAL_LOCK(hpcd);
 8000b16:	f890 33bc 	ldrb.w	r3, [r0, #956]	; 0x3bc
 8000b1a:	2b01      	cmp	r3, #1
 8000b1c:	d00e      	beq.n	8000b3c <HAL_PCD_Start+0x26>
{
 8000b1e:	b510      	push	{r4, lr}
 8000b20:	4604      	mov	r4, r0
  __HAL_LOCK(hpcd);
 8000b22:	2301      	movs	r3, #1
 8000b24:	f880 33bc 	strb.w	r3, [r0, #956]	; 0x3bc
  (void)USB_DevConnect(hpcd->Instance);
 8000b28:	6800      	ldr	r0, [r0, #0]
 8000b2a:	f002 fa00 	bl	8002f2e <USB_DevConnect>
  __HAL_PCD_ENABLE(hpcd);
 8000b2e:	6820      	ldr	r0, [r4, #0]
 8000b30:	f001 fe26 	bl	8002780 <USB_EnableGlobalInt>
  __HAL_UNLOCK(hpcd);
 8000b34:	2000      	movs	r0, #0
 8000b36:	f884 03bc 	strb.w	r0, [r4, #956]	; 0x3bc
}
 8000b3a:	bd10      	pop	{r4, pc}
  __HAL_LOCK(hpcd);
 8000b3c:	2002      	movs	r0, #2
}
 8000b3e:	4770      	bx	lr

08000b40 <PCD_EP_OutXfrComplete_int>:
  * @param  hpcd PCD handle
  * @param  epnum endpoint number
  * @retval HAL status
  */
static HAL_StatusTypeDef PCD_EP_OutXfrComplete_int(PCD_HandleTypeDef *hpcd, uint32_t epnum)
{
 8000b40:	b570      	push	{r4, r5, r6, lr}
 8000b42:	4605      	mov	r5, r0
 8000b44:	460e      	mov	r6, r1
  USB_OTG_GlobalTypeDef *USBx = hpcd->Instance;
 8000b46:	6803      	ldr	r3, [r0, #0]
  uint32_t USBx_BASE = (uint32_t)USBx;
  uint32_t gSNPSiD = *(__IO uint32_t *)(&USBx->CID + 0x1U);
 8000b48:	6c19      	ldr	r1, [r3, #64]	; 0x40
  uint32_t DoepintReg = USBx_OUTEP(epnum)->DOEPINT;
 8000b4a:	eb03 1346 	add.w	r3, r3, r6, lsl #5
 8000b4e:	f503 6430 	add.w	r4, r3, #2816	; 0xb00
 8000b52:	68a3      	ldr	r3, [r4, #8]

  if (hpcd->Init.dma_enable == 1U)
 8000b54:	6902      	ldr	r2, [r0, #16]
 8000b56:	2a01      	cmp	r2, #1
 8000b58:	d00f      	beq.n	8000b7a <PCD_EP_OutXfrComplete_int+0x3a>
      /* ... */
    }
  }
  else
  {
    if (gSNPSiD == USB_OTG_CORE_ID_310A)
 8000b5a:	4a35      	ldr	r2, [pc, #212]	; (8000c30 <PCD_EP_OutXfrComplete_int+0xf0>)
 8000b5c:	4291      	cmp	r1, r2
 8000b5e:	d161      	bne.n	8000c24 <PCD_EP_OutXfrComplete_int+0xe4>
    {
      /* StupPktRcvd = 1 this is a setup packet */
      if ((DoepintReg & USB_OTG_DOEPINT_STPKTRX) == USB_OTG_DOEPINT_STPKTRX)
 8000b60:	f413 4f00 	tst.w	r3, #32768	; 0x8000
 8000b64:	d15a      	bne.n	8000c1c <PCD_EP_OutXfrComplete_int+0xdc>
      {
        CLEAR_OUT_EP_INTR(epnum, USB_OTG_DOEPINT_STPKTRX);
      }
      else
      {
        if ((DoepintReg & USB_OTG_DOEPINT_OTEPSPR) == USB_OTG_DOEPINT_OTEPSPR)
 8000b66:	f013 0f20 	tst.w	r3, #32
 8000b6a:	d001      	beq.n	8000b70 <PCD_EP_OutXfrComplete_int+0x30>
        {
          CLEAR_OUT_EP_INTR(epnum, USB_OTG_DOEPINT_OTEPSPR);
 8000b6c:	2320      	movs	r3, #32
 8000b6e:	60a3      	str	r3, [r4, #8]
        }

#if (USE_HAL_PCD_REGISTER_CALLBACKS == 1U)
        hpcd->DataOutStageCallback(hpcd, (uint8_t)epnum);
#else
        HAL_PCD_DataOutStageCallback(hpcd, (uint8_t)epnum);
 8000b70:	b2f1      	uxtb	r1, r6
 8000b72:	4628      	mov	r0, r5
 8000b74:	f003 fc0a 	bl	800438c <HAL_PCD_DataOutStageCallback>
 8000b78:	e057      	b.n	8000c2a <PCD_EP_OutXfrComplete_int+0xea>
    if ((DoepintReg & USB_OTG_DOEPINT_STUP) == USB_OTG_DOEPINT_STUP) /* Class C */
 8000b7a:	f013 0f08 	tst.w	r3, #8
 8000b7e:	d014      	beq.n	8000baa <PCD_EP_OutXfrComplete_int+0x6a>
      if ((gSNPSiD > USB_OTG_CORE_ID_300A) &&
 8000b80:	4a2c      	ldr	r2, [pc, #176]	; (8000c34 <PCD_EP_OutXfrComplete_int+0xf4>)
 8000b82:	4291      	cmp	r1, r2
 8000b84:	d905      	bls.n	8000b92 <PCD_EP_OutXfrComplete_int+0x52>
 8000b86:	f413 4f00 	tst.w	r3, #32768	; 0x8000
 8000b8a:	d002      	beq.n	8000b92 <PCD_EP_OutXfrComplete_int+0x52>
        CLEAR_OUT_EP_INTR(epnum, USB_OTG_DOEPINT_STPKTRX);
 8000b8c:	f44f 4300 	mov.w	r3, #32768	; 0x8000
 8000b90:	60a3      	str	r3, [r4, #8]
      HAL_PCD_SetupStageCallback(hpcd);
 8000b92:	4628      	mov	r0, r5
 8000b94:	f003 fbf2 	bl	800437c <HAL_PCD_SetupStageCallback>
      (void)USB_EP0_OutStart(hpcd->Instance, 1U, (uint8_t *)hpcd->Setup);
 8000b98:	f505 7271 	add.w	r2, r5, #964	; 0x3c4
 8000b9c:	2101      	movs	r1, #1
 8000b9e:	6828      	ldr	r0, [r5, #0]
 8000ba0:	f002 fa2e 	bl	8003000 <USB_EP0_OutStart>
      CLEAR_OUT_EP_INTR(epnum, USB_OTG_DOEPINT_STUP);
 8000ba4:	2308      	movs	r3, #8
 8000ba6:	60a3      	str	r3, [r4, #8]
 8000ba8:	e03f      	b.n	8000c2a <PCD_EP_OutXfrComplete_int+0xea>
    else if ((DoepintReg & USB_OTG_DOEPINT_OTEPSPR) == USB_OTG_DOEPINT_OTEPSPR) /* Class E */
 8000baa:	f013 0f20 	tst.w	r3, #32
 8000bae:	d12e      	bne.n	8000c0e <PCD_EP_OutXfrComplete_int+0xce>
    else if ((DoepintReg & (USB_OTG_DOEPINT_STUP | USB_OTG_DOEPINT_OTEPSPR)) == 0U)
 8000bb0:	f013 0f28 	tst.w	r3, #40	; 0x28
 8000bb4:	d139      	bne.n	8000c2a <PCD_EP_OutXfrComplete_int+0xea>
      if ((gSNPSiD > USB_OTG_CORE_ID_300A) &&
 8000bb6:	4a1f      	ldr	r2, [pc, #124]	; (8000c34 <PCD_EP_OutXfrComplete_int+0xf4>)
 8000bb8:	4291      	cmp	r1, r2
 8000bba:	d902      	bls.n	8000bc2 <PCD_EP_OutXfrComplete_int+0x82>
 8000bbc:	f413 4f00 	tst.w	r3, #32768	; 0x8000
 8000bc0:	d128      	bne.n	8000c14 <PCD_EP_OutXfrComplete_int+0xd4>
          hpcd->OUT_ep[epnum].maxpacket -
 8000bc2:	00f2      	lsls	r2, r6, #3
 8000bc4:	1b92      	subs	r2, r2, r6
 8000bc6:	0093      	lsls	r3, r2, #2
 8000bc8:	442b      	add	r3, r5
 8000bca:	f8d3 2204 	ldr.w	r2, [r3, #516]	; 0x204
          (USBx_OUTEP(epnum)->DOEPTSIZ & USB_OTG_DOEPTSIZ_XFRSIZ);
 8000bce:	6921      	ldr	r1, [r4, #16]
 8000bd0:	f3c1 0112 	ubfx	r1, r1, #0, #19
          hpcd->OUT_ep[epnum].maxpacket -
 8000bd4:	1a52      	subs	r2, r2, r1
        hpcd->OUT_ep[epnum].xfer_count =
 8000bd6:	f8c3 2214 	str.w	r2, [r3, #532]	; 0x214
        hpcd->OUT_ep[epnum].xfer_buff += hpcd->OUT_ep[epnum].maxpacket;
 8000bda:	f8d3 1204 	ldr.w	r1, [r3, #516]	; 0x204
 8000bde:	f8d3 2208 	ldr.w	r2, [r3, #520]	; 0x208
 8000be2:	440a      	add	r2, r1
 8000be4:	f8c3 2208 	str.w	r2, [r3, #520]	; 0x208
        HAL_PCD_DataOutStageCallback(hpcd, (uint8_t)epnum);
 8000be8:	b2f1      	uxtb	r1, r6
 8000bea:	4628      	mov	r0, r5
 8000bec:	f003 fbce 	bl	800438c <HAL_PCD_DataOutStageCallback>
        if ((epnum == 0U) && (hpcd->OUT_ep[epnum].xfer_len == 0U))
 8000bf0:	b9de      	cbnz	r6, 8000c2a <PCD_EP_OutXfrComplete_int+0xea>
 8000bf2:	ebc6 06c6 	rsb	r6, r6, r6, lsl #3
 8000bf6:	00b3      	lsls	r3, r6, #2
 8000bf8:	442b      	add	r3, r5
 8000bfa:	f8d3 3210 	ldr.w	r3, [r3, #528]	; 0x210
 8000bfe:	b9a3      	cbnz	r3, 8000c2a <PCD_EP_OutXfrComplete_int+0xea>
          (void)USB_EP0_OutStart(hpcd->Instance, 1U, (uint8_t *)hpcd->Setup);
 8000c00:	f505 7271 	add.w	r2, r5, #964	; 0x3c4
 8000c04:	2101      	movs	r1, #1
 8000c06:	6828      	ldr	r0, [r5, #0]
 8000c08:	f002 f9fa 	bl	8003000 <USB_EP0_OutStart>
 8000c0c:	e00d      	b.n	8000c2a <PCD_EP_OutXfrComplete_int+0xea>
      CLEAR_OUT_EP_INTR(epnum, USB_OTG_DOEPINT_OTEPSPR);
 8000c0e:	2320      	movs	r3, #32
 8000c10:	60a3      	str	r3, [r4, #8]
 8000c12:	e00a      	b.n	8000c2a <PCD_EP_OutXfrComplete_int+0xea>
        CLEAR_OUT_EP_INTR(epnum, USB_OTG_DOEPINT_STPKTRX);
 8000c14:	f44f 4300 	mov.w	r3, #32768	; 0x8000
 8000c18:	60a3      	str	r3, [r4, #8]
 8000c1a:	e006      	b.n	8000c2a <PCD_EP_OutXfrComplete_int+0xea>
        CLEAR_OUT_EP_INTR(epnum, USB_OTG_DOEPINT_STPKTRX);
 8000c1c:	f44f 4300 	mov.w	r3, #32768	; 0x8000
 8000c20:	60a3      	str	r3, [r4, #8]
 8000c22:	e002      	b.n	8000c2a <PCD_EP_OutXfrComplete_int+0xea>
    else
    {
#if (USE_HAL_PCD_REGISTER_CALLBACKS == 1U)
      hpcd->DataOutStageCallback(hpcd, (uint8_t)epnum);
#else
      HAL_PCD_DataOutStageCallback(hpcd, (uint8_t)epnum);
 8000c24:	b2f1      	uxtb	r1, r6
 8000c26:	f003 fbb1 	bl	800438c <HAL_PCD_DataOutStageCallback>
#endif /* USE_HAL_PCD_REGISTER_CALLBACKS */
    }
  }

  return HAL_OK;
}
 8000c2a:	2000      	movs	r0, #0
 8000c2c:	bd70      	pop	{r4, r5, r6, pc}
 8000c2e:	bf00      	nop
 8000c30:	4f54310a 	.word	0x4f54310a
 8000c34:	4f54300a 	.word	0x4f54300a

08000c38 <PCD_EP_OutSetupPacket_int>:
  * @param  hpcd PCD handle
  * @param  epnum endpoint number
  * @retval HAL status
  */
static HAL_StatusTypeDef PCD_EP_OutSetupPacket_int(PCD_HandleTypeDef *hpcd, uint32_t epnum)
{
 8000c38:	b538      	push	{r3, r4, r5, lr}
 8000c3a:	4604      	mov	r4, r0
  USB_OTG_GlobalTypeDef *USBx = hpcd->Instance;
 8000c3c:	6803      	ldr	r3, [r0, #0]
  uint32_t USBx_BASE = (uint32_t)USBx;
  uint32_t gSNPSiD = *(__IO uint32_t *)(&USBx->CID + 0x1U);
 8000c3e:	6c1d      	ldr	r5, [r3, #64]	; 0x40
  uint32_t DoepintReg = USBx_OUTEP(epnum)->DOEPINT;
 8000c40:	eb03 1141 	add.w	r1, r3, r1, lsl #5
 8000c44:	f501 6130 	add.w	r1, r1, #2816	; 0xb00
 8000c48:	688a      	ldr	r2, [r1, #8]

  if (hpcd->Init.dma_enable == 1U)
 8000c4a:	6903      	ldr	r3, [r0, #16]
 8000c4c:	2b01      	cmp	r3, #1
 8000c4e:	d00d      	beq.n	8000c6c <PCD_EP_OutSetupPacket_int+0x34>
      CLEAR_OUT_EP_INTR(epnum, USB_OTG_DOEPINT_STPKTRX);
    }
  }
  else
  {
    if ((gSNPSiD == USB_OTG_CORE_ID_310A) &&
 8000c50:	4b12      	ldr	r3, [pc, #72]	; (8000c9c <PCD_EP_OutSetupPacket_int+0x64>)
 8000c52:	429d      	cmp	r5, r3
 8000c54:	d014      	beq.n	8000c80 <PCD_EP_OutSetupPacket_int+0x48>

  /* Inform the upper layer that a setup packet is available */
#if (USE_HAL_PCD_REGISTER_CALLBACKS == 1U)
  hpcd->SetupStageCallback(hpcd);
#else
  HAL_PCD_SetupStageCallback(hpcd);
 8000c56:	4620      	mov	r0, r4
 8000c58:	f003 fb90 	bl	800437c <HAL_PCD_SetupStageCallback>
#endif /* USE_HAL_PCD_REGISTER_CALLBACKS */

  if ((gSNPSiD > USB_OTG_CORE_ID_300A) && (hpcd->Init.dma_enable == 1U))
 8000c5c:	4b10      	ldr	r3, [pc, #64]	; (8000ca0 <PCD_EP_OutSetupPacket_int+0x68>)
 8000c5e:	429d      	cmp	r5, r3
 8000c60:	d902      	bls.n	8000c68 <PCD_EP_OutSetupPacket_int+0x30>
 8000c62:	6923      	ldr	r3, [r4, #16]
 8000c64:	2b01      	cmp	r3, #1
 8000c66:	d012      	beq.n	8000c8e <PCD_EP_OutSetupPacket_int+0x56>
  {
    (void)USB_EP0_OutStart(hpcd->Instance, 1U, (uint8_t *)hpcd->Setup);
  }

  return HAL_OK;
}
 8000c68:	2000      	movs	r0, #0
 8000c6a:	bd38      	pop	{r3, r4, r5, pc}
    if ((gSNPSiD > USB_OTG_CORE_ID_300A) &&
 8000c6c:	4b0c      	ldr	r3, [pc, #48]	; (8000ca0 <PCD_EP_OutSetupPacket_int+0x68>)
 8000c6e:	429d      	cmp	r5, r3
 8000c70:	d9f1      	bls.n	8000c56 <PCD_EP_OutSetupPacket_int+0x1e>
 8000c72:	f412 4f00 	tst.w	r2, #32768	; 0x8000
 8000c76:	d0ee      	beq.n	8000c56 <PCD_EP_OutSetupPacket_int+0x1e>
      CLEAR_OUT_EP_INTR(epnum, USB_OTG_DOEPINT_STPKTRX);
 8000c78:	f44f 4300 	mov.w	r3, #32768	; 0x8000
 8000c7c:	608b      	str	r3, [r1, #8]
 8000c7e:	e7ea      	b.n	8000c56 <PCD_EP_OutSetupPacket_int+0x1e>
    if ((gSNPSiD == USB_OTG_CORE_ID_310A) &&
 8000c80:	f412 4f00 	tst.w	r2, #32768	; 0x8000
 8000c84:	d0e7      	beq.n	8000c56 <PCD_EP_OutSetupPacket_int+0x1e>
      CLEAR_OUT_EP_INTR(epnum, USB_OTG_DOEPINT_STPKTRX);
 8000c86:	f44f 4300 	mov.w	r3, #32768	; 0x8000
 8000c8a:	608b      	str	r3, [r1, #8]
 8000c8c:	e7e3      	b.n	8000c56 <PCD_EP_OutSetupPacket_int+0x1e>
    (void)USB_EP0_OutStart(hpcd->Instance, 1U, (uint8_t *)hpcd->Setup);
 8000c8e:	f504 7271 	add.w	r2, r4, #964	; 0x3c4
 8000c92:	2101      	movs	r1, #1
 8000c94:	6820      	ldr	r0, [r4, #0]
 8000c96:	f002 f9b3 	bl	8003000 <USB_EP0_OutStart>
 8000c9a:	e7e5      	b.n	8000c68 <PCD_EP_OutSetupPacket_int+0x30>
 8000c9c:	4f54310a 	.word	0x4f54310a
 8000ca0:	4f54300a 	.word	0x4f54300a

08000ca4 <HAL_PCD_IRQHandler>:
{
 8000ca4:	e92d 4ff8 	stmdb	sp!, {r3, r4, r5, r6, r7, r8, r9, sl, fp, lr}
 8000ca8:	4604      	mov	r4, r0
  USB_OTG_GlobalTypeDef *USBx = hpcd->Instance;
 8000caa:	6805      	ldr	r5, [r0, #0]
  if (USB_GetMode(hpcd->Instance) == USB_OTG_MODE_DEVICE)
 8000cac:	4628      	mov	r0, r5
 8000cae:	f002 f987 	bl	8002fc0 <USB_GetMode>
 8000cb2:	b108      	cbz	r0, 8000cb8 <HAL_PCD_IRQHandler+0x14>
}
 8000cb4:	e8bd 8ff8 	ldmia.w	sp!, {r3, r4, r5, r6, r7, r8, r9, sl, fp, pc}
 8000cb8:	46a8      	mov	r8, r5
 8000cba:	4606      	mov	r6, r0
    if (__HAL_PCD_IS_INVALID_INTERRUPT(hpcd))
 8000cbc:	6820      	ldr	r0, [r4, #0]
 8000cbe:	f002 f94e 	bl	8002f5e <USB_ReadInterrupts>
 8000cc2:	2800      	cmp	r0, #0
 8000cc4:	d0f6      	beq.n	8000cb4 <HAL_PCD_IRQHandler+0x10>
    if (__HAL_PCD_GET_FLAG(hpcd, USB_OTG_GINTSTS_MMIS))
 8000cc6:	6820      	ldr	r0, [r4, #0]
 8000cc8:	f002 f949 	bl	8002f5e <USB_ReadInterrupts>
 8000ccc:	f010 0f02 	tst.w	r0, #2
 8000cd0:	d004      	beq.n	8000cdc <HAL_PCD_IRQHandler+0x38>
      __HAL_PCD_CLEAR_FLAG(hpcd, USB_OTG_GINTSTS_MMIS);
 8000cd2:	6822      	ldr	r2, [r4, #0]
 8000cd4:	6953      	ldr	r3, [r2, #20]
 8000cd6:	f003 0302 	and.w	r3, r3, #2
 8000cda:	6153      	str	r3, [r2, #20]
    if (__HAL_PCD_GET_FLAG(hpcd, USB_OTG_GINTSTS_OEPINT))
 8000cdc:	6820      	ldr	r0, [r4, #0]
 8000cde:	f002 f93e 	bl	8002f5e <USB_ReadInterrupts>
 8000ce2:	f410 2f00 	tst.w	r0, #524288	; 0x80000
 8000ce6:	f040 8092 	bne.w	8000e0e <HAL_PCD_IRQHandler+0x16a>
  uint32_t i, ep_intr, epint, epnum = 0U;
 8000cea:	4637      	mov	r7, r6
    if (__HAL_PCD_GET_FLAG(hpcd, USB_OTG_GINTSTS_IEPINT))
 8000cec:	6820      	ldr	r0, [r4, #0]
 8000cee:	f002 f936 	bl	8002f5e <USB_ReadInterrupts>
 8000cf2:	f410 2f80 	tst.w	r0, #262144	; 0x40000
 8000cf6:	f040 80dc 	bne.w	8000eb2 <HAL_PCD_IRQHandler+0x20e>
    if (__HAL_PCD_GET_FLAG(hpcd, USB_OTG_GINTSTS_WKUINT))
 8000cfa:	6820      	ldr	r0, [r4, #0]
 8000cfc:	f002 f92f 	bl	8002f5e <USB_ReadInterrupts>
 8000d00:	2800      	cmp	r0, #0
 8000d02:	f2c0 814a 	blt.w	8000f9a <HAL_PCD_IRQHandler+0x2f6>
    if (__HAL_PCD_GET_FLAG(hpcd, USB_OTG_GINTSTS_USBSUSP))
 8000d06:	6820      	ldr	r0, [r4, #0]
 8000d08:	f002 f929 	bl	8002f5e <USB_ReadInterrupts>
 8000d0c:	f410 6f00 	tst.w	r0, #2048	; 0x800
 8000d10:	d00a      	beq.n	8000d28 <HAL_PCD_IRQHandler+0x84>
      if ((USBx_DEVICE->DSTS & USB_OTG_DSTS_SUSPSTS) == USB_OTG_DSTS_SUSPSTS)
 8000d12:	f8d5 3808 	ldr.w	r3, [r5, #2056]	; 0x808
 8000d16:	f013 0f01 	tst.w	r3, #1
 8000d1a:	f040 8158 	bne.w	8000fce <HAL_PCD_IRQHandler+0x32a>
      __HAL_PCD_CLEAR_FLAG(hpcd, USB_OTG_GINTSTS_USBSUSP);
 8000d1e:	6822      	ldr	r2, [r4, #0]
 8000d20:	6953      	ldr	r3, [r2, #20]
 8000d22:	f403 6300 	and.w	r3, r3, #2048	; 0x800
 8000d26:	6153      	str	r3, [r2, #20]
    if (__HAL_PCD_GET_FLAG(hpcd, USB_OTG_GINTSTS_LPMINT))
 8000d28:	6820      	ldr	r0, [r4, #0]
 8000d2a:	f002 f918 	bl	8002f5e <USB_ReadInterrupts>
 8000d2e:	f010 6f00 	tst.w	r0, #134217728	; 0x8000000
 8000d32:	d015      	beq.n	8000d60 <HAL_PCD_IRQHandler+0xbc>
      __HAL_PCD_CLEAR_FLAG(hpcd, USB_OTG_GINTSTS_LPMINT);
 8000d34:	6822      	ldr	r2, [r4, #0]
 8000d36:	6953      	ldr	r3, [r2, #20]
 8000d38:	f003 6300 	and.w	r3, r3, #134217728	; 0x8000000
 8000d3c:	6153      	str	r3, [r2, #20]
      if (hpcd->LPM_State == LPM_L0)
 8000d3e:	f894 33f4 	ldrb.w	r3, [r4, #1012]	; 0x3f4
 8000d42:	2b00      	cmp	r3, #0
 8000d44:	f040 8147 	bne.w	8000fd6 <HAL_PCD_IRQHandler+0x332>
        hpcd->LPM_State = LPM_L1;
 8000d48:	2101      	movs	r1, #1
 8000d4a:	f884 13f4 	strb.w	r1, [r4, #1012]	; 0x3f4
        hpcd->BESL = (hpcd->Instance->GLPMCFG & USB_OTG_GLPMCFG_BESL) >> 2U;
 8000d4e:	6823      	ldr	r3, [r4, #0]
 8000d50:	6d5b      	ldr	r3, [r3, #84]	; 0x54
 8000d52:	f3c3 0383 	ubfx	r3, r3, #2, #4
 8000d56:	f8c4 33f8 	str.w	r3, [r4, #1016]	; 0x3f8
        HAL_PCDEx_LPM_Callback(hpcd, PCD_LPM_L1_ACTIVE);
 8000d5a:	4620      	mov	r0, r4
 8000d5c:	f003 fbd2 	bl	8004504 <HAL_PCDEx_LPM_Callback>
    if (__HAL_PCD_GET_FLAG(hpcd, USB_OTG_GINTSTS_USBRST))
 8000d60:	6820      	ldr	r0, [r4, #0]
 8000d62:	f002 f8fc 	bl	8002f5e <USB_ReadInterrupts>
 8000d66:	f410 5f80 	tst.w	r0, #4096	; 0x1000
 8000d6a:	f040 8138 	bne.w	8000fde <HAL_PCD_IRQHandler+0x33a>
    if (__HAL_PCD_GET_FLAG(hpcd, USB_OTG_GINTSTS_ENUMDNE))
 8000d6e:	6820      	ldr	r0, [r4, #0]
 8000d70:	f002 f8f5 	bl	8002f5e <USB_ReadInterrupts>
 8000d74:	f410 5f00 	tst.w	r0, #8192	; 0x2000
 8000d78:	f040 818a 	bne.w	8001090 <HAL_PCD_IRQHandler+0x3ec>
    if (__HAL_PCD_GET_FLAG(hpcd, USB_OTG_GINTSTS_RXFLVL))
 8000d7c:	6820      	ldr	r0, [r4, #0]
 8000d7e:	f002 f8ee 	bl	8002f5e <USB_ReadInterrupts>
 8000d82:	f010 0f10 	tst.w	r0, #16
 8000d86:	d014      	beq.n	8000db2 <HAL_PCD_IRQHandler+0x10e>
      USB_MASK_INTERRUPT(hpcd->Instance, USB_OTG_GINTSTS_RXFLVL);
 8000d88:	6822      	ldr	r2, [r4, #0]
 8000d8a:	6993      	ldr	r3, [r2, #24]
 8000d8c:	f023 0310 	bic.w	r3, r3, #16
 8000d90:	6193      	str	r3, [r2, #24]
      temp = USBx->GRXSTSP;
 8000d92:	6a2e      	ldr	r6, [r5, #32]
      ep = &hpcd->OUT_ep[temp & USB_OTG_GRXSTSP_EPNUM];
 8000d94:	f006 080f 	and.w	r8, r6, #15
      if (((temp & USB_OTG_GRXSTSP_PKTSTS) >> 17) ==  STS_DATA_UPDT)
 8000d98:	f3c6 4343 	ubfx	r3, r6, #17, #4
 8000d9c:	2b02      	cmp	r3, #2
 8000d9e:	f000 8194 	beq.w	80010ca <HAL_PCD_IRQHandler+0x426>
      else if (((temp & USB_OTG_GRXSTSP_PKTSTS) >> 17) ==  STS_SETUP_UPDT)
 8000da2:	2b06      	cmp	r3, #6
 8000da4:	f000 81b2 	beq.w	800110c <HAL_PCD_IRQHandler+0x468>
      USB_UNMASK_INTERRUPT(hpcd->Instance, USB_OTG_GINTSTS_RXFLVL);
 8000da8:	6822      	ldr	r2, [r4, #0]
 8000daa:	6993      	ldr	r3, [r2, #24]
 8000dac:	f043 0310 	orr.w	r3, r3, #16
 8000db0:	6193      	str	r3, [r2, #24]
    if (__HAL_PCD_GET_FLAG(hpcd, USB_OTG_GINTSTS_SOF))
 8000db2:	6820      	ldr	r0, [r4, #0]
 8000db4:	f002 f8d3 	bl	8002f5e <USB_ReadInterrupts>
 8000db8:	f010 0f08 	tst.w	r0, #8
 8000dbc:	f040 81ba 	bne.w	8001134 <HAL_PCD_IRQHandler+0x490>
    if (__HAL_PCD_GET_FLAG(hpcd, USB_OTG_GINTSTS_IISOIXFR))
 8000dc0:	6820      	ldr	r0, [r4, #0]
 8000dc2:	f002 f8cc 	bl	8002f5e <USB_ReadInterrupts>
 8000dc6:	f410 1f80 	tst.w	r0, #1048576	; 0x100000
 8000dca:	f040 81bc 	bne.w	8001146 <HAL_PCD_IRQHandler+0x4a2>
    if (__HAL_PCD_GET_FLAG(hpcd, USB_OTG_GINTSTS_PXFR_INCOMPISOOUT))
 8000dce:	6820      	ldr	r0, [r4, #0]
 8000dd0:	f002 f8c5 	bl	8002f5e <USB_ReadInterrupts>
 8000dd4:	f410 1f00 	tst.w	r0, #2097152	; 0x200000
 8000dd8:	f040 81bf 	bne.w	800115a <HAL_PCD_IRQHandler+0x4b6>
    if (__HAL_PCD_GET_FLAG(hpcd, USB_OTG_GINTSTS_SRQINT))
 8000ddc:	6820      	ldr	r0, [r4, #0]
 8000dde:	f002 f8be 	bl	8002f5e <USB_ReadInterrupts>
 8000de2:	f010 4f80 	tst.w	r0, #1073741824	; 0x40000000
 8000de6:	f040 81c2 	bne.w	800116e <HAL_PCD_IRQHandler+0x4ca>
    if (__HAL_PCD_GET_FLAG(hpcd, USB_OTG_GINTSTS_OTGINT))
 8000dea:	6820      	ldr	r0, [r4, #0]
 8000dec:	f002 f8b7 	bl	8002f5e <USB_ReadInterrupts>
 8000df0:	f010 0f04 	tst.w	r0, #4
 8000df4:	f43f af5e 	beq.w	8000cb4 <HAL_PCD_IRQHandler+0x10>
      temp = hpcd->Instance->GOTGINT;
 8000df8:	6823      	ldr	r3, [r4, #0]
 8000dfa:	685d      	ldr	r5, [r3, #4]
      if ((temp & USB_OTG_GOTGINT_SEDET) == USB_OTG_GOTGINT_SEDET)
 8000dfc:	f015 0f04 	tst.w	r5, #4
 8000e00:	f040 81be 	bne.w	8001180 <HAL_PCD_IRQHandler+0x4dc>
      hpcd->Instance->GOTGINT |= temp;
 8000e04:	6822      	ldr	r2, [r4, #0]
 8000e06:	6853      	ldr	r3, [r2, #4]
 8000e08:	432b      	orrs	r3, r5
 8000e0a:	6053      	str	r3, [r2, #4]
 8000e0c:	e752      	b.n	8000cb4 <HAL_PCD_IRQHandler+0x10>
      ep_intr = USB_ReadDevAllOutEpInterrupt(hpcd->Instance);
 8000e0e:	6820      	ldr	r0, [r4, #0]
 8000e10:	f002 f8a9 	bl	8002f66 <USB_ReadDevAllOutEpInterrupt>
 8000e14:	4681      	mov	r9, r0
      epnum = 0U;
 8000e16:	4637      	mov	r7, r6
      while (ep_intr != 0U)
 8000e18:	e024      	b.n	8000e64 <HAL_PCD_IRQHandler+0x1c0>
            CLEAR_OUT_EP_INTR(epnum, USB_OTG_DOEPINT_XFRC);
 8000e1a:	eb08 1347 	add.w	r3, r8, r7, lsl #5
 8000e1e:	2201      	movs	r2, #1
 8000e20:	f8c3 2b08 	str.w	r2, [r3, #2824]	; 0xb08
            (void)PCD_EP_OutXfrComplete_int(hpcd, epnum);
 8000e24:	4639      	mov	r1, r7
 8000e26:	4620      	mov	r0, r4
 8000e28:	f7ff fe8a 	bl	8000b40 <PCD_EP_OutXfrComplete_int>
 8000e2c:	e029      	b.n	8000e82 <HAL_PCD_IRQHandler+0x1de>
            (void)PCD_EP_OutSetupPacket_int(hpcd, epnum);
 8000e2e:	4639      	mov	r1, r7
 8000e30:	4620      	mov	r0, r4
 8000e32:	f7ff ff01 	bl	8000c38 <PCD_EP_OutSetupPacket_int>
            CLEAR_OUT_EP_INTR(epnum, USB_OTG_DOEPINT_STUP);
 8000e36:	eb08 1347 	add.w	r3, r8, r7, lsl #5
 8000e3a:	2208      	movs	r2, #8
 8000e3c:	f8c3 2b08 	str.w	r2, [r3, #2824]	; 0xb08
 8000e40:	e022      	b.n	8000e88 <HAL_PCD_IRQHandler+0x1e4>
            CLEAR_OUT_EP_INTR(epnum, USB_OTG_DOEPINT_OTEPSPR);
 8000e42:	eb08 1347 	add.w	r3, r8, r7, lsl #5
 8000e46:	2220      	movs	r2, #32
 8000e48:	f8c3 2b08 	str.w	r2, [r3, #2824]	; 0xb08
          if ((epint & USB_OTG_DOEPINT_NAK) == USB_OTG_DOEPINT_NAK)
 8000e4c:	f41a 5f00 	tst.w	sl, #8192	; 0x2000
 8000e50:	d005      	beq.n	8000e5e <HAL_PCD_IRQHandler+0x1ba>
            CLEAR_OUT_EP_INTR(epnum, USB_OTG_DOEPINT_NAK);
 8000e52:	eb08 1347 	add.w	r3, r8, r7, lsl #5
 8000e56:	f44f 5200 	mov.w	r2, #8192	; 0x2000
 8000e5a:	f8c3 2b08 	str.w	r2, [r3, #2824]	; 0xb08
        epnum++;
 8000e5e:	3701      	adds	r7, #1
        ep_intr >>= 1U;
 8000e60:	ea4f 0959 	mov.w	r9, r9, lsr #1
      while (ep_intr != 0U)
 8000e64:	f1b9 0f00 	cmp.w	r9, #0
 8000e68:	f43f af40 	beq.w	8000cec <HAL_PCD_IRQHandler+0x48>
        if ((ep_intr & 0x1U) != 0U)
 8000e6c:	f019 0f01 	tst.w	r9, #1
 8000e70:	d0f5      	beq.n	8000e5e <HAL_PCD_IRQHandler+0x1ba>
          epint = USB_ReadDevOutEPInterrupt(hpcd->Instance, (uint8_t)epnum);
 8000e72:	b2f9      	uxtb	r1, r7
 8000e74:	6820      	ldr	r0, [r4, #0]
 8000e76:	f002 f886 	bl	8002f86 <USB_ReadDevOutEPInterrupt>
 8000e7a:	4682      	mov	sl, r0
          if ((epint & USB_OTG_DOEPINT_XFRC) == USB_OTG_DOEPINT_XFRC)
 8000e7c:	f010 0f01 	tst.w	r0, #1
 8000e80:	d1cb      	bne.n	8000e1a <HAL_PCD_IRQHandler+0x176>
          if ((epint & USB_OTG_DOEPINT_STUP) == USB_OTG_DOEPINT_STUP)
 8000e82:	f01a 0f08 	tst.w	sl, #8
 8000e86:	d1d2      	bne.n	8000e2e <HAL_PCD_IRQHandler+0x18a>
          if ((epint & USB_OTG_DOEPINT_OTEPDIS) == USB_OTG_DOEPINT_OTEPDIS)
 8000e88:	f01a 0f10 	tst.w	sl, #16
 8000e8c:	d004      	beq.n	8000e98 <HAL_PCD_IRQHandler+0x1f4>
            CLEAR_OUT_EP_INTR(epnum, USB_OTG_DOEPINT_OTEPDIS);
 8000e8e:	eb08 1347 	add.w	r3, r8, r7, lsl #5
 8000e92:	2210      	movs	r2, #16
 8000e94:	f8c3 2b08 	str.w	r2, [r3, #2824]	; 0xb08
          if ((epint & USB_OTG_DOEPINT_OTEPSPR) == USB_OTG_DOEPINT_OTEPSPR)
 8000e98:	f01a 0f20 	tst.w	sl, #32
 8000e9c:	d0d6      	beq.n	8000e4c <HAL_PCD_IRQHandler+0x1a8>
            if (hpcd->Init.dma_enable == 1U)
 8000e9e:	6923      	ldr	r3, [r4, #16]
 8000ea0:	2b01      	cmp	r3, #1
 8000ea2:	d1ce      	bne.n	8000e42 <HAL_PCD_IRQHandler+0x19e>
              (void)USB_EP0_OutStart(hpcd->Instance, 1U, (uint8_t *)hpcd->Setup);
 8000ea4:	f504 7271 	add.w	r2, r4, #964	; 0x3c4
 8000ea8:	2101      	movs	r1, #1
 8000eaa:	6820      	ldr	r0, [r4, #0]
 8000eac:	f002 f8a8 	bl	8003000 <USB_EP0_OutStart>
 8000eb0:	e7c7      	b.n	8000e42 <HAL_PCD_IRQHandler+0x19e>
      ep_intr = USB_ReadDevAllInEpInterrupt(hpcd->Instance);
 8000eb2:	6820      	ldr	r0, [r4, #0]
 8000eb4:	f002 f85f 	bl	8002f76 <USB_ReadDevAllInEpInterrupt>
 8000eb8:	4681      	mov	r9, r0
      epnum = 0U;
 8000eba:	4637      	mov	r7, r6
      while (ep_intr != 0U)
 8000ebc:	e02e      	b.n	8000f1c <HAL_PCD_IRQHandler+0x278>
              hpcd->IN_ep[epnum].xfer_buff += hpcd->IN_ep[epnum].maxpacket;
 8000ebe:	00fa      	lsls	r2, r7, #3
 8000ec0:	1bd2      	subs	r2, r2, r7
 8000ec2:	0093      	lsls	r3, r2, #2
 8000ec4:	4423      	add	r3, r4
 8000ec6:	6c59      	ldr	r1, [r3, #68]	; 0x44
 8000ec8:	6c9a      	ldr	r2, [r3, #72]	; 0x48
 8000eca:	440a      	add	r2, r1
 8000ecc:	649a      	str	r2, [r3, #72]	; 0x48
 8000ece:	e048      	b.n	8000f62 <HAL_PCD_IRQHandler+0x2be>
          if ((epint & USB_OTG_DIEPINT_TOC) == USB_OTG_DIEPINT_TOC)
 8000ed0:	f01a 0f08 	tst.w	sl, #8
 8000ed4:	d004      	beq.n	8000ee0 <HAL_PCD_IRQHandler+0x23c>
            CLEAR_IN_EP_INTR(epnum, USB_OTG_DIEPINT_TOC);
 8000ed6:	eb08 1347 	add.w	r3, r8, r7, lsl #5
 8000eda:	2208      	movs	r2, #8
 8000edc:	f8c3 2908 	str.w	r2, [r3, #2312]	; 0x908
          if ((epint & USB_OTG_DIEPINT_ITTXFE) == USB_OTG_DIEPINT_ITTXFE)
 8000ee0:	f01a 0f10 	tst.w	sl, #16
 8000ee4:	d004      	beq.n	8000ef0 <HAL_PCD_IRQHandler+0x24c>
            CLEAR_IN_EP_INTR(epnum, USB_OTG_DIEPINT_ITTXFE);
 8000ee6:	eb08 1347 	add.w	r3, r8, r7, lsl #5
 8000eea:	2210      	movs	r2, #16
 8000eec:	f8c3 2908 	str.w	r2, [r3, #2312]	; 0x908
          if ((epint & USB_OTG_DIEPINT_INEPNE) == USB_OTG_DIEPINT_INEPNE)
 8000ef0:	f01a 0f40 	tst.w	sl, #64	; 0x40
 8000ef4:	d004      	beq.n	8000f00 <HAL_PCD_IRQHandler+0x25c>
            CLEAR_IN_EP_INTR(epnum, USB_OTG_DIEPINT_INEPNE);
 8000ef6:	eb08 1347 	add.w	r3, r8, r7, lsl #5
 8000efa:	2240      	movs	r2, #64	; 0x40
 8000efc:	f8c3 2908 	str.w	r2, [r3, #2312]	; 0x908
          if ((epint & USB_OTG_DIEPINT_EPDISD) == USB_OTG_DIEPINT_EPDISD)
 8000f00:	f01a 0f02 	tst.w	sl, #2
 8000f04:	d004      	beq.n	8000f10 <HAL_PCD_IRQHandler+0x26c>
            CLEAR_IN_EP_INTR(epnum, USB_OTG_DIEPINT_EPDISD);
 8000f06:	eb08 1347 	add.w	r3, r8, r7, lsl #5
 8000f0a:	2202      	movs	r2, #2
 8000f0c:	f8c3 2908 	str.w	r2, [r3, #2312]	; 0x908
          if ((epint & USB_OTG_DIEPINT_TXFE) == USB_OTG_DIEPINT_TXFE)
 8000f10:	f01a 0f80 	tst.w	sl, #128	; 0x80
 8000f14:	d13c      	bne.n	8000f90 <HAL_PCD_IRQHandler+0x2ec>
        epnum++;
 8000f16:	3701      	adds	r7, #1
        ep_intr >>= 1U;
 8000f18:	ea4f 0959 	mov.w	r9, r9, lsr #1
      while (ep_intr != 0U)
 8000f1c:	f1b9 0f00 	cmp.w	r9, #0
 8000f20:	f43f aeeb 	beq.w	8000cfa <HAL_PCD_IRQHandler+0x56>
        if ((ep_intr & 0x1U) != 0U) /* In ITR */
 8000f24:	f019 0f01 	tst.w	r9, #1
 8000f28:	d0f5      	beq.n	8000f16 <HAL_PCD_IRQHandler+0x272>
          epint = USB_ReadDevInEPInterrupt(hpcd->Instance, (uint8_t)epnum);
 8000f2a:	fa5f fb87 	uxtb.w	fp, r7
 8000f2e:	4659      	mov	r1, fp
 8000f30:	6820      	ldr	r0, [r4, #0]
 8000f32:	f002 f831 	bl	8002f98 <USB_ReadDevInEPInterrupt>
 8000f36:	4682      	mov	sl, r0
          if ((epint & USB_OTG_DIEPINT_XFRC) == USB_OTG_DIEPINT_XFRC)
 8000f38:	f010 0f01 	tst.w	r0, #1
 8000f3c:	d0c8      	beq.n	8000ed0 <HAL_PCD_IRQHandler+0x22c>
            fifoemptymsk = (uint32_t)(0x1UL << (epnum & EP_ADDR_MSK));
 8000f3e:	f007 030f 	and.w	r3, r7, #15
 8000f42:	2101      	movs	r1, #1
 8000f44:	fa01 f203 	lsl.w	r2, r1, r3
            USBx_DEVICE->DIEPEMPMSK &= ~fifoemptymsk;
 8000f48:	f8d8 3834 	ldr.w	r3, [r8, #2100]	; 0x834
 8000f4c:	ea23 0302 	bic.w	r3, r3, r2
 8000f50:	f8c8 3834 	str.w	r3, [r8, #2100]	; 0x834
            CLEAR_IN_EP_INTR(epnum, USB_OTG_DIEPINT_XFRC);
 8000f54:	eb08 1347 	add.w	r3, r8, r7, lsl #5
 8000f58:	f8c3 1908 	str.w	r1, [r3, #2312]	; 0x908
            if (hpcd->Init.dma_enable == 1U)
 8000f5c:	6923      	ldr	r3, [r4, #16]
 8000f5e:	428b      	cmp	r3, r1
 8000f60:	d0ad      	beq.n	8000ebe <HAL_PCD_IRQHandler+0x21a>
            HAL_PCD_DataInStageCallback(hpcd, (uint8_t)epnum);
 8000f62:	4659      	mov	r1, fp
 8000f64:	4620      	mov	r0, r4
 8000f66:	f003 fa1d 	bl	80043a4 <HAL_PCD_DataInStageCallback>
            if (hpcd->Init.dma_enable == 1U)
 8000f6a:	6923      	ldr	r3, [r4, #16]
 8000f6c:	2b01      	cmp	r3, #1
 8000f6e:	d1af      	bne.n	8000ed0 <HAL_PCD_IRQHandler+0x22c>
              if ((epnum == 0U) && (hpcd->IN_ep[epnum].xfer_len == 0U))
 8000f70:	2f00      	cmp	r7, #0
 8000f72:	d1ad      	bne.n	8000ed0 <HAL_PCD_IRQHandler+0x22c>
 8000f74:	ebc7 02c7 	rsb	r2, r7, r7, lsl #3
 8000f78:	0093      	lsls	r3, r2, #2
 8000f7a:	4423      	add	r3, r4
 8000f7c:	6d1b      	ldr	r3, [r3, #80]	; 0x50
 8000f7e:	2b00      	cmp	r3, #0
 8000f80:	d1a6      	bne.n	8000ed0 <HAL_PCD_IRQHandler+0x22c>
                (void)USB_EP0_OutStart(hpcd->Instance, 1U, (uint8_t *)hpcd->Setup);
 8000f82:	f504 7271 	add.w	r2, r4, #964	; 0x3c4
 8000f86:	2101      	movs	r1, #1
 8000f88:	6820      	ldr	r0, [r4, #0]
 8000f8a:	f002 f839 	bl	8003000 <USB_EP0_OutStart>
 8000f8e:	e79f      	b.n	8000ed0 <HAL_PCD_IRQHandler+0x22c>
            (void)PCD_WriteEmptyTxFifo(hpcd, epnum);
 8000f90:	4639      	mov	r1, r7
 8000f92:	4620      	mov	r0, r4
 8000f94:	f7ff fcc4 	bl	8000920 <PCD_WriteEmptyTxFifo>
 8000f98:	e7bd      	b.n	8000f16 <HAL_PCD_IRQHandler+0x272>
      USBx_DEVICE->DCTL &= ~USB_OTG_DCTL_RWUSIG;
 8000f9a:	f8d5 3804 	ldr.w	r3, [r5, #2052]	; 0x804
 8000f9e:	f023 0301 	bic.w	r3, r3, #1
 8000fa2:	f8c5 3804 	str.w	r3, [r5, #2052]	; 0x804
      if (hpcd->LPM_State == LPM_L1)
 8000fa6:	f894 33f4 	ldrb.w	r3, [r4, #1012]	; 0x3f4
 8000faa:	2b01      	cmp	r3, #1
 8000fac:	d008      	beq.n	8000fc0 <HAL_PCD_IRQHandler+0x31c>
        HAL_PCD_ResumeCallback(hpcd);
 8000fae:	4620      	mov	r0, r4
 8000fb0:	f003 fa38 	bl	8004424 <HAL_PCD_ResumeCallback>
      __HAL_PCD_CLEAR_FLAG(hpcd, USB_OTG_GINTSTS_WKUINT);
 8000fb4:	6822      	ldr	r2, [r4, #0]
 8000fb6:	6953      	ldr	r3, [r2, #20]
 8000fb8:	f003 4300 	and.w	r3, r3, #2147483648	; 0x80000000
 8000fbc:	6153      	str	r3, [r2, #20]
 8000fbe:	e6a2      	b.n	8000d06 <HAL_PCD_IRQHandler+0x62>
        hpcd->LPM_State = LPM_L0;
 8000fc0:	2100      	movs	r1, #0
 8000fc2:	f884 13f4 	strb.w	r1, [r4, #1012]	; 0x3f4
        HAL_PCDEx_LPM_Callback(hpcd, PCD_LPM_L0_ACTIVE);
 8000fc6:	4620      	mov	r0, r4
 8000fc8:	f003 fa9c 	bl	8004504 <HAL_PCDEx_LPM_Callback>
 8000fcc:	e7f2      	b.n	8000fb4 <HAL_PCD_IRQHandler+0x310>
        HAL_PCD_SuspendCallback(hpcd);
 8000fce:	4620      	mov	r0, r4
 8000fd0:	f003 fa10 	bl	80043f4 <HAL_PCD_SuspendCallback>
 8000fd4:	e6a3      	b.n	8000d1e <HAL_PCD_IRQHandler+0x7a>
        HAL_PCD_SuspendCallback(hpcd);
 8000fd6:	4620      	mov	r0, r4
 8000fd8:	f003 fa0c 	bl	80043f4 <HAL_PCD_SuspendCallback>
 8000fdc:	e6c0      	b.n	8000d60 <HAL_PCD_IRQHandler+0xbc>
      USBx_DEVICE->DCTL &= ~USB_OTG_DCTL_RWUSIG;
 8000fde:	f505 6900 	add.w	r9, r5, #2048	; 0x800
 8000fe2:	f8d9 3004 	ldr.w	r3, [r9, #4]
 8000fe6:	f023 0301 	bic.w	r3, r3, #1
 8000fea:	f8c9 3004 	str.w	r3, [r9, #4]
      (void)USB_FlushTxFifo(hpcd->Instance, 0x10U);
 8000fee:	2110      	movs	r1, #16
 8000ff0:	6820      	ldr	r0, [r4, #0]
 8000ff2:	f001 fbe9 	bl	80027c8 <USB_FlushTxFifo>
      for (i = 0U; i < hpcd->Init.dev_endpoints; i++)
 8000ff6:	e014      	b.n	8001022 <HAL_PCD_IRQHandler+0x37e>
        USBx_INEP(i)->DIEPINT = 0xFB7FU;
 8000ff8:	eb08 1346 	add.w	r3, r8, r6, lsl #5
 8000ffc:	f64f 317f 	movw	r1, #64383	; 0xfb7f
 8001000:	f8c3 1908 	str.w	r1, [r3, #2312]	; 0x908
        USBx_INEP(i)->DIEPCTL &= ~USB_OTG_DIEPCTL_STALL;
 8001004:	f8d3 2900 	ldr.w	r2, [r3, #2304]	; 0x900
 8001008:	f422 1200 	bic.w	r2, r2, #2097152	; 0x200000
 800100c:	f8c3 2900 	str.w	r2, [r3, #2304]	; 0x900
        USBx_OUTEP(i)->DOEPINT = 0xFB7FU;
 8001010:	f8c3 1b08 	str.w	r1, [r3, #2824]	; 0xb08
        USBx_OUTEP(i)->DOEPCTL &= ~USB_OTG_DOEPCTL_STALL;
 8001014:	f8d3 2b00 	ldr.w	r2, [r3, #2816]	; 0xb00
 8001018:	f422 1200 	bic.w	r2, r2, #2097152	; 0x200000
 800101c:	f8c3 2b00 	str.w	r2, [r3, #2816]	; 0xb00
      for (i = 0U; i < hpcd->Init.dev_endpoints; i++)
 8001020:	3601      	adds	r6, #1
 8001022:	6863      	ldr	r3, [r4, #4]
 8001024:	42b3      	cmp	r3, r6
 8001026:	d8e7      	bhi.n	8000ff8 <HAL_PCD_IRQHandler+0x354>
      USBx_DEVICE->DAINTMSK |= 0x10001U;
 8001028:	f8d9 301c 	ldr.w	r3, [r9, #28]
 800102c:	f043 1301 	orr.w	r3, r3, #65537	; 0x10001
 8001030:	f8c9 301c 	str.w	r3, [r9, #28]
      if (hpcd->Init.use_dedicated_ep1 != 0U)
 8001034:	6b23      	ldr	r3, [r4, #48]	; 0x30
 8001036:	b1eb      	cbz	r3, 8001074 <HAL_PCD_IRQHandler+0x3d0>
        USBx_DEVICE->DOUTEP1MSK |= USB_OTG_DOEPMSK_STUPM |
 8001038:	f8d9 3084 	ldr.w	r3, [r9, #132]	; 0x84
 800103c:	f043 030b 	orr.w	r3, r3, #11
 8001040:	f8c9 3084 	str.w	r3, [r9, #132]	; 0x84
        USBx_DEVICE->DINEP1MSK |= USB_OTG_DIEPMSK_TOM |
 8001044:	f8d9 3044 	ldr.w	r3, [r9, #68]	; 0x44
 8001048:	f043 030b 	orr.w	r3, r3, #11
 800104c:	f8c9 3044 	str.w	r3, [r9, #68]	; 0x44
      USBx_DEVICE->DCFG &= ~USB_OTG_DCFG_DAD;
 8001050:	f8d5 3800 	ldr.w	r3, [r5, #2048]	; 0x800
 8001054:	f423 63fe 	bic.w	r3, r3, #2032	; 0x7f0
 8001058:	f8c5 3800 	str.w	r3, [r5, #2048]	; 0x800
      (void)USB_EP0_OutStart(hpcd->Instance, (uint8_t)hpcd->Init.dma_enable,
 800105c:	f504 7271 	add.w	r2, r4, #964	; 0x3c4
 8001060:	7c21      	ldrb	r1, [r4, #16]
 8001062:	6820      	ldr	r0, [r4, #0]
 8001064:	f001 ffcc 	bl	8003000 <USB_EP0_OutStart>
      __HAL_PCD_CLEAR_FLAG(hpcd, USB_OTG_GINTSTS_USBRST);
 8001068:	6822      	ldr	r2, [r4, #0]
 800106a:	6953      	ldr	r3, [r2, #20]
 800106c:	f403 5380 	and.w	r3, r3, #4096	; 0x1000
 8001070:	6153      	str	r3, [r2, #20]
 8001072:	e67c      	b.n	8000d6e <HAL_PCD_IRQHandler+0xca>
        USBx_DEVICE->DOEPMSK |= USB_OTG_DOEPMSK_STUPM |
 8001074:	f8d9 2014 	ldr.w	r2, [r9, #20]
 8001078:	f242 032b 	movw	r3, #8235	; 0x202b
 800107c:	4313      	orrs	r3, r2
 800107e:	f8c9 3014 	str.w	r3, [r9, #20]
        USBx_DEVICE->DIEPMSK |= USB_OTG_DIEPMSK_TOM |
 8001082:	f8d9 3010 	ldr.w	r3, [r9, #16]
 8001086:	f043 030b 	orr.w	r3, r3, #11
 800108a:	f8c9 3010 	str.w	r3, [r9, #16]
 800108e:	e7df      	b.n	8001050 <HAL_PCD_IRQHandler+0x3ac>
      (void)USB_ActivateSetup(hpcd->Instance);
 8001090:	6820      	ldr	r0, [r4, #0]
 8001092:	f001 ff99 	bl	8002fc8 <USB_ActivateSetup>
      if (USB_GetDevSpeed(hpcd->Instance) == USB_OTG_SPEED_HIGH)
 8001096:	6820      	ldr	r0, [r4, #0]
 8001098:	f001 fc9e 	bl	80029d8 <USB_GetDevSpeed>
 800109c:	b990      	cbnz	r0, 80010c4 <HAL_PCD_IRQHandler+0x420>
        hpcd->Init.speed = USB_OTG_SPEED_HIGH;
 800109e:	2300      	movs	r3, #0
 80010a0:	60e3      	str	r3, [r4, #12]
      (void)USB_SetTurnaroundTime(hpcd->Instance,
 80010a2:	6826      	ldr	r6, [r4, #0]
 80010a4:	f000 fd60 	bl	8001b68 <HAL_RCC_GetHCLKFreq>
 80010a8:	7b22      	ldrb	r2, [r4, #12]
 80010aa:	4601      	mov	r1, r0
 80010ac:	4630      	mov	r0, r6
 80010ae:	f001 faf1 	bl	8002694 <USB_SetTurnaroundTime>
      HAL_PCD_ResetCallback(hpcd);
 80010b2:	4620      	mov	r0, r4
 80010b4:	f003 f987 	bl	80043c6 <HAL_PCD_ResetCallback>
      __HAL_PCD_CLEAR_FLAG(hpcd, USB_OTG_GINTSTS_ENUMDNE);
 80010b8:	6822      	ldr	r2, [r4, #0]
 80010ba:	6953      	ldr	r3, [r2, #20]
 80010bc:	f403 5300 	and.w	r3, r3, #8192	; 0x2000
 80010c0:	6153      	str	r3, [r2, #20]
 80010c2:	e65b      	b.n	8000d7c <HAL_PCD_IRQHandler+0xd8>
        hpcd->Init.speed = USB_OTG_SPEED_FULL;
 80010c4:	2303      	movs	r3, #3
 80010c6:	60e3      	str	r3, [r4, #12]
 80010c8:	e7eb      	b.n	80010a2 <HAL_PCD_IRQHandler+0x3fe>
        if ((temp & USB_OTG_GRXSTSP_BCNT) != 0U)
 80010ca:	f647 73f0 	movw	r3, #32752	; 0x7ff0
 80010ce:	421e      	tst	r6, r3
 80010d0:	f43f ae6a 	beq.w	8000da8 <HAL_PCD_IRQHandler+0x104>
          (void)USB_ReadPacket(USBx, ep->xfer_buff,
 80010d4:	ea4f 0ac8 	mov.w	sl, r8, lsl #3
 80010d8:	ebaa 0308 	sub.w	r3, sl, r8
 80010dc:	ea4f 0983 	mov.w	r9, r3, lsl #2
 80010e0:	44a1      	add	r9, r4
                               (uint16_t)((temp & USB_OTG_GRXSTSP_BCNT) >> 4));
 80010e2:	0936      	lsrs	r6, r6, #4
          (void)USB_ReadPacket(USBx, ep->xfer_buff,
 80010e4:	f3c6 020a 	ubfx	r2, r6, #0, #11
 80010e8:	f8d9 1208 	ldr.w	r1, [r9, #520]	; 0x208
 80010ec:	4628      	mov	r0, r5
 80010ee:	f001 fe9f 	bl	8002e30 <USB_ReadPacket>
          ep->xfer_buff += (temp & USB_OTG_GRXSTSP_BCNT) >> 4;
 80010f2:	f3c6 060a 	ubfx	r6, r6, #0, #11
 80010f6:	f8d9 3208 	ldr.w	r3, [r9, #520]	; 0x208
 80010fa:	4433      	add	r3, r6
 80010fc:	f8c9 3208 	str.w	r3, [r9, #520]	; 0x208
          ep->xfer_count += (temp & USB_OTG_GRXSTSP_BCNT) >> 4;
 8001100:	f8d9 3214 	ldr.w	r3, [r9, #532]	; 0x214
 8001104:	441e      	add	r6, r3
 8001106:	f8c9 6214 	str.w	r6, [r9, #532]	; 0x214
 800110a:	e64d      	b.n	8000da8 <HAL_PCD_IRQHandler+0x104>
        (void)USB_ReadPacket(USBx, (uint8_t *)hpcd->Setup, 8U);
 800110c:	2208      	movs	r2, #8
 800110e:	f504 7171 	add.w	r1, r4, #964	; 0x3c4
 8001112:	4628      	mov	r0, r5
 8001114:	f001 fe8c 	bl	8002e30 <USB_ReadPacket>
        ep->xfer_count += (temp & USB_OTG_GRXSTSP_BCNT) >> 4;
 8001118:	f3c6 160a 	ubfx	r6, r6, #4, #11
 800111c:	ea4f 03c8 	mov.w	r3, r8, lsl #3
 8001120:	eba3 0108 	sub.w	r1, r3, r8
 8001124:	008a      	lsls	r2, r1, #2
 8001126:	4422      	add	r2, r4
 8001128:	f8d2 3214 	ldr.w	r3, [r2, #532]	; 0x214
 800112c:	441e      	add	r6, r3
 800112e:	f8c2 6214 	str.w	r6, [r2, #532]	; 0x214
 8001132:	e639      	b.n	8000da8 <HAL_PCD_IRQHandler+0x104>
      HAL_PCD_SOFCallback(hpcd);
 8001134:	4620      	mov	r0, r4
 8001136:	f003 f940 	bl	80043ba <HAL_PCD_SOFCallback>
      __HAL_PCD_CLEAR_FLAG(hpcd, USB_OTG_GINTSTS_SOF);
 800113a:	6822      	ldr	r2, [r4, #0]
 800113c:	6953      	ldr	r3, [r2, #20]
 800113e:	f003 0308 	and.w	r3, r3, #8
 8001142:	6153      	str	r3, [r2, #20]
 8001144:	e63c      	b.n	8000dc0 <HAL_PCD_IRQHandler+0x11c>
      HAL_PCD_ISOINIncompleteCallback(hpcd, (uint8_t)epnum);
 8001146:	b2f9      	uxtb	r1, r7
 8001148:	4620      	mov	r0, r4
 800114a:	f003 f977 	bl	800443c <HAL_PCD_ISOINIncompleteCallback>
      __HAL_PCD_CLEAR_FLAG(hpcd, USB_OTG_GINTSTS_IISOIXFR);
 800114e:	6822      	ldr	r2, [r4, #0]
 8001150:	6953      	ldr	r3, [r2, #20]
 8001152:	f403 1380 	and.w	r3, r3, #1048576	; 0x100000
 8001156:	6153      	str	r3, [r2, #20]
 8001158:	e639      	b.n	8000dce <HAL_PCD_IRQHandler+0x12a>
      HAL_PCD_ISOOUTIncompleteCallback(hpcd, (uint8_t)epnum);
 800115a:	b2f9      	uxtb	r1, r7
 800115c:	4620      	mov	r0, r4
 800115e:	f003 f967 	bl	8004430 <HAL_PCD_ISOOUTIncompleteCallback>
      __HAL_PCD_CLEAR_FLAG(hpcd, USB_OTG_GINTSTS_PXFR_INCOMPISOOUT);
 8001162:	6822      	ldr	r2, [r4, #0]
 8001164:	6953      	ldr	r3, [r2, #20]
 8001166:	f403 1300 	and.w	r3, r3, #2097152	; 0x200000
 800116a:	6153      	str	r3, [r2, #20]
 800116c:	e636      	b.n	8000ddc <HAL_PCD_IRQHandler+0x138>
      HAL_PCD_ConnectCallback(hpcd);
 800116e:	4620      	mov	r0, r4
 8001170:	f003 f96a 	bl	8004448 <HAL_PCD_ConnectCallback>
      __HAL_PCD_CLEAR_FLAG(hpcd, USB_OTG_GINTSTS_SRQINT);
 8001174:	6822      	ldr	r2, [r4, #0]
 8001176:	6953      	ldr	r3, [r2, #20]
 8001178:	f003 4380 	and.w	r3, r3, #1073741824	; 0x40000000
 800117c:	6153      	str	r3, [r2, #20]
 800117e:	e634      	b.n	8000dea <HAL_PCD_IRQHandler+0x146>
        HAL_PCD_DisconnectCallback(hpcd);
 8001180:	4620      	mov	r0, r4
 8001182:	f003 f967 	bl	8004454 <HAL_PCD_DisconnectCallback>
 8001186:	e63d      	b.n	8000e04 <HAL_PCD_IRQHandler+0x160>

08001188 <HAL_PCD_SetAddress>:
  __HAL_LOCK(hpcd);
 8001188:	f890 33bc 	ldrb.w	r3, [r0, #956]	; 0x3bc
 800118c:	2b01      	cmp	r3, #1
 800118e:	d00d      	beq.n	80011ac <HAL_PCD_SetAddress+0x24>
{
 8001190:	b510      	push	{r4, lr}
 8001192:	4604      	mov	r4, r0
  __HAL_LOCK(hpcd);
 8001194:	2301      	movs	r3, #1
 8001196:	f880 33bc 	strb.w	r3, [r0, #956]	; 0x3bc
  hpcd->USB_Address = address;
 800119a:	f880 1038 	strb.w	r1, [r0, #56]	; 0x38
  (void)USB_SetDevAddress(hpcd->Instance, address);
 800119e:	6800      	ldr	r0, [r0, #0]
 80011a0:	f001 feb5 	bl	8002f0e <USB_SetDevAddress>
  __HAL_UNLOCK(hpcd);
 80011a4:	2000      	movs	r0, #0
 80011a6:	f884 03bc 	strb.w	r0, [r4, #956]	; 0x3bc
}
 80011aa:	bd10      	pop	{r4, pc}
  __HAL_LOCK(hpcd);
 80011ac:	2002      	movs	r0, #2
}
 80011ae:	4770      	bx	lr

080011b0 <HAL_PCD_EP_Open>:
{
 80011b0:	b5f8      	push	{r3, r4, r5, r6, r7, lr}
  if ((ep_addr & 0x80U) == 0x80U)
 80011b2:	f011 0f80 	tst.w	r1, #128	; 0x80
 80011b6:	d128      	bne.n	800120a <HAL_PCD_EP_Open+0x5a>
    ep = &hpcd->OUT_ep[ep_addr & EP_ADDR_MSK];
 80011b8:	f001 060f 	and.w	r6, r1, #15
 80011bc:	00f5      	lsls	r5, r6, #3
 80011be:	1baf      	subs	r7, r5, r6
 80011c0:	00bc      	lsls	r4, r7, #2
 80011c2:	4627      	mov	r7, r4
 80011c4:	f504 74fc 	add.w	r4, r4, #504	; 0x1f8
 80011c8:	4404      	add	r4, r0
 80011ca:	3404      	adds	r4, #4
    ep->is_in = 0U;
 80011cc:	463e      	mov	r6, r7
 80011ce:	4406      	add	r6, r0
 80011d0:	2500      	movs	r5, #0
 80011d2:	f886 51fd 	strb.w	r5, [r6, #509]	; 0x1fd
  ep->num = ep_addr & EP_ADDR_MSK;
 80011d6:	f001 010f 	and.w	r1, r1, #15
 80011da:	7021      	strb	r1, [r4, #0]
  ep->maxpacket = ep_mps;
 80011dc:	60a2      	str	r2, [r4, #8]
  ep->type = ep_type;
 80011de:	70e3      	strb	r3, [r4, #3]
  if (ep->is_in != 0U)
 80011e0:	7862      	ldrb	r2, [r4, #1]
 80011e2:	b102      	cbz	r2, 80011e6 <HAL_PCD_EP_Open+0x36>
    ep->tx_fifo_num = ep->num;
 80011e4:	80e1      	strh	r1, [r4, #6]
  if (ep_type == EP_TYPE_BULK)
 80011e6:	2b02      	cmp	r3, #2
 80011e8:	d01e      	beq.n	8001228 <HAL_PCD_EP_Open+0x78>
  __HAL_LOCK(hpcd);
 80011ea:	f890 33bc 	ldrb.w	r3, [r0, #956]	; 0x3bc
 80011ee:	2b01      	cmp	r3, #1
 80011f0:	d01d      	beq.n	800122e <HAL_PCD_EP_Open+0x7e>
 80011f2:	4605      	mov	r5, r0
 80011f4:	2301      	movs	r3, #1
 80011f6:	f880 33bc 	strb.w	r3, [r0, #956]	; 0x3bc
  (void)USB_ActivateEndpoint(hpcd->Instance, ep);
 80011fa:	4621      	mov	r1, r4
 80011fc:	6800      	ldr	r0, [r0, #0]
 80011fe:	f001 fbfb 	bl	80029f8 <USB_ActivateEndpoint>
  __HAL_UNLOCK(hpcd);
 8001202:	2000      	movs	r0, #0
 8001204:	f885 03bc 	strb.w	r0, [r5, #956]	; 0x3bc
}
 8001208:	bdf8      	pop	{r3, r4, r5, r6, r7, pc}
    ep = &hpcd->IN_ep[ep_addr & EP_ADDR_MSK];
 800120a:	f001 060f 	and.w	r6, r1, #15
 800120e:	00f5      	lsls	r5, r6, #3
 8001210:	1baf      	subs	r7, r5, r6
 8001212:	00bc      	lsls	r4, r7, #2
 8001214:	4627      	mov	r7, r4
 8001216:	3438      	adds	r4, #56	; 0x38
 8001218:	4404      	add	r4, r0
 800121a:	3404      	adds	r4, #4
    ep->is_in = 1U;
 800121c:	463e      	mov	r6, r7
 800121e:	4406      	add	r6, r0
 8001220:	2501      	movs	r5, #1
 8001222:	f886 503d 	strb.w	r5, [r6, #61]	; 0x3d
 8001226:	e7d6      	b.n	80011d6 <HAL_PCD_EP_Open+0x26>
    ep->data_pid_start = 0U;
 8001228:	2300      	movs	r3, #0
 800122a:	7123      	strb	r3, [r4, #4]
 800122c:	e7dd      	b.n	80011ea <HAL_PCD_EP_Open+0x3a>
  __HAL_LOCK(hpcd);
 800122e:	2002      	movs	r0, #2
 8001230:	e7ea      	b.n	8001208 <HAL_PCD_EP_Open+0x58>

08001232 <HAL_PCD_EP_Close>:
{
 8001232:	b538      	push	{r3, r4, r5, lr}
  if ((ep_addr & 0x80U) == 0x80U)
 8001234:	f011 0f80 	tst.w	r1, #128	; 0x80
 8001238:	d121      	bne.n	800127e <HAL_PCD_EP_Close+0x4c>
    ep = &hpcd->OUT_ep[ep_addr & EP_ADDR_MSK];
 800123a:	f001 050f 	and.w	r5, r1, #15
 800123e:	00ea      	lsls	r2, r5, #3
 8001240:	1b54      	subs	r4, r2, r5
 8001242:	00a3      	lsls	r3, r4, #2
 8001244:	461c      	mov	r4, r3
 8001246:	f503 73fc 	add.w	r3, r3, #504	; 0x1f8
 800124a:	4403      	add	r3, r0
 800124c:	3304      	adds	r3, #4
    ep->is_in = 0U;
 800124e:	4625      	mov	r5, r4
 8001250:	4405      	add	r5, r0
 8001252:	2200      	movs	r2, #0
 8001254:	f885 21fd 	strb.w	r2, [r5, #509]	; 0x1fd
  ep->num   = ep_addr & EP_ADDR_MSK;
 8001258:	f001 010f 	and.w	r1, r1, #15
 800125c:	7019      	strb	r1, [r3, #0]
  __HAL_LOCK(hpcd);
 800125e:	f890 23bc 	ldrb.w	r2, [r0, #956]	; 0x3bc
 8001262:	2a01      	cmp	r2, #1
 8001264:	d01a      	beq.n	800129c <HAL_PCD_EP_Close+0x6a>
 8001266:	4604      	mov	r4, r0
 8001268:	2201      	movs	r2, #1
 800126a:	f880 23bc 	strb.w	r2, [r0, #956]	; 0x3bc
  (void)USB_DeactivateEndpoint(hpcd->Instance, ep);
 800126e:	4619      	mov	r1, r3
 8001270:	6800      	ldr	r0, [r0, #0]
 8001272:	f001 fc09 	bl	8002a88 <USB_DeactivateEndpoint>
  __HAL_UNLOCK(hpcd);
 8001276:	2000      	movs	r0, #0
 8001278:	f884 03bc 	strb.w	r0, [r4, #956]	; 0x3bc
}
 800127c:	bd38      	pop	{r3, r4, r5, pc}
    ep = &hpcd->IN_ep[ep_addr & EP_ADDR_MSK];
 800127e:	f001 040f 	and.w	r4, r1, #15
 8001282:	00e2      	lsls	r2, r4, #3
 8001284:	1b15      	subs	r5, r2, r4
 8001286:	00ab      	lsls	r3, r5, #2
 8001288:	461d      	mov	r5, r3
 800128a:	3338      	adds	r3, #56	; 0x38
 800128c:	4403      	add	r3, r0
 800128e:	3304      	adds	r3, #4
    ep->is_in = 1U;
 8001290:	462c      	mov	r4, r5
 8001292:	4404      	add	r4, r0
 8001294:	2201      	movs	r2, #1
 8001296:	f884 203d 	strb.w	r2, [r4, #61]	; 0x3d
 800129a:	e7dd      	b.n	8001258 <HAL_PCD_EP_Close+0x26>
  __HAL_LOCK(hpcd);
 800129c:	2002      	movs	r0, #2
 800129e:	e7ed      	b.n	800127c <HAL_PCD_EP_Close+0x4a>

080012a0 <HAL_PCD_EP_Receive>:
{
 80012a0:	b570      	push	{r4, r5, r6, lr}
 80012a2:	f001 050f 	and.w	r5, r1, #15
  ep = &hpcd->OUT_ep[ep_addr & EP_ADDR_MSK];
 80012a6:	00ee      	lsls	r6, r5, #3
 80012a8:	1b71      	subs	r1, r6, r5
 80012aa:	008c      	lsls	r4, r1, #2
 80012ac:	f504 74fc 	add.w	r4, r4, #504	; 0x1f8
 80012b0:	4404      	add	r4, r0
 80012b2:	1d21      	adds	r1, r4, #4
  ep->xfer_buff = pBuf;
 80012b4:	1b76      	subs	r6, r6, r5
 80012b6:	00b4      	lsls	r4, r6, #2
 80012b8:	4404      	add	r4, r0
 80012ba:	f8c4 2208 	str.w	r2, [r4, #520]	; 0x208
  ep->xfer_len = len;
 80012be:	f8c4 3210 	str.w	r3, [r4, #528]	; 0x210
  ep->xfer_count = 0U;
 80012c2:	2300      	movs	r3, #0
 80012c4:	f8c4 3214 	str.w	r3, [r4, #532]	; 0x214
  ep->is_in = 0U;
 80012c8:	f884 31fd 	strb.w	r3, [r4, #509]	; 0x1fd
  ep->num = ep_addr & EP_ADDR_MSK;
 80012cc:	f884 51fc 	strb.w	r5, [r4, #508]	; 0x1fc
  if (hpcd->Init.dma_enable == 1U)
 80012d0:	6903      	ldr	r3, [r0, #16]
 80012d2:	2b01      	cmp	r3, #1
 80012d4:	d006      	beq.n	80012e4 <HAL_PCD_EP_Receive+0x44>
  if ((ep_addr & EP_ADDR_MSK) == 0U)
 80012d6:	b165      	cbz	r5, 80012f2 <HAL_PCD_EP_Receive+0x52>
    (void)USB_EPStartXfer(hpcd->Instance, ep, (uint8_t)hpcd->Init.dma_enable);
 80012d8:	b2da      	uxtb	r2, r3
 80012da:	6800      	ldr	r0, [r0, #0]
 80012dc:	f001 fcb4 	bl	8002c48 <USB_EPStartXfer>
}
 80012e0:	2000      	movs	r0, #0
 80012e2:	bd70      	pop	{r4, r5, r6, pc}
    ep->dma_addr = (uint32_t)pBuf;
 80012e4:	ebc5 06c5 	rsb	r6, r5, r5, lsl #3
 80012e8:	00b4      	lsls	r4, r6, #2
 80012ea:	4404      	add	r4, r0
 80012ec:	f8c4 220c 	str.w	r2, [r4, #524]	; 0x20c
 80012f0:	e7f1      	b.n	80012d6 <HAL_PCD_EP_Receive+0x36>
    (void)USB_EP0StartXfer(hpcd->Instance, ep, (uint8_t)hpcd->Init.dma_enable);
 80012f2:	b2da      	uxtb	r2, r3
 80012f4:	6800      	ldr	r0, [r0, #0]
 80012f6:	f001 fc0f 	bl	8002b18 <USB_EP0StartXfer>
 80012fa:	e7f1      	b.n	80012e0 <HAL_PCD_EP_Receive+0x40>

080012fc <HAL_PCD_EP_GetRxCount>:
  return hpcd->OUT_ep[ep_addr & EP_ADDR_MSK].xfer_count;
 80012fc:	f001 010f 	and.w	r1, r1, #15
 8001300:	ebc1 01c1 	rsb	r1, r1, r1, lsl #3
 8001304:	008b      	lsls	r3, r1, #2
 8001306:	4418      	add	r0, r3
}
 8001308:	f8d0 0214 	ldr.w	r0, [r0, #532]	; 0x214
 800130c:	4770      	bx	lr

0800130e <HAL_PCD_EP_Transmit>:
{
 800130e:	b570      	push	{r4, r5, r6, lr}
 8001310:	f001 050f 	and.w	r5, r1, #15
  ep = &hpcd->IN_ep[ep_addr & EP_ADDR_MSK];
 8001314:	00ee      	lsls	r6, r5, #3
 8001316:	1b71      	subs	r1, r6, r5
 8001318:	008c      	lsls	r4, r1, #2
 800131a:	3438      	adds	r4, #56	; 0x38
 800131c:	4404      	add	r4, r0
 800131e:	1d21      	adds	r1, r4, #4
  ep->xfer_buff = pBuf;
 8001320:	1b76      	subs	r6, r6, r5
 8001322:	00b4      	lsls	r4, r6, #2
 8001324:	4404      	add	r4, r0
 8001326:	64a2      	str	r2, [r4, #72]	; 0x48
  ep->xfer_len = len;
 8001328:	6523      	str	r3, [r4, #80]	; 0x50
  ep->xfer_count = 0U;
 800132a:	2300      	movs	r3, #0
 800132c:	6563      	str	r3, [r4, #84]	; 0x54
  ep->is_in = 1U;
 800132e:	2301      	movs	r3, #1
 8001330:	f884 303d 	strb.w	r3, [r4, #61]	; 0x3d
  ep->num = ep_addr & EP_ADDR_MSK;
 8001334:	f884 503c 	strb.w	r5, [r4, #60]	; 0x3c
  if (hpcd->Init.dma_enable == 1U)
 8001338:	6903      	ldr	r3, [r0, #16]
 800133a:	2b01      	cmp	r3, #1
 800133c:	d006      	beq.n	800134c <HAL_PCD_EP_Transmit+0x3e>
  if ((ep_addr & EP_ADDR_MSK) == 0U)
 800133e:	b15d      	cbz	r5, 8001358 <HAL_PCD_EP_Transmit+0x4a>
    (void)USB_EPStartXfer(hpcd->Instance, ep, (uint8_t)hpcd->Init.dma_enable);
 8001340:	b2da      	uxtb	r2, r3
 8001342:	6800      	ldr	r0, [r0, #0]
 8001344:	f001 fc80 	bl	8002c48 <USB_EPStartXfer>
}
 8001348:	2000      	movs	r0, #0
 800134a:	bd70      	pop	{r4, r5, r6, pc}
    ep->dma_addr = (uint32_t)pBuf;
 800134c:	ebc5 06c5 	rsb	r6, r5, r5, lsl #3
 8001350:	00b4      	lsls	r4, r6, #2
 8001352:	4404      	add	r4, r0
 8001354:	64e2      	str	r2, [r4, #76]	; 0x4c
 8001356:	e7f2      	b.n	800133e <HAL_PCD_EP_Transmit+0x30>
    (void)USB_EP0StartXfer(hpcd->Instance, ep, (uint8_t)hpcd->Init.dma_enable);
 8001358:	b2da      	uxtb	r2, r3
 800135a:	6800      	ldr	r0, [r0, #0]
 800135c:	f001 fbdc 	bl	8002b18 <USB_EP0StartXfer>
 8001360:	e7f2      	b.n	8001348 <HAL_PCD_EP_Transmit+0x3a>

08001362 <HAL_PCD_EP_SetStall>:
{
 8001362:	b538      	push	{r3, r4, r5, lr}
 8001364:	f001 050f 	and.w	r5, r1, #15
  if (((uint32_t)ep_addr & EP_ADDR_MSK) > hpcd->Init.dev_endpoints)
 8001368:	6843      	ldr	r3, [r0, #4]
 800136a:	429d      	cmp	r5, r3
 800136c:	d836      	bhi.n	80013dc <HAL_PCD_EP_SetStall+0x7a>
  if ((0x80U & ep_addr) == 0x80U)
 800136e:	f011 0f80 	tst.w	r1, #128	; 0x80
 8001372:	d120      	bne.n	80013b6 <HAL_PCD_EP_SetStall+0x54>
    ep = &hpcd->OUT_ep[ep_addr];
 8001374:	00ca      	lsls	r2, r1, #3
 8001376:	1a54      	subs	r4, r2, r1
 8001378:	00a3      	lsls	r3, r4, #2
 800137a:	461c      	mov	r4, r3
 800137c:	f503 73fc 	add.w	r3, r3, #504	; 0x1f8
 8001380:	4403      	add	r3, r0
 8001382:	3304      	adds	r3, #4
    ep->is_in = 0U;
 8001384:	4622      	mov	r2, r4
 8001386:	4402      	add	r2, r0
 8001388:	2100      	movs	r1, #0
 800138a:	f882 11fd 	strb.w	r1, [r2, #509]	; 0x1fd
  ep->is_stall = 1U;
 800138e:	2201      	movs	r2, #1
 8001390:	709a      	strb	r2, [r3, #2]
  ep->num = ep_addr & EP_ADDR_MSK;
 8001392:	701d      	strb	r5, [r3, #0]
  __HAL_LOCK(hpcd);
 8001394:	f890 23bc 	ldrb.w	r2, [r0, #956]	; 0x3bc
 8001398:	2a01      	cmp	r2, #1
 800139a:	d021      	beq.n	80013e0 <HAL_PCD_EP_SetStall+0x7e>
 800139c:	4604      	mov	r4, r0
 800139e:	2201      	movs	r2, #1
 80013a0:	f880 23bc 	strb.w	r2, [r0, #956]	; 0x3bc
  (void)USB_EPSetStall(hpcd->Instance, ep);
 80013a4:	4619      	mov	r1, r3
 80013a6:	6800      	ldr	r0, [r0, #0]
 80013a8:	f001 fd56 	bl	8002e58 <USB_EPSetStall>
  if ((ep_addr & EP_ADDR_MSK) == 0U)
 80013ac:	b17d      	cbz	r5, 80013ce <HAL_PCD_EP_SetStall+0x6c>
  __HAL_UNLOCK(hpcd);
 80013ae:	2000      	movs	r0, #0
 80013b0:	f884 03bc 	strb.w	r0, [r4, #956]	; 0x3bc
  return HAL_OK;
 80013b4:	e013      	b.n	80013de <HAL_PCD_EP_SetStall+0x7c>
    ep = &hpcd->IN_ep[ep_addr & EP_ADDR_MSK];
 80013b6:	00ea      	lsls	r2, r5, #3
 80013b8:	1b51      	subs	r1, r2, r5
 80013ba:	008b      	lsls	r3, r1, #2
 80013bc:	4619      	mov	r1, r3
 80013be:	3338      	adds	r3, #56	; 0x38
 80013c0:	4403      	add	r3, r0
 80013c2:	3304      	adds	r3, #4
    ep->is_in = 1U;
 80013c4:	4401      	add	r1, r0
 80013c6:	2201      	movs	r2, #1
 80013c8:	f881 203d 	strb.w	r2, [r1, #61]	; 0x3d
 80013cc:	e7df      	b.n	800138e <HAL_PCD_EP_SetStall+0x2c>
    (void)USB_EP0_OutStart(hpcd->Instance, (uint8_t)hpcd->Init.dma_enable, (uint8_t *)hpcd->Setup);
 80013ce:	f504 7271 	add.w	r2, r4, #964	; 0x3c4
 80013d2:	7c21      	ldrb	r1, [r4, #16]
 80013d4:	6820      	ldr	r0, [r4, #0]
 80013d6:	f001 fe13 	bl	8003000 <USB_EP0_OutStart>
 80013da:	e7e8      	b.n	80013ae <HAL_PCD_EP_SetStall+0x4c>
    return HAL_ERROR;
 80013dc:	2001      	movs	r0, #1
}
 80013de:	bd38      	pop	{r3, r4, r5, pc}
  __HAL_LOCK(hpcd);
 80013e0:	2002      	movs	r0, #2
 80013e2:	e7fc      	b.n	80013de <HAL_PCD_EP_SetStall+0x7c>

080013e4 <HAL_PCD_EP_ClrStall>:
{
 80013e4:	b510      	push	{r4, lr}
 80013e6:	f001 040f 	and.w	r4, r1, #15
  if (((uint32_t)ep_addr & 0x0FU) > hpcd->Init.dev_endpoints)
 80013ea:	6843      	ldr	r3, [r0, #4]
 80013ec:	429c      	cmp	r4, r3
 80013ee:	d82c      	bhi.n	800144a <HAL_PCD_EP_ClrStall+0x66>
  if ((0x80U & ep_addr) == 0x80U)
 80013f0:	f011 0f80 	tst.w	r1, #128	; 0x80
 80013f4:	d11d      	bne.n	8001432 <HAL_PCD_EP_ClrStall+0x4e>
    ep = &hpcd->OUT_ep[ep_addr & EP_ADDR_MSK];
 80013f6:	00e3      	lsls	r3, r4, #3
 80013f8:	1b1a      	subs	r2, r3, r4
 80013fa:	0091      	lsls	r1, r2, #2
 80013fc:	460a      	mov	r2, r1
 80013fe:	f501 71fc 	add.w	r1, r1, #504	; 0x1f8
 8001402:	4401      	add	r1, r0
 8001404:	3104      	adds	r1, #4
    ep->is_in = 0U;
 8001406:	4402      	add	r2, r0
 8001408:	2300      	movs	r3, #0
 800140a:	f882 31fd 	strb.w	r3, [r2, #509]	; 0x1fd
  ep->is_stall = 0U;
 800140e:	2300      	movs	r3, #0
 8001410:	708b      	strb	r3, [r1, #2]
  ep->num = ep_addr & EP_ADDR_MSK;
 8001412:	700c      	strb	r4, [r1, #0]
  __HAL_LOCK(hpcd);
 8001414:	f890 33bc 	ldrb.w	r3, [r0, #956]	; 0x3bc
 8001418:	2b01      	cmp	r3, #1
 800141a:	d018      	beq.n	800144e <HAL_PCD_EP_ClrStall+0x6a>
 800141c:	4604      	mov	r4, r0
 800141e:	2301      	movs	r3, #1
 8001420:	f880 33bc 	strb.w	r3, [r0, #956]	; 0x3bc
  (void)USB_EPClearStall(hpcd->Instance, ep);
 8001424:	6800      	ldr	r0, [r0, #0]
 8001426:	f001 fd44 	bl	8002eb2 <USB_EPClearStall>
  __HAL_UNLOCK(hpcd);
 800142a:	2000      	movs	r0, #0
 800142c:	f884 03bc 	strb.w	r0, [r4, #956]	; 0x3bc
  return HAL_OK;
 8001430:	e00c      	b.n	800144c <HAL_PCD_EP_ClrStall+0x68>
    ep = &hpcd->IN_ep[ep_addr & EP_ADDR_MSK];
 8001432:	00e3      	lsls	r3, r4, #3
 8001434:	1b1a      	subs	r2, r3, r4
 8001436:	0091      	lsls	r1, r2, #2
 8001438:	460a      	mov	r2, r1
 800143a:	3138      	adds	r1, #56	; 0x38
 800143c:	4401      	add	r1, r0
 800143e:	3104      	adds	r1, #4
    ep->is_in = 1U;
 8001440:	4402      	add	r2, r0
 8001442:	2301      	movs	r3, #1
 8001444:	f882 303d 	strb.w	r3, [r2, #61]	; 0x3d
 8001448:	e7e1      	b.n	800140e <HAL_PCD_EP_ClrStall+0x2a>
    return HAL_ERROR;
 800144a:	2001      	movs	r0, #1
}
 800144c:	bd10      	pop	{r4, pc}
  __HAL_LOCK(hpcd);
 800144e:	2002      	movs	r0, #2
 8001450:	e7fc      	b.n	800144c <HAL_PCD_EP_ClrStall+0x68>

08001452 <HAL_PCDEx_SetTxFiFo>:
  * @param  fifo The number of Tx fifo
  * @param  size Fifo size
  * @retval HAL status
  */
HAL_StatusTypeDef HAL_PCDEx_SetTxFiFo(PCD_HandleTypeDef *hpcd, uint8_t fifo, uint16_t size)
{
 8001452:	b430      	push	{r4, r5}
         --> Txn should be configured with the minimum space of 16 words
     The FIFO is used optimally when used TxFIFOs are allocated in the top
         of the FIFO.Ex: use EP1 and EP2 as IN instead of EP1 and EP3 as IN ones.
     When DMA is used 3n * FIFO locations should be reserved for internal DMA registers */

  Tx_Offset = hpcd->Instance->GRXFSIZ;
 8001454:	6804      	ldr	r4, [r0, #0]
 8001456:	6a60      	ldr	r0, [r4, #36]	; 0x24

  if (fifo == 0U)
 8001458:	b129      	cbz	r1, 8001466 <HAL_PCDEx_SetTxFiFo+0x14>
 800145a:	460d      	mov	r5, r1
  {
    hpcd->Instance->DIEPTXF0_HNPTXFSIZ = ((uint32_t)size << 16) | Tx_Offset;
  }
  else
  {
    Tx_Offset += (hpcd->Instance->DIEPTXF0_HNPTXFSIZ) >> 16;
 800145c:	6aa3      	ldr	r3, [r4, #40]	; 0x28
 800145e:	eb00 4013 	add.w	r0, r0, r3, lsr #16
    for (i = 0U; i < (fifo - 1U); i++)
 8001462:	2300      	movs	r3, #0
 8001464:	e00c      	b.n	8001480 <HAL_PCDEx_SetTxFiFo+0x2e>
    hpcd->Instance->DIEPTXF0_HNPTXFSIZ = ((uint32_t)size << 16) | Tx_Offset;
 8001466:	ea40 4002 	orr.w	r0, r0, r2, lsl #16
 800146a:	62a0      	str	r0, [r4, #40]	; 0x28
 800146c:	e012      	b.n	8001494 <HAL_PCDEx_SetTxFiFo+0x42>
    {
      Tx_Offset += (hpcd->Instance->DIEPTXF[i] >> 16);
 800146e:	f103 0140 	add.w	r1, r3, #64	; 0x40
 8001472:	eb04 0181 	add.w	r1, r4, r1, lsl #2
 8001476:	6849      	ldr	r1, [r1, #4]
 8001478:	eb00 4011 	add.w	r0, r0, r1, lsr #16
    for (i = 0U; i < (fifo - 1U); i++)
 800147c:	3301      	adds	r3, #1
 800147e:	b2db      	uxtb	r3, r3
 8001480:	1e69      	subs	r1, r5, #1
 8001482:	428b      	cmp	r3, r1
 8001484:	d3f3      	bcc.n	800146e <HAL_PCDEx_SetTxFiFo+0x1c>
    }

    /* Multiply Tx_Size by 2 to get higher performance */
    hpcd->Instance->DIEPTXF[fifo - 1U] = ((uint32_t)size << 16) | Tx_Offset;
 8001486:	ea40 4002 	orr.w	r0, r0, r2, lsl #16
 800148a:	f105 013f 	add.w	r1, r5, #63	; 0x3f
 800148e:	eb04 0181 	add.w	r1, r4, r1, lsl #2
 8001492:	6048      	str	r0, [r1, #4]
  }

  return HAL_OK;
}
 8001494:	2000      	movs	r0, #0
 8001496:	bc30      	pop	{r4, r5}
 8001498:	4770      	bx	lr

0800149a <HAL_PCDEx_SetRxFiFo>:
  * @param  size Size of Rx fifo
  * @retval HAL status
  */
HAL_StatusTypeDef HAL_PCDEx_SetRxFiFo(PCD_HandleTypeDef *hpcd, uint16_t size)
{
  hpcd->Instance->GRXFSIZ = size;
 800149a:	6803      	ldr	r3, [r0, #0]
 800149c:	6259      	str	r1, [r3, #36]	; 0x24

  return HAL_OK;
}
 800149e:	2000      	movs	r0, #0
 80014a0:	4770      	bx	lr
	...

080014a4 <HAL_PCDEx_ActivateLPM>:
  * @brief  Activate LPM feature.
  * @param  hpcd PCD handle
  * @retval HAL status
  */
HAL_StatusTypeDef HAL_PCDEx_ActivateLPM(PCD_HandleTypeDef *hpcd)
{
 80014a4:	4602      	mov	r2, r0
  USB_OTG_GlobalTypeDef *USBx = hpcd->Instance;
 80014a6:	6803      	ldr	r3, [r0, #0]

  hpcd->lpm_active = 1U;
 80014a8:	2101      	movs	r1, #1
 80014aa:	f8c0 13fc 	str.w	r1, [r0, #1020]	; 0x3fc
  hpcd->LPM_State = LPM_L0;
 80014ae:	2000      	movs	r0, #0
 80014b0:	f882 03f4 	strb.w	r0, [r2, #1012]	; 0x3f4
  USBx->GINTMSK |= USB_OTG_GINTMSK_LPMINTM;
 80014b4:	699a      	ldr	r2, [r3, #24]
 80014b6:	f042 6200 	orr.w	r2, r2, #134217728	; 0x8000000
 80014ba:	619a      	str	r2, [r3, #24]
  USBx->GLPMCFG |= (USB_OTG_GLPMCFG_LPMEN | USB_OTG_GLPMCFG_LPMACK | USB_OTG_GLPMCFG_ENBESL);
 80014bc:	6d59      	ldr	r1, [r3, #84]	; 0x54
 80014be:	4a02      	ldr	r2, [pc, #8]	; (80014c8 <HAL_PCDEx_ActivateLPM+0x24>)
 80014c0:	430a      	orrs	r2, r1
 80014c2:	655a      	str	r2, [r3, #84]	; 0x54

  return HAL_OK;
}
 80014c4:	4770      	bx	lr
 80014c6:	bf00      	nop
 80014c8:	10000003 	.word	0x10000003

080014cc <HAL_PWR_EnableBkUpAccess>:
  * @retval None
  */
void HAL_PWR_EnableBkUpAccess(void)
{
  /* Enable access to RTC and backup registers */
  SET_BIT(PWR->CR1, PWR_CR1_DBP);
 80014cc:	4a02      	ldr	r2, [pc, #8]	; (80014d8 <HAL_PWR_EnableBkUpAccess+0xc>)
 80014ce:	6813      	ldr	r3, [r2, #0]
 80014d0:	f443 7380 	orr.w	r3, r3, #256	; 0x100
 80014d4:	6013      	str	r3, [r2, #0]
}
 80014d6:	4770      	bx	lr
 80014d8:	40007000 	.word	0x40007000

080014dc <HAL_PWREx_EnableOverDrive>:
  *         During the Over-drive switch activation, no peripheral clocks should be enabled.   
  *         The peripheral clocks must be enabled once the Over-drive mode is activated.   
  * @retval HAL status
  */
HAL_StatusTypeDef HAL_PWREx_EnableOverDrive(void)
{
 80014dc:	b510      	push	{r4, lr}
 80014de:	b082      	sub	sp, #8
  uint32_t tickstart = 0;

  __HAL_RCC_PWR_CLK_ENABLE();
 80014e0:	4b1b      	ldr	r3, [pc, #108]	; (8001550 <HAL_PWREx_EnableOverDrive+0x74>)
 80014e2:	6c1a      	ldr	r2, [r3, #64]	; 0x40
 80014e4:	f042 5280 	orr.w	r2, r2, #268435456	; 0x10000000
 80014e8:	641a      	str	r2, [r3, #64]	; 0x40
 80014ea:	6c1b      	ldr	r3, [r3, #64]	; 0x40
 80014ec:	f003 5380 	and.w	r3, r3, #268435456	; 0x10000000
 80014f0:	9301      	str	r3, [sp, #4]
 80014f2:	9b01      	ldr	r3, [sp, #4]
  
  /* Enable the Over-drive to extend the clock frequency to 216 MHz */
  __HAL_PWR_OVERDRIVE_ENABLE();
 80014f4:	4a17      	ldr	r2, [pc, #92]	; (8001554 <HAL_PWREx_EnableOverDrive+0x78>)
 80014f6:	6813      	ldr	r3, [r2, #0]
 80014f8:	f443 3380 	orr.w	r3, r3, #65536	; 0x10000
 80014fc:	6013      	str	r3, [r2, #0]

  /* Get tick */
  tickstart = HAL_GetTick();
 80014fe:	f7ff f8a3 	bl	8000648 <HAL_GetTick>
 8001502:	4604      	mov	r4, r0

  while(!__HAL_PWR_GET_FLAG(PWR_FLAG_ODRDY))
 8001504:	4b13      	ldr	r3, [pc, #76]	; (8001554 <HAL_PWREx_EnableOverDrive+0x78>)
 8001506:	685b      	ldr	r3, [r3, #4]
 8001508:	f413 3f80 	tst.w	r3, #65536	; 0x10000
 800150c:	d108      	bne.n	8001520 <HAL_PWREx_EnableOverDrive+0x44>
  {
    if((HAL_GetTick() - tickstart ) > PWR_OVERDRIVE_TIMEOUT_VALUE)
 800150e:	f7ff f89b 	bl	8000648 <HAL_GetTick>
 8001512:	1b00      	subs	r0, r0, r4
 8001514:	f5b0 7f7a 	cmp.w	r0, #1000	; 0x3e8
 8001518:	d9f4      	bls.n	8001504 <HAL_PWREx_EnableOverDrive+0x28>
    {
      return HAL_TIMEOUT;
 800151a:	2003      	movs	r0, #3
    {
      return HAL_TIMEOUT;
    }
  } 
  return HAL_OK;
}
 800151c:	b002      	add	sp, #8
 800151e:	bd10      	pop	{r4, pc}
  __HAL_PWR_OVERDRIVESWITCHING_ENABLE();
 8001520:	4a0c      	ldr	r2, [pc, #48]	; (8001554 <HAL_PWREx_EnableOverDrive+0x78>)
 8001522:	6813      	ldr	r3, [r2, #0]
 8001524:	f443 3300 	orr.w	r3, r3, #131072	; 0x20000
 8001528:	6013      	str	r3, [r2, #0]
  tickstart = HAL_GetTick();
 800152a:	f7ff f88d 	bl	8000648 <HAL_GetTick>
 800152e:	4604      	mov	r4, r0
  while(!__HAL_PWR_GET_FLAG(PWR_FLAG_ODSWRDY))
 8001530:	4b08      	ldr	r3, [pc, #32]	; (8001554 <HAL_PWREx_EnableOverDrive+0x78>)
 8001532:	685b      	ldr	r3, [r3, #4]
 8001534:	f413 3f00 	tst.w	r3, #131072	; 0x20000
 8001538:	d107      	bne.n	800154a <HAL_PWREx_EnableOverDrive+0x6e>
    if((HAL_GetTick() - tickstart ) > PWR_OVERDRIVE_TIMEOUT_VALUE)
 800153a:	f7ff f885 	bl	8000648 <HAL_GetTick>
 800153e:	1b00      	subs	r0, r0, r4
 8001540:	f5b0 7f7a 	cmp.w	r0, #1000	; 0x3e8
 8001544:	d9f4      	bls.n	8001530 <HAL_PWREx_EnableOverDrive+0x54>
      return HAL_TIMEOUT;
 8001546:	2003      	movs	r0, #3
 8001548:	e7e8      	b.n	800151c <HAL_PWREx_EnableOverDrive+0x40>
  return HAL_OK;
 800154a:	2000      	movs	r0, #0
 800154c:	e7e6      	b.n	800151c <HAL_PWREx_EnableOverDrive+0x40>
 800154e:	bf00      	nop
 8001550:	40023800 	.word	0x40023800
 8001554:	40007000 	.word	0x40007000

08001558 <HAL_RCC_OscConfig>:
{
  uint32_t tickstart;
  FlagStatus pwrclkchanged = RESET;

  /* Check Null pointer */
  if(RCC_OscInitStruct == NULL)
 8001558:	2800      	cmp	r0, #0
 800155a:	f000 81db 	beq.w	8001914 <HAL_RCC_OscConfig+0x3bc>
{
 800155e:	b570      	push	{r4, r5, r6, lr}
 8001560:	b082      	sub	sp, #8
 8001562:	4604      	mov	r4, r0

  /* Check the parameters */
  assert_param(IS_RCC_OSCILLATORTYPE(RCC_OscInitStruct->OscillatorType));

  /*------------------------------- HSE Configuration ------------------------*/
  if(((RCC_OscInitStruct->OscillatorType) & RCC_OSCILLATORTYPE_HSE) == RCC_OSCILLATORTYPE_HSE)
 8001564:	6803      	ldr	r3, [r0, #0]
 8001566:	f013 0f01 	tst.w	r3, #1
 800156a:	d029      	beq.n	80015c0 <HAL_RCC_OscConfig+0x68>
  {
    /* Check the parameters */
    assert_param(IS_RCC_HSE(RCC_OscInitStruct->HSEState));
    /* When the HSE is used as system clock or clock source for PLL, It can not be disabled */
    if((__HAL_RCC_GET_SYSCLK_SOURCE() == RCC_SYSCLKSOURCE_STATUS_HSE)
 800156c:	4ba2      	ldr	r3, [pc, #648]	; (80017f8 <HAL_RCC_OscConfig+0x2a0>)
 800156e:	689b      	ldr	r3, [r3, #8]
 8001570:	f003 030c 	and.w	r3, r3, #12
 8001574:	2b04      	cmp	r3, #4
 8001576:	d01a      	beq.n	80015ae <HAL_RCC_OscConfig+0x56>
       || ((__HAL_RCC_GET_SYSCLK_SOURCE() == RCC_SYSCLKSOURCE_STATUS_PLLCLK) && ((RCC->PLLCFGR & RCC_PLLCFGR_PLLSRC) == RCC_PLLCFGR_PLLSRC_HSE)))
 8001578:	4b9f      	ldr	r3, [pc, #636]	; (80017f8 <HAL_RCC_OscConfig+0x2a0>)
 800157a:	689b      	ldr	r3, [r3, #8]
 800157c:	f003 030c 	and.w	r3, r3, #12
 8001580:	2b08      	cmp	r3, #8
 8001582:	d00f      	beq.n	80015a4 <HAL_RCC_OscConfig+0x4c>
      }
    }
    else
    {
      /* Set the new HSE configuration ---------------------------------------*/
      __HAL_RCC_HSE_CONFIG(RCC_OscInitStruct->HSEState);
 8001584:	6863      	ldr	r3, [r4, #4]
 8001586:	f5b3 3f80 	cmp.w	r3, #65536	; 0x10000
 800158a:	d040      	beq.n	800160e <HAL_RCC_OscConfig+0xb6>
 800158c:	2b00      	cmp	r3, #0
 800158e:	d154      	bne.n	800163a <HAL_RCC_OscConfig+0xe2>
 8001590:	4b99      	ldr	r3, [pc, #612]	; (80017f8 <HAL_RCC_OscConfig+0x2a0>)
 8001592:	681a      	ldr	r2, [r3, #0]
 8001594:	f422 3280 	bic.w	r2, r2, #65536	; 0x10000
 8001598:	601a      	str	r2, [r3, #0]
 800159a:	681a      	ldr	r2, [r3, #0]
 800159c:	f422 2280 	bic.w	r2, r2, #262144	; 0x40000
 80015a0:	601a      	str	r2, [r3, #0]
 80015a2:	e039      	b.n	8001618 <HAL_RCC_OscConfig+0xc0>
       || ((__HAL_RCC_GET_SYSCLK_SOURCE() == RCC_SYSCLKSOURCE_STATUS_PLLCLK) && ((RCC->PLLCFGR & RCC_PLLCFGR_PLLSRC) == RCC_PLLCFGR_PLLSRC_HSE)))
 80015a4:	4b94      	ldr	r3, [pc, #592]	; (80017f8 <HAL_RCC_OscConfig+0x2a0>)
 80015a6:	685b      	ldr	r3, [r3, #4]
 80015a8:	f413 0f80 	tst.w	r3, #4194304	; 0x400000
 80015ac:	d0ea      	beq.n	8001584 <HAL_RCC_OscConfig+0x2c>
      if((__HAL_RCC_GET_FLAG(RCC_FLAG_HSERDY) != RESET) && (RCC_OscInitStruct->HSEState == RCC_HSE_OFF))
 80015ae:	4b92      	ldr	r3, [pc, #584]	; (80017f8 <HAL_RCC_OscConfig+0x2a0>)
 80015b0:	681b      	ldr	r3, [r3, #0]
 80015b2:	f413 3f00 	tst.w	r3, #131072	; 0x20000
 80015b6:	d003      	beq.n	80015c0 <HAL_RCC_OscConfig+0x68>
 80015b8:	6863      	ldr	r3, [r4, #4]
 80015ba:	2b00      	cmp	r3, #0
 80015bc:	f000 81ac 	beq.w	8001918 <HAL_RCC_OscConfig+0x3c0>
        }
      }
    }
  }
  /*----------------------------- HSI Configuration --------------------------*/
  if(((RCC_OscInitStruct->OscillatorType) & RCC_OSCILLATORTYPE_HSI) == RCC_OSCILLATORTYPE_HSI)
 80015c0:	6823      	ldr	r3, [r4, #0]
 80015c2:	f013 0f02 	tst.w	r3, #2
 80015c6:	d075      	beq.n	80016b4 <HAL_RCC_OscConfig+0x15c>
    /* Check the parameters */
    assert_param(IS_RCC_HSI(RCC_OscInitStruct->HSIState));
    assert_param(IS_RCC_CALIBRATION_VALUE(RCC_OscInitStruct->HSICalibrationValue));

    /* Check if HSI is used as system clock or as PLL source when PLL is selected as system clock */
    if((__HAL_RCC_GET_SYSCLK_SOURCE() == RCC_SYSCLKSOURCE_STATUS_HSI)
 80015c8:	4b8b      	ldr	r3, [pc, #556]	; (80017f8 <HAL_RCC_OscConfig+0x2a0>)
 80015ca:	689b      	ldr	r3, [r3, #8]
 80015cc:	f013 0f0c 	tst.w	r3, #12
 80015d0:	d05e      	beq.n	8001690 <HAL_RCC_OscConfig+0x138>
       || ((__HAL_RCC_GET_SYSCLK_SOURCE() == RCC_SYSCLKSOURCE_STATUS_PLLCLK) && ((RCC->PLLCFGR & RCC_PLLCFGR_PLLSRC) == RCC_PLLCFGR_PLLSRC_HSI)))
 80015d2:	4b89      	ldr	r3, [pc, #548]	; (80017f8 <HAL_RCC_OscConfig+0x2a0>)
 80015d4:	689b      	ldr	r3, [r3, #8]
 80015d6:	f003 030c 	and.w	r3, r3, #12
 80015da:	2b08      	cmp	r3, #8
 80015dc:	d053      	beq.n	8001686 <HAL_RCC_OscConfig+0x12e>
      }
    }
    else
    {
      /* Check the HSI State */
      if((RCC_OscInitStruct->HSIState)!= RCC_HSI_OFF)
 80015de:	68e3      	ldr	r3, [r4, #12]
 80015e0:	2b00      	cmp	r3, #0
 80015e2:	f000 808a 	beq.w	80016fa <HAL_RCC_OscConfig+0x1a2>
      {
        /* Enable the Internal High Speed oscillator (HSI). */
        __HAL_RCC_HSI_ENABLE();
 80015e6:	4a84      	ldr	r2, [pc, #528]	; (80017f8 <HAL_RCC_OscConfig+0x2a0>)
 80015e8:	6813      	ldr	r3, [r2, #0]
 80015ea:	f043 0301 	orr.w	r3, r3, #1
 80015ee:	6013      	str	r3, [r2, #0]

        /* Get Start Tick*/
        tickstart = HAL_GetTick();
 80015f0:	f7ff f82a 	bl	8000648 <HAL_GetTick>
 80015f4:	4605      	mov	r5, r0

        /* Wait till HSI is ready */
        while(__HAL_RCC_GET_FLAG(RCC_FLAG_HSIRDY) == RESET)
 80015f6:	4b80      	ldr	r3, [pc, #512]	; (80017f8 <HAL_RCC_OscConfig+0x2a0>)
 80015f8:	681b      	ldr	r3, [r3, #0]
 80015fa:	f013 0f02 	tst.w	r3, #2
 80015fe:	d173      	bne.n	80016e8 <HAL_RCC_OscConfig+0x190>
        {
          if((HAL_GetTick() - tickstart ) > HSI_TIMEOUT_VALUE)
 8001600:	f7ff f822 	bl	8000648 <HAL_GetTick>
 8001604:	1b40      	subs	r0, r0, r5
 8001606:	2802      	cmp	r0, #2
 8001608:	d9f5      	bls.n	80015f6 <HAL_RCC_OscConfig+0x9e>
          {
            return HAL_TIMEOUT;
 800160a:	2003      	movs	r0, #3
 800160c:	e187      	b.n	800191e <HAL_RCC_OscConfig+0x3c6>
      __HAL_RCC_HSE_CONFIG(RCC_OscInitStruct->HSEState);
 800160e:	4a7a      	ldr	r2, [pc, #488]	; (80017f8 <HAL_RCC_OscConfig+0x2a0>)
 8001610:	6813      	ldr	r3, [r2, #0]
 8001612:	f443 3380 	orr.w	r3, r3, #65536	; 0x10000
 8001616:	6013      	str	r3, [r2, #0]
      if(RCC_OscInitStruct->HSEState != RCC_HSE_OFF)
 8001618:	6863      	ldr	r3, [r4, #4]
 800161a:	b32b      	cbz	r3, 8001668 <HAL_RCC_OscConfig+0x110>
        tickstart = HAL_GetTick();
 800161c:	f7ff f814 	bl	8000648 <HAL_GetTick>
 8001620:	4605      	mov	r5, r0
        while(__HAL_RCC_GET_FLAG(RCC_FLAG_HSERDY) == RESET)
 8001622:	4b75      	ldr	r3, [pc, #468]	; (80017f8 <HAL_RCC_OscConfig+0x2a0>)
 8001624:	681b      	ldr	r3, [r3, #0]
 8001626:	f413 3f00 	tst.w	r3, #131072	; 0x20000
 800162a:	d1c9      	bne.n	80015c0 <HAL_RCC_OscConfig+0x68>
          if((HAL_GetTick() - tickstart ) > HSE_TIMEOUT_VALUE)
 800162c:	f7ff f80c 	bl	8000648 <HAL_GetTick>
 8001630:	1b40      	subs	r0, r0, r5
 8001632:	2864      	cmp	r0, #100	; 0x64
 8001634:	d9f5      	bls.n	8001622 <HAL_RCC_OscConfig+0xca>
            return HAL_TIMEOUT;
 8001636:	2003      	movs	r0, #3
 8001638:	e171      	b.n	800191e <HAL_RCC_OscConfig+0x3c6>
      __HAL_RCC_HSE_CONFIG(RCC_OscInitStruct->HSEState);
 800163a:	f5b3 2fa0 	cmp.w	r3, #327680	; 0x50000
 800163e:	d009      	beq.n	8001654 <HAL_RCC_OscConfig+0xfc>
 8001640:	4b6d      	ldr	r3, [pc, #436]	; (80017f8 <HAL_RCC_OscConfig+0x2a0>)
 8001642:	681a      	ldr	r2, [r3, #0]
 8001644:	f422 3280 	bic.w	r2, r2, #65536	; 0x10000
 8001648:	601a      	str	r2, [r3, #0]
 800164a:	681a      	ldr	r2, [r3, #0]
 800164c:	f422 2280 	bic.w	r2, r2, #262144	; 0x40000
 8001650:	601a      	str	r2, [r3, #0]
 8001652:	e7e1      	b.n	8001618 <HAL_RCC_OscConfig+0xc0>
 8001654:	4b68      	ldr	r3, [pc, #416]	; (80017f8 <HAL_RCC_OscConfig+0x2a0>)
 8001656:	681a      	ldr	r2, [r3, #0]
 8001658:	f442 2280 	orr.w	r2, r2, #262144	; 0x40000
 800165c:	601a      	str	r2, [r3, #0]
 800165e:	681a      	ldr	r2, [r3, #0]
 8001660:	f442 3280 	orr.w	r2, r2, #65536	; 0x10000
 8001664:	601a      	str	r2, [r3, #0]
 8001666:	e7d7      	b.n	8001618 <HAL_RCC_OscConfig+0xc0>
        tickstart = HAL_GetTick();
 8001668:	f7fe ffee 	bl	8000648 <HAL_GetTick>
 800166c:	4605      	mov	r5, r0
        while(__HAL_RCC_GET_FLAG(RCC_FLAG_HSERDY) != RESET)
 800166e:	4b62      	ldr	r3, [pc, #392]	; (80017f8 <HAL_RCC_OscConfig+0x2a0>)
 8001670:	681b      	ldr	r3, [r3, #0]
 8001672:	f413 3f00 	tst.w	r3, #131072	; 0x20000
 8001676:	d0a3      	beq.n	80015c0 <HAL_RCC_OscConfig+0x68>
           if((HAL_GetTick() - tickstart ) > HSE_TIMEOUT_VALUE)
 8001678:	f7fe ffe6 	bl	8000648 <HAL_GetTick>
 800167c:	1b40      	subs	r0, r0, r5
 800167e:	2864      	cmp	r0, #100	; 0x64
 8001680:	d9f5      	bls.n	800166e <HAL_RCC_OscConfig+0x116>
            return HAL_TIMEOUT;
 8001682:	2003      	movs	r0, #3
 8001684:	e14b      	b.n	800191e <HAL_RCC_OscConfig+0x3c6>
       || ((__HAL_RCC_GET_SYSCLK_SOURCE() == RCC_SYSCLKSOURCE_STATUS_PLLCLK) && ((RCC->PLLCFGR & RCC_PLLCFGR_PLLSRC) == RCC_PLLCFGR_PLLSRC_HSI)))
 8001686:	4b5c      	ldr	r3, [pc, #368]	; (80017f8 <HAL_RCC_OscConfig+0x2a0>)
 8001688:	685b      	ldr	r3, [r3, #4]
 800168a:	f413 0f80 	tst.w	r3, #4194304	; 0x400000
 800168e:	d1a6      	bne.n	80015de <HAL_RCC_OscConfig+0x86>
      if((__HAL_RCC_GET_FLAG(RCC_FLAG_HSIRDY) != RESET) && (RCC_OscInitStruct->HSIState != RCC_HSI_ON))
 8001690:	4b59      	ldr	r3, [pc, #356]	; (80017f8 <HAL_RCC_OscConfig+0x2a0>)
 8001692:	681b      	ldr	r3, [r3, #0]
 8001694:	f013 0f02 	tst.w	r3, #2
 8001698:	d004      	beq.n	80016a4 <HAL_RCC_OscConfig+0x14c>
 800169a:	68e3      	ldr	r3, [r4, #12]
 800169c:	2b01      	cmp	r3, #1
 800169e:	d001      	beq.n	80016a4 <HAL_RCC_OscConfig+0x14c>
        return HAL_ERROR;
 80016a0:	2001      	movs	r0, #1
 80016a2:	e13c      	b.n	800191e <HAL_RCC_OscConfig+0x3c6>
        __HAL_RCC_HSI_CALIBRATIONVALUE_ADJUST(RCC_OscInitStruct->HSICalibrationValue);
 80016a4:	4a54      	ldr	r2, [pc, #336]	; (80017f8 <HAL_RCC_OscConfig+0x2a0>)
 80016a6:	6813      	ldr	r3, [r2, #0]
 80016a8:	f023 03f8 	bic.w	r3, r3, #248	; 0xf8
 80016ac:	6921      	ldr	r1, [r4, #16]
 80016ae:	ea43 03c1 	orr.w	r3, r3, r1, lsl #3
 80016b2:	6013      	str	r3, [r2, #0]
        }
      }
    }
  }
  /*------------------------------ LSI Configuration -------------------------*/
  if(((RCC_OscInitStruct->OscillatorType) & RCC_OSCILLATORTYPE_LSI) == RCC_OSCILLATORTYPE_LSI)
 80016b4:	6823      	ldr	r3, [r4, #0]
 80016b6:	f013 0f08 	tst.w	r3, #8
 80016ba:	d046      	beq.n	800174a <HAL_RCC_OscConfig+0x1f2>
  {
    /* Check the parameters */
    assert_param(IS_RCC_LSI(RCC_OscInitStruct->LSIState));

    /* Check the LSI State */
    if((RCC_OscInitStruct->LSIState)!= RCC_LSI_OFF)
 80016bc:	6963      	ldr	r3, [r4, #20]
 80016be:	b383      	cbz	r3, 8001722 <HAL_RCC_OscConfig+0x1ca>
    {
      /* Enable the Internal Low Speed oscillator (LSI). */
      __HAL_RCC_LSI_ENABLE();
 80016c0:	4a4d      	ldr	r2, [pc, #308]	; (80017f8 <HAL_RCC_OscConfig+0x2a0>)
 80016c2:	6f53      	ldr	r3, [r2, #116]	; 0x74
 80016c4:	f043 0301 	orr.w	r3, r3, #1
 80016c8:	6753      	str	r3, [r2, #116]	; 0x74

      /* Get Start Tick*/
      tickstart = HAL_GetTick();
 80016ca:	f7fe ffbd 	bl	8000648 <HAL_GetTick>
 80016ce:	4605      	mov	r5, r0

      /* Wait till LSI is ready */
      while(__HAL_RCC_GET_FLAG(RCC_FLAG_LSIRDY) == RESET)
 80016d0:	4b49      	ldr	r3, [pc, #292]	; (80017f8 <HAL_RCC_OscConfig+0x2a0>)
 80016d2:	6f5b      	ldr	r3, [r3, #116]	; 0x74
 80016d4:	f013 0f02 	tst.w	r3, #2
 80016d8:	d137      	bne.n	800174a <HAL_RCC_OscConfig+0x1f2>
      {
        if((HAL_GetTick() - tickstart ) > LSI_TIMEOUT_VALUE)
 80016da:	f7fe ffb5 	bl	8000648 <HAL_GetTick>
 80016de:	1b40      	subs	r0, r0, r5
 80016e0:	2802      	cmp	r0, #2
 80016e2:	d9f5      	bls.n	80016d0 <HAL_RCC_OscConfig+0x178>
        {
          return HAL_TIMEOUT;
 80016e4:	2003      	movs	r0, #3
 80016e6:	e11a      	b.n	800191e <HAL_RCC_OscConfig+0x3c6>
        __HAL_RCC_HSI_CALIBRATIONVALUE_ADJUST(RCC_OscInitStruct->HSICalibrationValue);
 80016e8:	4a43      	ldr	r2, [pc, #268]	; (80017f8 <HAL_RCC_OscConfig+0x2a0>)
 80016ea:	6813      	ldr	r3, [r2, #0]
 80016ec:	f023 03f8 	bic.w	r3, r3, #248	; 0xf8
 80016f0:	6921      	ldr	r1, [r4, #16]
 80016f2:	ea43 03c1 	orr.w	r3, r3, r1, lsl #3
 80016f6:	6013      	str	r3, [r2, #0]
 80016f8:	e7dc      	b.n	80016b4 <HAL_RCC_OscConfig+0x15c>
        __HAL_RCC_HSI_DISABLE();
 80016fa:	4a3f      	ldr	r2, [pc, #252]	; (80017f8 <HAL_RCC_OscConfig+0x2a0>)
 80016fc:	6813      	ldr	r3, [r2, #0]
 80016fe:	f023 0301 	bic.w	r3, r3, #1
 8001702:	6013      	str	r3, [r2, #0]
        tickstart = HAL_GetTick();
 8001704:	f7fe ffa0 	bl	8000648 <HAL_GetTick>
 8001708:	4605      	mov	r5, r0
        while(__HAL_RCC_GET_FLAG(RCC_FLAG_HSIRDY) != RESET)
 800170a:	4b3b      	ldr	r3, [pc, #236]	; (80017f8 <HAL_RCC_OscConfig+0x2a0>)
 800170c:	681b      	ldr	r3, [r3, #0]
 800170e:	f013 0f02 	tst.w	r3, #2
 8001712:	d0cf      	beq.n	80016b4 <HAL_RCC_OscConfig+0x15c>
          if((HAL_GetTick() - tickstart ) > HSI_TIMEOUT_VALUE)
 8001714:	f7fe ff98 	bl	8000648 <HAL_GetTick>
 8001718:	1b40      	subs	r0, r0, r5
 800171a:	2802      	cmp	r0, #2
 800171c:	d9f5      	bls.n	800170a <HAL_RCC_OscConfig+0x1b2>
            return HAL_TIMEOUT;
 800171e:	2003      	movs	r0, #3
 8001720:	e0fd      	b.n	800191e <HAL_RCC_OscConfig+0x3c6>
      }
    }
    else
    {
      /* Disable the Internal Low Speed oscillator (LSI). */
      __HAL_RCC_LSI_DISABLE();
 8001722:	4a35      	ldr	r2, [pc, #212]	; (80017f8 <HAL_RCC_OscConfig+0x2a0>)
 8001724:	6f53      	ldr	r3, [r2, #116]	; 0x74
 8001726:	f023 0301 	bic.w	r3, r3, #1
 800172a:	6753      	str	r3, [r2, #116]	; 0x74

      /* Get Start Tick*/
      tickstart = HAL_GetTick();
 800172c:	f7fe ff8c 	bl	8000648 <HAL_GetTick>
 8001730:	4605      	mov	r5, r0

      /* Wait till LSI is ready */
      while(__HAL_RCC_GET_FLAG(RCC_FLAG_LSIRDY) != RESET)
 8001732:	4b31      	ldr	r3, [pc, #196]	; (80017f8 <HAL_RCC_OscConfig+0x2a0>)
 8001734:	6f5b      	ldr	r3, [r3, #116]	; 0x74
 8001736:	f013 0f02 	tst.w	r3, #2
 800173a:	d006      	beq.n	800174a <HAL_RCC_OscConfig+0x1f2>
      {
        if((HAL_GetTick() - tickstart ) > LSI_TIMEOUT_VALUE)
 800173c:	f7fe ff84 	bl	8000648 <HAL_GetTick>
 8001740:	1b40      	subs	r0, r0, r5
 8001742:	2802      	cmp	r0, #2
 8001744:	d9f5      	bls.n	8001732 <HAL_RCC_OscConfig+0x1da>
        {
          return HAL_TIMEOUT;
 8001746:	2003      	movs	r0, #3
 8001748:	e0e9      	b.n	800191e <HAL_RCC_OscConfig+0x3c6>
        }
      }
    }
  }
  /*------------------------------ LSE Configuration -------------------------*/
  if(((RCC_OscInitStruct->OscillatorType) & RCC_OSCILLATORTYPE_LSE) == RCC_OSCILLATORTYPE_LSE)
 800174a:	6823      	ldr	r3, [r4, #0]
 800174c:	f013 0f04 	tst.w	r3, #4
 8001750:	d07e      	beq.n	8001850 <HAL_RCC_OscConfig+0x2f8>
    /* Check the parameters */
    assert_param(IS_RCC_LSE(RCC_OscInitStruct->LSEState));

    /* Update LSE configuration in Backup Domain control register    */
    /* Requires to enable write access to Backup Domain of necessary */
    if(__HAL_RCC_PWR_IS_CLK_DISABLED())
 8001752:	4b29      	ldr	r3, [pc, #164]	; (80017f8 <HAL_RCC_OscConfig+0x2a0>)
 8001754:	6c1b      	ldr	r3, [r3, #64]	; 0x40
 8001756:	f013 5f80 	tst.w	r3, #268435456	; 0x10000000
 800175a:	d11e      	bne.n	800179a <HAL_RCC_OscConfig+0x242>
    {
      /* Enable Power Clock*/
      __HAL_RCC_PWR_CLK_ENABLE();
 800175c:	4b26      	ldr	r3, [pc, #152]	; (80017f8 <HAL_RCC_OscConfig+0x2a0>)
 800175e:	6c1a      	ldr	r2, [r3, #64]	; 0x40
 8001760:	f042 5280 	orr.w	r2, r2, #268435456	; 0x10000000
 8001764:	641a      	str	r2, [r3, #64]	; 0x40
 8001766:	6c1b      	ldr	r3, [r3, #64]	; 0x40
 8001768:	f003 5380 	and.w	r3, r3, #268435456	; 0x10000000
 800176c:	9301      	str	r3, [sp, #4]
 800176e:	9b01      	ldr	r3, [sp, #4]
      pwrclkchanged = SET;
 8001770:	2501      	movs	r5, #1
    }

    if(HAL_IS_BIT_CLR(PWR->CR1, PWR_CR1_DBP))
 8001772:	4b22      	ldr	r3, [pc, #136]	; (80017fc <HAL_RCC_OscConfig+0x2a4>)
 8001774:	681b      	ldr	r3, [r3, #0]
 8001776:	f413 7f80 	tst.w	r3, #256	; 0x100
 800177a:	d010      	beq.n	800179e <HAL_RCC_OscConfig+0x246>
        }
      }
    }

    /* Set the new LSE configuration -----------------------------------------*/
    __HAL_RCC_LSE_CONFIG(RCC_OscInitStruct->LSEState);
 800177c:	68a3      	ldr	r3, [r4, #8]
 800177e:	2b01      	cmp	r3, #1
 8001780:	d021      	beq.n	80017c6 <HAL_RCC_OscConfig+0x26e>
 8001782:	2b00      	cmp	r3, #0
 8001784:	d13c      	bne.n	8001800 <HAL_RCC_OscConfig+0x2a8>
 8001786:	4b1c      	ldr	r3, [pc, #112]	; (80017f8 <HAL_RCC_OscConfig+0x2a0>)
 8001788:	6f1a      	ldr	r2, [r3, #112]	; 0x70
 800178a:	f022 0201 	bic.w	r2, r2, #1
 800178e:	671a      	str	r2, [r3, #112]	; 0x70
 8001790:	6f1a      	ldr	r2, [r3, #112]	; 0x70
 8001792:	f022 0204 	bic.w	r2, r2, #4
 8001796:	671a      	str	r2, [r3, #112]	; 0x70
 8001798:	e01a      	b.n	80017d0 <HAL_RCC_OscConfig+0x278>
  FlagStatus pwrclkchanged = RESET;
 800179a:	2500      	movs	r5, #0
 800179c:	e7e9      	b.n	8001772 <HAL_RCC_OscConfig+0x21a>
      PWR->CR1 |= PWR_CR1_DBP;
 800179e:	4a17      	ldr	r2, [pc, #92]	; (80017fc <HAL_RCC_OscConfig+0x2a4>)
 80017a0:	6813      	ldr	r3, [r2, #0]
 80017a2:	f443 7380 	orr.w	r3, r3, #256	; 0x100
 80017a6:	6013      	str	r3, [r2, #0]
      tickstart = HAL_GetTick();
 80017a8:	f7fe ff4e 	bl	8000648 <HAL_GetTick>
 80017ac:	4606      	mov	r6, r0
      while(HAL_IS_BIT_CLR(PWR->CR1, PWR_CR1_DBP))
 80017ae:	4b13      	ldr	r3, [pc, #76]	; (80017fc <HAL_RCC_OscConfig+0x2a4>)
 80017b0:	681b      	ldr	r3, [r3, #0]
 80017b2:	f413 7f80 	tst.w	r3, #256	; 0x100
 80017b6:	d1e1      	bne.n	800177c <HAL_RCC_OscConfig+0x224>
        if((HAL_GetTick() - tickstart ) > RCC_DBP_TIMEOUT_VALUE)
 80017b8:	f7fe ff46 	bl	8000648 <HAL_GetTick>
 80017bc:	1b80      	subs	r0, r0, r6
 80017be:	2864      	cmp	r0, #100	; 0x64
 80017c0:	d9f5      	bls.n	80017ae <HAL_RCC_OscConfig+0x256>
          return HAL_TIMEOUT;
 80017c2:	2003      	movs	r0, #3
 80017c4:	e0ab      	b.n	800191e <HAL_RCC_OscConfig+0x3c6>
    __HAL_RCC_LSE_CONFIG(RCC_OscInitStruct->LSEState);
 80017c6:	4a0c      	ldr	r2, [pc, #48]	; (80017f8 <HAL_RCC_OscConfig+0x2a0>)
 80017c8:	6f13      	ldr	r3, [r2, #112]	; 0x70
 80017ca:	f043 0301 	orr.w	r3, r3, #1
 80017ce:	6713      	str	r3, [r2, #112]	; 0x70
    /* Check the LSE State */
    if((RCC_OscInitStruct->LSEState) != RCC_LSE_OFF)
 80017d0:	68a3      	ldr	r3, [r4, #8]
 80017d2:	b35b      	cbz	r3, 800182c <HAL_RCC_OscConfig+0x2d4>
    {
      /* Get Start Tick*/
      tickstart = HAL_GetTick();
 80017d4:	f7fe ff38 	bl	8000648 <HAL_GetTick>
 80017d8:	4606      	mov	r6, r0

      /* Wait till LSE is ready */
      while(__HAL_RCC_GET_FLAG(RCC_FLAG_LSERDY) == RESET)
 80017da:	4b07      	ldr	r3, [pc, #28]	; (80017f8 <HAL_RCC_OscConfig+0x2a0>)
 80017dc:	6f1b      	ldr	r3, [r3, #112]	; 0x70
 80017de:	f013 0f02 	tst.w	r3, #2
 80017e2:	d134      	bne.n	800184e <HAL_RCC_OscConfig+0x2f6>
      {
        if((HAL_GetTick() - tickstart ) > RCC_LSE_TIMEOUT_VALUE)
 80017e4:	f7fe ff30 	bl	8000648 <HAL_GetTick>
 80017e8:	1b80      	subs	r0, r0, r6
 80017ea:	f241 3388 	movw	r3, #5000	; 0x1388
 80017ee:	4298      	cmp	r0, r3
 80017f0:	d9f3      	bls.n	80017da <HAL_RCC_OscConfig+0x282>
        {
          return HAL_TIMEOUT;
 80017f2:	2003      	movs	r0, #3
 80017f4:	e093      	b.n	800191e <HAL_RCC_OscConfig+0x3c6>
 80017f6:	bf00      	nop
 80017f8:	40023800 	.word	0x40023800
 80017fc:	40007000 	.word	0x40007000
    __HAL_RCC_LSE_CONFIG(RCC_OscInitStruct->LSEState);
 8001800:	2b05      	cmp	r3, #5
 8001802:	d009      	beq.n	8001818 <HAL_RCC_OscConfig+0x2c0>
 8001804:	4b48      	ldr	r3, [pc, #288]	; (8001928 <HAL_RCC_OscConfig+0x3d0>)
 8001806:	6f1a      	ldr	r2, [r3, #112]	; 0x70
 8001808:	f022 0201 	bic.w	r2, r2, #1
 800180c:	671a      	str	r2, [r3, #112]	; 0x70
 800180e:	6f1a      	ldr	r2, [r3, #112]	; 0x70
 8001810:	f022 0204 	bic.w	r2, r2, #4
 8001814:	671a      	str	r2, [r3, #112]	; 0x70
 8001816:	e7db      	b.n	80017d0 <HAL_RCC_OscConfig+0x278>
 8001818:	4b43      	ldr	r3, [pc, #268]	; (8001928 <HAL_RCC_OscConfig+0x3d0>)
 800181a:	6f1a      	ldr	r2, [r3, #112]	; 0x70
 800181c:	f042 0204 	orr.w	r2, r2, #4
 8001820:	671a      	str	r2, [r3, #112]	; 0x70
 8001822:	6f1a      	ldr	r2, [r3, #112]	; 0x70
 8001824:	f042 0201 	orr.w	r2, r2, #1
 8001828:	671a      	str	r2, [r3, #112]	; 0x70
 800182a:	e7d1      	b.n	80017d0 <HAL_RCC_OscConfig+0x278>
      }
    }
    else
    {
      /* Get Start Tick*/
      tickstart = HAL_GetTick();
 800182c:	f7fe ff0c 	bl	8000648 <HAL_GetTick>
 8001830:	4606      	mov	r6, r0

      /* Wait till LSE is ready */
      while(__HAL_RCC_GET_FLAG(RCC_FLAG_LSERDY) != RESET)
 8001832:	4b3d      	ldr	r3, [pc, #244]	; (8001928 <HAL_RCC_OscConfig+0x3d0>)
 8001834:	6f1b      	ldr	r3, [r3, #112]	; 0x70
 8001836:	f013 0f02 	tst.w	r3, #2
 800183a:	d008      	beq.n	800184e <HAL_RCC_OscConfig+0x2f6>
      {
        if((HAL_GetTick() - tickstart ) > RCC_LSE_TIMEOUT_VALUE)
 800183c:	f7fe ff04 	bl	8000648 <HAL_GetTick>
 8001840:	1b80      	subs	r0, r0, r6
 8001842:	f241 3388 	movw	r3, #5000	; 0x1388
 8001846:	4298      	cmp	r0, r3
 8001848:	d9f3      	bls.n	8001832 <HAL_RCC_OscConfig+0x2da>
        {
          return HAL_TIMEOUT;
 800184a:	2003      	movs	r0, #3
 800184c:	e067      	b.n	800191e <HAL_RCC_OscConfig+0x3c6>
        }
      }
    }

    /* Restore clock configuration if changed */
    if(pwrclkchanged == SET)
 800184e:	b9f5      	cbnz	r5, 800188e <HAL_RCC_OscConfig+0x336>
    }
  }
  /*-------------------------------- PLL Configuration -----------------------*/
  /* Check the parameters */
  assert_param(IS_RCC_PLL(RCC_OscInitStruct->PLL.PLLState));
  if ((RCC_OscInitStruct->PLL.PLLState) != RCC_PLL_NONE)
 8001850:	69a3      	ldr	r3, [r4, #24]
 8001852:	2b00      	cmp	r3, #0
 8001854:	d062      	beq.n	800191c <HAL_RCC_OscConfig+0x3c4>
  {
    /* Check if the PLL is used as system clock or not */
    if(__HAL_RCC_GET_SYSCLK_SOURCE() != RCC_SYSCLKSOURCE_STATUS_PLLCLK)
 8001856:	4a34      	ldr	r2, [pc, #208]	; (8001928 <HAL_RCC_OscConfig+0x3d0>)
 8001858:	6892      	ldr	r2, [r2, #8]
 800185a:	f002 020c 	and.w	r2, r2, #12
 800185e:	2a08      	cmp	r2, #8
 8001860:	d05f      	beq.n	8001922 <HAL_RCC_OscConfig+0x3ca>
    {
      if((RCC_OscInitStruct->PLL.PLLState) == RCC_PLL_ON)
 8001862:	2b02      	cmp	r3, #2
 8001864:	d019      	beq.n	800189a <HAL_RCC_OscConfig+0x342>
        }
      }
      else
      {
        /* Disable the main PLL. */
        __HAL_RCC_PLL_DISABLE();
 8001866:	4a30      	ldr	r2, [pc, #192]	; (8001928 <HAL_RCC_OscConfig+0x3d0>)
 8001868:	6813      	ldr	r3, [r2, #0]
 800186a:	f023 7380 	bic.w	r3, r3, #16777216	; 0x1000000
 800186e:	6013      	str	r3, [r2, #0]

        /* Get Start Tick*/
        tickstart = HAL_GetTick();
 8001870:	f7fe feea 	bl	8000648 <HAL_GetTick>
 8001874:	4604      	mov	r4, r0

        /* Wait till PLL is ready */
        while(__HAL_RCC_GET_FLAG(RCC_FLAG_PLLRDY) != RESET)
 8001876:	4b2c      	ldr	r3, [pc, #176]	; (8001928 <HAL_RCC_OscConfig+0x3d0>)
 8001878:	681b      	ldr	r3, [r3, #0]
 800187a:	f013 7f00 	tst.w	r3, #33554432	; 0x2000000
 800187e:	d047      	beq.n	8001910 <HAL_RCC_OscConfig+0x3b8>
        {
          if((HAL_GetTick() - tickstart ) > PLL_TIMEOUT_VALUE)
 8001880:	f7fe fee2 	bl	8000648 <HAL_GetTick>
 8001884:	1b00      	subs	r0, r0, r4
 8001886:	2802      	cmp	r0, #2
 8001888:	d9f5      	bls.n	8001876 <HAL_RCC_OscConfig+0x31e>
          {
            return HAL_TIMEOUT;
 800188a:	2003      	movs	r0, #3
 800188c:	e047      	b.n	800191e <HAL_RCC_OscConfig+0x3c6>
      __HAL_RCC_PWR_CLK_DISABLE();
 800188e:	4a26      	ldr	r2, [pc, #152]	; (8001928 <HAL_RCC_OscConfig+0x3d0>)
 8001890:	6c13      	ldr	r3, [r2, #64]	; 0x40
 8001892:	f023 5380 	bic.w	r3, r3, #268435456	; 0x10000000
 8001896:	6413      	str	r3, [r2, #64]	; 0x40
 8001898:	e7da      	b.n	8001850 <HAL_RCC_OscConfig+0x2f8>
        __HAL_RCC_PLL_DISABLE();
 800189a:	4a23      	ldr	r2, [pc, #140]	; (8001928 <HAL_RCC_OscConfig+0x3d0>)
 800189c:	6813      	ldr	r3, [r2, #0]
 800189e:	f023 7380 	bic.w	r3, r3, #16777216	; 0x1000000
 80018a2:	6013      	str	r3, [r2, #0]
        tickstart = HAL_GetTick();
 80018a4:	f7fe fed0 	bl	8000648 <HAL_GetTick>
 80018a8:	4605      	mov	r5, r0
        while(__HAL_RCC_GET_FLAG(RCC_FLAG_PLLRDY) != RESET)
 80018aa:	4b1f      	ldr	r3, [pc, #124]	; (8001928 <HAL_RCC_OscConfig+0x3d0>)
 80018ac:	681b      	ldr	r3, [r3, #0]
 80018ae:	f013 7f00 	tst.w	r3, #33554432	; 0x2000000
 80018b2:	d006      	beq.n	80018c2 <HAL_RCC_OscConfig+0x36a>
          if((HAL_GetTick() - tickstart ) > PLL_TIMEOUT_VALUE)
 80018b4:	f7fe fec8 	bl	8000648 <HAL_GetTick>
 80018b8:	1b40      	subs	r0, r0, r5
 80018ba:	2802      	cmp	r0, #2
 80018bc:	d9f5      	bls.n	80018aa <HAL_RCC_OscConfig+0x352>
            return HAL_TIMEOUT;
 80018be:	2003      	movs	r0, #3
 80018c0:	e02d      	b.n	800191e <HAL_RCC_OscConfig+0x3c6>
        __HAL_RCC_PLL_CONFIG(RCC_OscInitStruct->PLL.PLLSource,
 80018c2:	69e3      	ldr	r3, [r4, #28]
 80018c4:	6a22      	ldr	r2, [r4, #32]
 80018c6:	4313      	orrs	r3, r2
 80018c8:	6a62      	ldr	r2, [r4, #36]	; 0x24
 80018ca:	ea43 1382 	orr.w	r3, r3, r2, lsl #6
 80018ce:	6aa2      	ldr	r2, [r4, #40]	; 0x28
 80018d0:	0852      	lsrs	r2, r2, #1
 80018d2:	3a01      	subs	r2, #1
 80018d4:	ea43 4302 	orr.w	r3, r3, r2, lsl #16
 80018d8:	6ae2      	ldr	r2, [r4, #44]	; 0x2c
 80018da:	ea43 6302 	orr.w	r3, r3, r2, lsl #24
 80018de:	f043 5300 	orr.w	r3, r3, #536870912	; 0x20000000
 80018e2:	4a11      	ldr	r2, [pc, #68]	; (8001928 <HAL_RCC_OscConfig+0x3d0>)
 80018e4:	6053      	str	r3, [r2, #4]
        __HAL_RCC_PLL_ENABLE();
 80018e6:	6813      	ldr	r3, [r2, #0]
 80018e8:	f043 7380 	orr.w	r3, r3, #16777216	; 0x1000000
 80018ec:	6013      	str	r3, [r2, #0]
        tickstart = HAL_GetTick();
 80018ee:	f7fe feab 	bl	8000648 <HAL_GetTick>
 80018f2:	4604      	mov	r4, r0
        while(__HAL_RCC_GET_FLAG(RCC_FLAG_PLLRDY) == RESET)
 80018f4:	4b0c      	ldr	r3, [pc, #48]	; (8001928 <HAL_RCC_OscConfig+0x3d0>)
 80018f6:	681b      	ldr	r3, [r3, #0]
 80018f8:	f013 7f00 	tst.w	r3, #33554432	; 0x2000000
 80018fc:	d106      	bne.n	800190c <HAL_RCC_OscConfig+0x3b4>
          if((HAL_GetTick() - tickstart ) > PLL_TIMEOUT_VALUE)
 80018fe:	f7fe fea3 	bl	8000648 <HAL_GetTick>
 8001902:	1b00      	subs	r0, r0, r4
 8001904:	2802      	cmp	r0, #2
 8001906:	d9f5      	bls.n	80018f4 <HAL_RCC_OscConfig+0x39c>
            return HAL_TIMEOUT;
 8001908:	2003      	movs	r0, #3
 800190a:	e008      	b.n	800191e <HAL_RCC_OscConfig+0x3c6>
    else
    {
      return HAL_ERROR;
    }
  }
  return HAL_OK;
 800190c:	2000      	movs	r0, #0
 800190e:	e006      	b.n	800191e <HAL_RCC_OscConfig+0x3c6>
 8001910:	2000      	movs	r0, #0
 8001912:	e004      	b.n	800191e <HAL_RCC_OscConfig+0x3c6>
    return HAL_ERROR;
 8001914:	2001      	movs	r0, #1
}
 8001916:	4770      	bx	lr
        return HAL_ERROR;
 8001918:	2001      	movs	r0, #1
 800191a:	e000      	b.n	800191e <HAL_RCC_OscConfig+0x3c6>
  return HAL_OK;
 800191c:	2000      	movs	r0, #0
}
 800191e:	b002      	add	sp, #8
 8001920:	bd70      	pop	{r4, r5, r6, pc}
      return HAL_ERROR;
 8001922:	2001      	movs	r0, #1
 8001924:	e7fb      	b.n	800191e <HAL_RCC_OscConfig+0x3c6>
 8001926:	bf00      	nop
 8001928:	40023800 	.word	0x40023800

0800192c <HAL_RCC_GetSysClockFreq>:
{
  uint32_t pllm = 0, pllvco = 0, pllp = 0;
  uint32_t sysclockfreq = 0;

  /* Get SYSCLK source -------------------------------------------------------*/
  switch (RCC->CFGR & RCC_CFGR_SWS)
 800192c:	4b32      	ldr	r3, [pc, #200]	; (80019f8 <HAL_RCC_GetSysClockFreq+0xcc>)
 800192e:	689b      	ldr	r3, [r3, #8]
 8001930:	f003 030c 	and.w	r3, r3, #12
 8001934:	2b04      	cmp	r3, #4
 8001936:	d05c      	beq.n	80019f2 <HAL_RCC_GetSysClockFreq+0xc6>
 8001938:	2b08      	cmp	r3, #8
 800193a:	d001      	beq.n	8001940 <HAL_RCC_GetSysClockFreq+0x14>
  {
    case RCC_SYSCLKSOURCE_STATUS_HSI:  /* HSI used as system clock source */
    {
      sysclockfreq = HSI_VALUE;
 800193c:	482f      	ldr	r0, [pc, #188]	; (80019fc <HAL_RCC_GetSysClockFreq+0xd0>)
 800193e:	4770      	bx	lr
{
 8001940:	e92d 4bf0 	stmdb	sp!, {r4, r5, r6, r7, r8, r9, fp, lr}
    }
    case RCC_SYSCLKSOURCE_STATUS_PLLCLK:  /* PLL used as system clock  source */
    {
      /* PLL_VCO = (HSE_VALUE or HSI_VALUE / PLLM) * PLLN
      SYSCLK = PLL_VCO / PLLP */
      pllm = RCC->PLLCFGR & RCC_PLLCFGR_PLLM;
 8001944:	4b2c      	ldr	r3, [pc, #176]	; (80019f8 <HAL_RCC_GetSysClockFreq+0xcc>)
 8001946:	685a      	ldr	r2, [r3, #4]
 8001948:	f002 023f 	and.w	r2, r2, #63	; 0x3f
      if (__HAL_RCC_GET_PLL_OSCSOURCE() != RCC_PLLCFGR_PLLSRC_HSI)
 800194c:	685b      	ldr	r3, [r3, #4]
 800194e:	f413 0f80 	tst.w	r3, #4194304	; 0x400000
 8001952:	d02b      	beq.n	80019ac <HAL_RCC_GetSysClockFreq+0x80>
      {
        /* HSE used as PLL clock source */
        pllvco = (uint32_t) ((((uint64_t) HSE_VALUE * ((uint64_t) ((RCC->PLLCFGR & RCC_PLLCFGR_PLLN) >> RCC_PLLCFGR_PLLN_Pos)))) / (uint64_t)pllm);
 8001954:	4b28      	ldr	r3, [pc, #160]	; (80019f8 <HAL_RCC_GetSysClockFreq+0xcc>)
 8001956:	685b      	ldr	r3, [r3, #4]
 8001958:	f3c3 1388 	ubfx	r3, r3, #6, #9
 800195c:	461e      	mov	r6, r3
 800195e:	2700      	movs	r7, #0
 8001960:	015c      	lsls	r4, r3, #5
 8001962:	2500      	movs	r5, #0
 8001964:	1ae4      	subs	r4, r4, r3
 8001966:	eb65 0507 	sbc.w	r5, r5, r7
 800196a:	01a9      	lsls	r1, r5, #6
 800196c:	ea41 6194 	orr.w	r1, r1, r4, lsr #26
 8001970:	01a0      	lsls	r0, r4, #6
 8001972:	1b00      	subs	r0, r0, r4
 8001974:	eb61 0105 	sbc.w	r1, r1, r5
 8001978:	00cb      	lsls	r3, r1, #3
 800197a:	ea43 7350 	orr.w	r3, r3, r0, lsr #29
 800197e:	00c4      	lsls	r4, r0, #3
 8001980:	19a0      	adds	r0, r4, r6
 8001982:	eb43 0107 	adc.w	r1, r3, r7
 8001986:	024b      	lsls	r3, r1, #9
 8001988:	ea43 53d0 	orr.w	r3, r3, r0, lsr #23
 800198c:	0244      	lsls	r4, r0, #9
 800198e:	4620      	mov	r0, r4
 8001990:	4619      	mov	r1, r3
 8001992:	2300      	movs	r3, #0
 8001994:	f7fe fc9c 	bl	80002d0 <__aeabi_uldivmod>
      else
      {
        /* HSI used as PLL clock source */
        pllvco = (uint32_t) ((((uint64_t) HSI_VALUE * ((uint64_t) ((RCC->PLLCFGR & RCC_PLLCFGR_PLLN) >> RCC_PLLCFGR_PLLN_Pos)))) / (uint64_t)pllm);
      }
      pllp = ((((RCC->PLLCFGR & RCC_PLLCFGR_PLLP) >> RCC_PLLCFGR_PLLP_Pos) + 1 ) *2);
 8001998:	4b17      	ldr	r3, [pc, #92]	; (80019f8 <HAL_RCC_GetSysClockFreq+0xcc>)
 800199a:	685b      	ldr	r3, [r3, #4]
 800199c:	f3c3 4301 	ubfx	r3, r3, #16, #2
 80019a0:	3301      	adds	r3, #1
 80019a2:	005b      	lsls	r3, r3, #1

      sysclockfreq = pllvco/pllp;
 80019a4:	fbb0 f0f3 	udiv	r0, r0, r3
      sysclockfreq = HSI_VALUE;
      break;
    }
  }
  return sysclockfreq;
}
 80019a8:	e8bd 8bf0 	ldmia.w	sp!, {r4, r5, r6, r7, r8, r9, fp, pc}
        pllvco = (uint32_t) ((((uint64_t) HSI_VALUE * ((uint64_t) ((RCC->PLLCFGR & RCC_PLLCFGR_PLLN) >> RCC_PLLCFGR_PLLN_Pos)))) / (uint64_t)pllm);
 80019ac:	4b12      	ldr	r3, [pc, #72]	; (80019f8 <HAL_RCC_GetSysClockFreq+0xcc>)
 80019ae:	685b      	ldr	r3, [r3, #4]
 80019b0:	f3c3 1388 	ubfx	r3, r3, #6, #9
 80019b4:	461e      	mov	r6, r3
 80019b6:	2700      	movs	r7, #0
 80019b8:	015c      	lsls	r4, r3, #5
 80019ba:	2500      	movs	r5, #0
 80019bc:	1ae4      	subs	r4, r4, r3
 80019be:	eb65 0507 	sbc.w	r5, r5, r7
 80019c2:	01a9      	lsls	r1, r5, #6
 80019c4:	ea41 6194 	orr.w	r1, r1, r4, lsr #26
 80019c8:	01a0      	lsls	r0, r4, #6
 80019ca:	1b00      	subs	r0, r0, r4
 80019cc:	eb61 0105 	sbc.w	r1, r1, r5
 80019d0:	00cb      	lsls	r3, r1, #3
 80019d2:	ea43 7350 	orr.w	r3, r3, r0, lsr #29
 80019d6:	00c4      	lsls	r4, r0, #3
 80019d8:	19a0      	adds	r0, r4, r6
 80019da:	eb43 0107 	adc.w	r1, r3, r7
 80019de:	028b      	lsls	r3, r1, #10
 80019e0:	ea43 5390 	orr.w	r3, r3, r0, lsr #22
 80019e4:	0284      	lsls	r4, r0, #10
 80019e6:	4620      	mov	r0, r4
 80019e8:	4619      	mov	r1, r3
 80019ea:	2300      	movs	r3, #0
 80019ec:	f7fe fc70 	bl	80002d0 <__aeabi_uldivmod>
 80019f0:	e7d2      	b.n	8001998 <HAL_RCC_GetSysClockFreq+0x6c>
      sysclockfreq = HSE_VALUE;
 80019f2:	4803      	ldr	r0, [pc, #12]	; (8001a00 <HAL_RCC_GetSysClockFreq+0xd4>)
}
 80019f4:	4770      	bx	lr
 80019f6:	bf00      	nop
 80019f8:	40023800 	.word	0x40023800
 80019fc:	00f42400 	.word	0x00f42400
 8001a00:	007a1200 	.word	0x007a1200

08001a04 <HAL_RCC_ClockConfig>:
  if(RCC_ClkInitStruct == NULL)
 8001a04:	2800      	cmp	r0, #0
 8001a06:	f000 80a2 	beq.w	8001b4e <HAL_RCC_ClockConfig+0x14a>
{
 8001a0a:	b570      	push	{r4, r5, r6, lr}
 8001a0c:	4604      	mov	r4, r0
  if(FLatency > __HAL_FLASH_GET_LATENCY())
 8001a0e:	4b52      	ldr	r3, [pc, #328]	; (8001b58 <HAL_RCC_ClockConfig+0x154>)
 8001a10:	681b      	ldr	r3, [r3, #0]
 8001a12:	f003 030f 	and.w	r3, r3, #15
 8001a16:	428b      	cmp	r3, r1
 8001a18:	d20c      	bcs.n	8001a34 <HAL_RCC_ClockConfig+0x30>
    __HAL_FLASH_SET_LATENCY(FLatency);
 8001a1a:	4a4f      	ldr	r2, [pc, #316]	; (8001b58 <HAL_RCC_ClockConfig+0x154>)
 8001a1c:	6813      	ldr	r3, [r2, #0]
 8001a1e:	f023 030f 	bic.w	r3, r3, #15
 8001a22:	430b      	orrs	r3, r1
 8001a24:	6013      	str	r3, [r2, #0]
    if(__HAL_FLASH_GET_LATENCY() != FLatency)
 8001a26:	6813      	ldr	r3, [r2, #0]
 8001a28:	f003 030f 	and.w	r3, r3, #15
 8001a2c:	428b      	cmp	r3, r1
 8001a2e:	d001      	beq.n	8001a34 <HAL_RCC_ClockConfig+0x30>
      return HAL_ERROR;
 8001a30:	2001      	movs	r0, #1
}
 8001a32:	bd70      	pop	{r4, r5, r6, pc}
  if(((RCC_ClkInitStruct->ClockType) & RCC_CLOCKTYPE_HCLK) == RCC_CLOCKTYPE_HCLK)
 8001a34:	6823      	ldr	r3, [r4, #0]
 8001a36:	f013 0f02 	tst.w	r3, #2
 8001a3a:	d017      	beq.n	8001a6c <HAL_RCC_ClockConfig+0x68>
    if(((RCC_ClkInitStruct->ClockType) & RCC_CLOCKTYPE_PCLK1) == RCC_CLOCKTYPE_PCLK1)
 8001a3c:	f013 0f04 	tst.w	r3, #4
 8001a40:	d004      	beq.n	8001a4c <HAL_RCC_ClockConfig+0x48>
      MODIFY_REG(RCC->CFGR, RCC_CFGR_PPRE1, RCC_HCLK_DIV16);
 8001a42:	4a46      	ldr	r2, [pc, #280]	; (8001b5c <HAL_RCC_ClockConfig+0x158>)
 8001a44:	6893      	ldr	r3, [r2, #8]
 8001a46:	f443 53e0 	orr.w	r3, r3, #7168	; 0x1c00
 8001a4a:	6093      	str	r3, [r2, #8]
    if(((RCC_ClkInitStruct->ClockType) & RCC_CLOCKTYPE_PCLK2) == RCC_CLOCKTYPE_PCLK2)
 8001a4c:	6823      	ldr	r3, [r4, #0]
 8001a4e:	f013 0f08 	tst.w	r3, #8
 8001a52:	d004      	beq.n	8001a5e <HAL_RCC_ClockConfig+0x5a>
      MODIFY_REG(RCC->CFGR, RCC_CFGR_PPRE2, (RCC_HCLK_DIV16 << 3));
 8001a54:	4a41      	ldr	r2, [pc, #260]	; (8001b5c <HAL_RCC_ClockConfig+0x158>)
 8001a56:	6893      	ldr	r3, [r2, #8]
 8001a58:	f443 4360 	orr.w	r3, r3, #57344	; 0xe000
 8001a5c:	6093      	str	r3, [r2, #8]
    MODIFY_REG(RCC->CFGR, RCC_CFGR_HPRE, RCC_ClkInitStruct->AHBCLKDivider);
 8001a5e:	4a3f      	ldr	r2, [pc, #252]	; (8001b5c <HAL_RCC_ClockConfig+0x158>)
 8001a60:	6893      	ldr	r3, [r2, #8]
 8001a62:	f023 03f0 	bic.w	r3, r3, #240	; 0xf0
 8001a66:	68a0      	ldr	r0, [r4, #8]
 8001a68:	4303      	orrs	r3, r0
 8001a6a:	6093      	str	r3, [r2, #8]
 8001a6c:	460d      	mov	r5, r1
  if(((RCC_ClkInitStruct->ClockType) & RCC_CLOCKTYPE_SYSCLK) == RCC_CLOCKTYPE_SYSCLK)
 8001a6e:	6823      	ldr	r3, [r4, #0]
 8001a70:	f013 0f01 	tst.w	r3, #1
 8001a74:	d031      	beq.n	8001ada <HAL_RCC_ClockConfig+0xd6>
    if(RCC_ClkInitStruct->SYSCLKSource == RCC_SYSCLKSOURCE_HSE)
 8001a76:	6863      	ldr	r3, [r4, #4]
 8001a78:	2b01      	cmp	r3, #1
 8001a7a:	d020      	beq.n	8001abe <HAL_RCC_ClockConfig+0xba>
    else if(RCC_ClkInitStruct->SYSCLKSource == RCC_SYSCLKSOURCE_PLLCLK)
 8001a7c:	2b02      	cmp	r3, #2
 8001a7e:	d025      	beq.n	8001acc <HAL_RCC_ClockConfig+0xc8>
      if(__HAL_RCC_GET_FLAG(RCC_FLAG_HSIRDY) == RESET)
 8001a80:	4a36      	ldr	r2, [pc, #216]	; (8001b5c <HAL_RCC_ClockConfig+0x158>)
 8001a82:	6812      	ldr	r2, [r2, #0]
 8001a84:	f012 0f02 	tst.w	r2, #2
 8001a88:	d063      	beq.n	8001b52 <HAL_RCC_ClockConfig+0x14e>
    __HAL_RCC_SYSCLK_CONFIG(RCC_ClkInitStruct->SYSCLKSource);
 8001a8a:	4934      	ldr	r1, [pc, #208]	; (8001b5c <HAL_RCC_ClockConfig+0x158>)
 8001a8c:	688a      	ldr	r2, [r1, #8]
 8001a8e:	f022 0203 	bic.w	r2, r2, #3
 8001a92:	4313      	orrs	r3, r2
 8001a94:	608b      	str	r3, [r1, #8]
    tickstart = HAL_GetTick();
 8001a96:	f7fe fdd7 	bl	8000648 <HAL_GetTick>
 8001a9a:	4606      	mov	r6, r0
    while (__HAL_RCC_GET_SYSCLK_SOURCE() != (RCC_ClkInitStruct->SYSCLKSource << RCC_CFGR_SWS_Pos))
 8001a9c:	4b2f      	ldr	r3, [pc, #188]	; (8001b5c <HAL_RCC_ClockConfig+0x158>)
 8001a9e:	689b      	ldr	r3, [r3, #8]
 8001aa0:	f003 030c 	and.w	r3, r3, #12
 8001aa4:	6862      	ldr	r2, [r4, #4]
 8001aa6:	ebb3 0f82 	cmp.w	r3, r2, lsl #2
 8001aaa:	d016      	beq.n	8001ada <HAL_RCC_ClockConfig+0xd6>
      if ((HAL_GetTick() - tickstart) > CLOCKSWITCH_TIMEOUT_VALUE)
 8001aac:	f7fe fdcc 	bl	8000648 <HAL_GetTick>
 8001ab0:	1b80      	subs	r0, r0, r6
 8001ab2:	f241 3388 	movw	r3, #5000	; 0x1388
 8001ab6:	4298      	cmp	r0, r3
 8001ab8:	d9f0      	bls.n	8001a9c <HAL_RCC_ClockConfig+0x98>
        return HAL_TIMEOUT;
 8001aba:	2003      	movs	r0, #3
 8001abc:	e7b9      	b.n	8001a32 <HAL_RCC_ClockConfig+0x2e>
      if(__HAL_RCC_GET_FLAG(RCC_FLAG_HSERDY) == RESET)
 8001abe:	4a27      	ldr	r2, [pc, #156]	; (8001b5c <HAL_RCC_ClockConfig+0x158>)
 8001ac0:	6812      	ldr	r2, [r2, #0]
 8001ac2:	f412 3f00 	tst.w	r2, #131072	; 0x20000
 8001ac6:	d1e0      	bne.n	8001a8a <HAL_RCC_ClockConfig+0x86>
        return HAL_ERROR;
 8001ac8:	2001      	movs	r0, #1
 8001aca:	e7b2      	b.n	8001a32 <HAL_RCC_ClockConfig+0x2e>
      if(__HAL_RCC_GET_FLAG(RCC_FLAG_PLLRDY) == RESET)
 8001acc:	4a23      	ldr	r2, [pc, #140]	; (8001b5c <HAL_RCC_ClockConfig+0x158>)
 8001ace:	6812      	ldr	r2, [r2, #0]
 8001ad0:	f012 7f00 	tst.w	r2, #33554432	; 0x2000000
 8001ad4:	d1d9      	bne.n	8001a8a <HAL_RCC_ClockConfig+0x86>
        return HAL_ERROR;
 8001ad6:	2001      	movs	r0, #1
 8001ad8:	e7ab      	b.n	8001a32 <HAL_RCC_ClockConfig+0x2e>
  if(FLatency < __HAL_FLASH_GET_LATENCY())
 8001ada:	4b1f      	ldr	r3, [pc, #124]	; (8001b58 <HAL_RCC_ClockConfig+0x154>)
 8001adc:	681b      	ldr	r3, [r3, #0]
 8001ade:	f003 030f 	and.w	r3, r3, #15
 8001ae2:	42ab      	cmp	r3, r5
 8001ae4:	d90c      	bls.n	8001b00 <HAL_RCC_ClockConfig+0xfc>
    __HAL_FLASH_SET_LATENCY(FLatency);
 8001ae6:	4a1c      	ldr	r2, [pc, #112]	; (8001b58 <HAL_RCC_ClockConfig+0x154>)
 8001ae8:	6813      	ldr	r3, [r2, #0]
 8001aea:	f023 030f 	bic.w	r3, r3, #15
 8001aee:	432b      	orrs	r3, r5
 8001af0:	6013      	str	r3, [r2, #0]
    if(__HAL_FLASH_GET_LATENCY() != FLatency)
 8001af2:	6813      	ldr	r3, [r2, #0]
 8001af4:	f003 030f 	and.w	r3, r3, #15
 8001af8:	42ab      	cmp	r3, r5
 8001afa:	d001      	beq.n	8001b00 <HAL_RCC_ClockConfig+0xfc>
      return HAL_ERROR;
 8001afc:	2001      	movs	r0, #1
 8001afe:	e798      	b.n	8001a32 <HAL_RCC_ClockConfig+0x2e>
  if(((RCC_ClkInitStruct->ClockType) & RCC_CLOCKTYPE_PCLK1) == RCC_CLOCKTYPE_PCLK1)
 8001b00:	6823      	ldr	r3, [r4, #0]
 8001b02:	f013 0f04 	tst.w	r3, #4
 8001b06:	d006      	beq.n	8001b16 <HAL_RCC_ClockConfig+0x112>
    MODIFY_REG(RCC->CFGR, RCC_CFGR_PPRE1, RCC_ClkInitStruct->APB1CLKDivider);
 8001b08:	4a14      	ldr	r2, [pc, #80]	; (8001b5c <HAL_RCC_ClockConfig+0x158>)
 8001b0a:	6893      	ldr	r3, [r2, #8]
 8001b0c:	f423 53e0 	bic.w	r3, r3, #7168	; 0x1c00
 8001b10:	68e1      	ldr	r1, [r4, #12]
 8001b12:	430b      	orrs	r3, r1
 8001b14:	6093      	str	r3, [r2, #8]
  if(((RCC_ClkInitStruct->ClockType) & RCC_CLOCKTYPE_PCLK2) == RCC_CLOCKTYPE_PCLK2)
 8001b16:	6823      	ldr	r3, [r4, #0]
 8001b18:	f013 0f08 	tst.w	r3, #8
 8001b1c:	d007      	beq.n	8001b2e <HAL_RCC_ClockConfig+0x12a>
    MODIFY_REG(RCC->CFGR, RCC_CFGR_PPRE2, ((RCC_ClkInitStruct->APB2CLKDivider) << 3));
 8001b1e:	4a0f      	ldr	r2, [pc, #60]	; (8001b5c <HAL_RCC_ClockConfig+0x158>)
 8001b20:	6893      	ldr	r3, [r2, #8]
 8001b22:	f423 4360 	bic.w	r3, r3, #57344	; 0xe000
 8001b26:	6921      	ldr	r1, [r4, #16]
 8001b28:	ea43 03c1 	orr.w	r3, r3, r1, lsl #3
 8001b2c:	6093      	str	r3, [r2, #8]
  SystemCoreClock = HAL_RCC_GetSysClockFreq() >> AHBPrescTable[(RCC->CFGR & RCC_CFGR_HPRE)>> RCC_CFGR_HPRE_Pos];
 8001b2e:	f7ff fefd 	bl	800192c <HAL_RCC_GetSysClockFreq>
 8001b32:	4b0a      	ldr	r3, [pc, #40]	; (8001b5c <HAL_RCC_ClockConfig+0x158>)
 8001b34:	689b      	ldr	r3, [r3, #8]
 8001b36:	f3c3 1303 	ubfx	r3, r3, #4, #4
 8001b3a:	4a09      	ldr	r2, [pc, #36]	; (8001b60 <HAL_RCC_ClockConfig+0x15c>)
 8001b3c:	5cd3      	ldrb	r3, [r2, r3]
 8001b3e:	40d8      	lsrs	r0, r3
 8001b40:	4b08      	ldr	r3, [pc, #32]	; (8001b64 <HAL_RCC_ClockConfig+0x160>)
 8001b42:	6018      	str	r0, [r3, #0]
  HAL_InitTick (TICK_INT_PRIORITY);
 8001b44:	2000      	movs	r0, #0
 8001b46:	f7fe fd43 	bl	80005d0 <HAL_InitTick>
  return HAL_OK;
 8001b4a:	2000      	movs	r0, #0
 8001b4c:	e771      	b.n	8001a32 <HAL_RCC_ClockConfig+0x2e>
    return HAL_ERROR;
 8001b4e:	2001      	movs	r0, #1
}
 8001b50:	4770      	bx	lr
        return HAL_ERROR;
 8001b52:	2001      	movs	r0, #1
 8001b54:	e76d      	b.n	8001a32 <HAL_RCC_ClockConfig+0x2e>
 8001b56:	bf00      	nop
 8001b58:	40023c00 	.word	0x40023c00
 8001b5c:	40023800 	.word	0x40023800
 8001b60:	08005050 	.word	0x08005050
 8001b64:	20000118 	.word	0x20000118

08001b68 <HAL_RCC_GetHCLKFreq>:
  * @retval HCLK frequency
  */
uint32_t HAL_RCC_GetHCLKFreq(void)
{
  return SystemCoreClock;
}
 8001b68:	4b01      	ldr	r3, [pc, #4]	; (8001b70 <HAL_RCC_GetHCLKFreq+0x8>)
 8001b6a:	6818      	ldr	r0, [r3, #0]
 8001b6c:	4770      	bx	lr
 8001b6e:	bf00      	nop
 8001b70:	20000118 	.word	0x20000118

08001b74 <HAL_RCC_GetPCLK1Freq>:
  * @note   Each time PCLK1 changes, this function must be called to update the
  *         right PCLK1 value. Otherwise, any configuration based on this function will be incorrect.
  * @retval PCLK1 frequency
  */
uint32_t HAL_RCC_GetPCLK1Freq(void)
{
 8001b74:	b508      	push	{r3, lr}
  /* Get HCLK source and Compute PCLK1 frequency ---------------------------*/
  return (HAL_RCC_GetHCLKFreq() >> APBPrescTable[(RCC->CFGR & RCC_CFGR_PPRE1)>> RCC_CFGR_PPRE1_Pos]);
 8001b76:	f7ff fff7 	bl	8001b68 <HAL_RCC_GetHCLKFreq>
 8001b7a:	4b04      	ldr	r3, [pc, #16]	; (8001b8c <HAL_RCC_GetPCLK1Freq+0x18>)
 8001b7c:	689b      	ldr	r3, [r3, #8]
 8001b7e:	f3c3 2382 	ubfx	r3, r3, #10, #3
 8001b82:	4a03      	ldr	r2, [pc, #12]	; (8001b90 <HAL_RCC_GetPCLK1Freq+0x1c>)
 8001b84:	5cd3      	ldrb	r3, [r2, r3]
}
 8001b86:	40d8      	lsrs	r0, r3
 8001b88:	bd08      	pop	{r3, pc}
 8001b8a:	bf00      	nop
 8001b8c:	40023800 	.word	0x40023800
 8001b90:	08005060 	.word	0x08005060

08001b94 <HAL_RCC_GetPCLK2Freq>:
  * @note   Each time PCLK2 changes, this function must be called to update the
  *         right PCLK2 value. Otherwise, any configuration based on this function will be incorrect.
  * @retval PCLK2 frequency
  */
uint32_t HAL_RCC_GetPCLK2Freq(void)
{
 8001b94:	b508      	push	{r3, lr}
  /* Get HCLK source and Compute PCLK2 frequency ---------------------------*/
  return (HAL_RCC_GetHCLKFreq()>> APBPrescTable[(RCC->CFGR & RCC_CFGR_PPRE2)>> RCC_CFGR_PPRE2_Pos]);
 8001b96:	f7ff ffe7 	bl	8001b68 <HAL_RCC_GetHCLKFreq>
 8001b9a:	4b04      	ldr	r3, [pc, #16]	; (8001bac <HAL_RCC_GetPCLK2Freq+0x18>)
 8001b9c:	689b      	ldr	r3, [r3, #8]
 8001b9e:	f3c3 3342 	ubfx	r3, r3, #13, #3
 8001ba2:	4a03      	ldr	r2, [pc, #12]	; (8001bb0 <HAL_RCC_GetPCLK2Freq+0x1c>)
 8001ba4:	5cd3      	ldrb	r3, [r2, r3]
}
 8001ba6:	40d8      	lsrs	r0, r3
 8001ba8:	bd08      	pop	{r3, pc}
 8001baa:	bf00      	nop
 8001bac:	40023800 	.word	0x40023800
 8001bb0:	08005060 	.word	0x08005060

08001bb4 <HAL_RCCEx_PeriphCLKConfig>:
  *         the backup registers) are set to their reset values.
  *
  * @retval HAL status
  */
HAL_StatusTypeDef HAL_RCCEx_PeriphCLKConfig(RCC_PeriphCLKInitTypeDef  *PeriphClkInit)
{
 8001bb4:	b5f0      	push	{r4, r5, r6, r7, lr}
 8001bb6:	b083      	sub	sp, #12
 8001bb8:	4604      	mov	r4, r0

  /* Check the parameters */
  assert_param(IS_RCC_PERIPHCLOCK(PeriphClkInit->PeriphClockSelection));

  /*----------------------------------- I2S configuration ----------------------------------*/
  if(((PeriphClkInit->PeriphClockSelection) & RCC_PERIPHCLK_I2S) == (RCC_PERIPHCLK_I2S))
 8001bba:	6803      	ldr	r3, [r0, #0]
 8001bbc:	f013 0f01 	tst.w	r3, #1
 8001bc0:	d00c      	beq.n	8001bdc <HAL_RCCEx_PeriphCLKConfig+0x28>
  {
    /* Check the parameters */
    assert_param(IS_RCC_I2SCLKSOURCE(PeriphClkInit->I2sClockSelection));

    /* Configure I2S Clock source */
    __HAL_RCC_I2S_CONFIG(PeriphClkInit->I2sClockSelection);
 8001bc2:	4ba4      	ldr	r3, [pc, #656]	; (8001e54 <HAL_RCCEx_PeriphCLKConfig+0x2a0>)
 8001bc4:	689a      	ldr	r2, [r3, #8]
 8001bc6:	f422 0200 	bic.w	r2, r2, #8388608	; 0x800000
 8001bca:	609a      	str	r2, [r3, #8]
 8001bcc:	689a      	ldr	r2, [r3, #8]
 8001bce:	6ac1      	ldr	r1, [r0, #44]	; 0x2c
 8001bd0:	430a      	orrs	r2, r1
 8001bd2:	609a      	str	r2, [r3, #8]

    /* Enable the PLLI2S when it's used as clock source for I2S */
    if(PeriphClkInit->I2sClockSelection == RCC_I2SCLKSOURCE_PLLI2S)
 8001bd4:	6ac3      	ldr	r3, [r0, #44]	; 0x2c
 8001bd6:	b1c3      	cbz	r3, 8001c0a <HAL_RCCEx_PeriphCLKConfig+0x56>
  uint32_t plli2sused = 0;
 8001bd8:	2600      	movs	r6, #0
 8001bda:	e000      	b.n	8001bde <HAL_RCCEx_PeriphCLKConfig+0x2a>
 8001bdc:	2600      	movs	r6, #0
      plli2sused = 1;
    }
  }

  /*------------------------------------ SAI1 configuration --------------------------------------*/
  if(((PeriphClkInit->PeriphClockSelection) & RCC_PERIPHCLK_SAI1) == (RCC_PERIPHCLK_SAI1))
 8001bde:	6823      	ldr	r3, [r4, #0]
 8001be0:	f413 2f00 	tst.w	r3, #524288	; 0x80000
 8001be4:	d015      	beq.n	8001c12 <HAL_RCCEx_PeriphCLKConfig+0x5e>
  {
    /* Check the parameters */
    assert_param(IS_RCC_SAI1CLKSOURCE(PeriphClkInit->Sai1ClockSelection));

    /* Configure SAI1 Clock source */
    __HAL_RCC_SAI1_CONFIG(PeriphClkInit->Sai1ClockSelection);
 8001be6:	4a9b      	ldr	r2, [pc, #620]	; (8001e54 <HAL_RCCEx_PeriphCLKConfig+0x2a0>)
 8001be8:	f8d2 308c 	ldr.w	r3, [r2, #140]	; 0x8c
 8001bec:	f423 1340 	bic.w	r3, r3, #3145728	; 0x300000
 8001bf0:	6b61      	ldr	r1, [r4, #52]	; 0x34
 8001bf2:	430b      	orrs	r3, r1
 8001bf4:	f8c2 308c 	str.w	r3, [r2, #140]	; 0x8c
    /* Enable the PLLI2S when it's used as clock source for SAI */
    if(PeriphClkInit->Sai1ClockSelection == RCC_SAI1CLKSOURCE_PLLI2S)
 8001bf8:	6b63      	ldr	r3, [r4, #52]	; 0x34
 8001bfa:	f5b3 1f80 	cmp.w	r3, #1048576	; 0x100000
 8001bfe:	d006      	beq.n	8001c0e <HAL_RCCEx_PeriphCLKConfig+0x5a>
    {
      plli2sused = 1;
    }
    /* Enable the PLLSAI when it's used as clock source for SAI */
    if(PeriphClkInit->Sai1ClockSelection == RCC_SAI1CLKSOURCE_PLLSAI)
 8001c00:	2b00      	cmp	r3, #0
 8001c02:	f000 8105 	beq.w	8001e10 <HAL_RCCEx_PeriphCLKConfig+0x25c>
  uint32_t pllsaiused = 0;
 8001c06:	2500      	movs	r5, #0
 8001c08:	e004      	b.n	8001c14 <HAL_RCCEx_PeriphCLKConfig+0x60>
      plli2sused = 1;
 8001c0a:	2601      	movs	r6, #1
 8001c0c:	e7e7      	b.n	8001bde <HAL_RCCEx_PeriphCLKConfig+0x2a>
      plli2sused = 1;
 8001c0e:	2601      	movs	r6, #1
 8001c10:	e7f6      	b.n	8001c00 <HAL_RCCEx_PeriphCLKConfig+0x4c>
  uint32_t pllsaiused = 0;
 8001c12:	2500      	movs	r5, #0
      pllsaiused = 1;
    }
  }

  /*------------------------------------ SAI2 configuration --------------------------------------*/
  if(((PeriphClkInit->PeriphClockSelection) & RCC_PERIPHCLK_SAI2) == (RCC_PERIPHCLK_SAI2))
 8001c14:	6823      	ldr	r3, [r4, #0]
 8001c16:	f413 1f80 	tst.w	r3, #1048576	; 0x100000
 8001c1a:	d00f      	beq.n	8001c3c <HAL_RCCEx_PeriphCLKConfig+0x88>
  {
    /* Check the parameters */
    assert_param(IS_RCC_SAI2CLKSOURCE(PeriphClkInit->Sai2ClockSelection));

    /* Configure SAI2 Clock source */
    __HAL_RCC_SAI2_CONFIG(PeriphClkInit->Sai2ClockSelection);
 8001c1c:	4a8d      	ldr	r2, [pc, #564]	; (8001e54 <HAL_RCCEx_PeriphCLKConfig+0x2a0>)
 8001c1e:	f8d2 308c 	ldr.w	r3, [r2, #140]	; 0x8c
 8001c22:	f423 0340 	bic.w	r3, r3, #12582912	; 0xc00000
 8001c26:	6ba1      	ldr	r1, [r4, #56]	; 0x38
 8001c28:	430b      	orrs	r3, r1
 8001c2a:	f8c2 308c 	str.w	r3, [r2, #140]	; 0x8c

    /* Enable the PLLI2S when it's used as clock source for SAI */
    if(PeriphClkInit->Sai2ClockSelection == RCC_SAI2CLKSOURCE_PLLI2S)
 8001c2e:	6ba3      	ldr	r3, [r4, #56]	; 0x38
 8001c30:	f5b3 0f80 	cmp.w	r3, #4194304	; 0x400000
 8001c34:	f000 80ee 	beq.w	8001e14 <HAL_RCCEx_PeriphCLKConfig+0x260>
    {
      plli2sused = 1;
    }
    /* Enable the PLLSAI when it's used as clock source for SAI */
    if(PeriphClkInit->Sai2ClockSelection == RCC_SAI2CLKSOURCE_PLLSAI)
 8001c38:	b903      	cbnz	r3, 8001c3c <HAL_RCCEx_PeriphCLKConfig+0x88>
    {
      pllsaiused = 1;
 8001c3a:	2501      	movs	r5, #1
    }
  }

  /*------------------------------------ RTC configuration --------------------------------------*/
  if(((PeriphClkInit->PeriphClockSelection) & RCC_PERIPHCLK_RTC) == (RCC_PERIPHCLK_RTC))
 8001c3c:	6823      	ldr	r3, [r4, #0]
 8001c3e:	f013 0f20 	tst.w	r3, #32
 8001c42:	f040 80e9 	bne.w	8001e18 <HAL_RCCEx_PeriphCLKConfig+0x264>
    }
    __HAL_RCC_RTC_CONFIG(PeriphClkInit->RTCClockSelection);
  }

  /*------------------------------------ TIM configuration --------------------------------------*/
  if(((PeriphClkInit->PeriphClockSelection) & RCC_PERIPHCLK_TIM) == (RCC_PERIPHCLK_TIM))
 8001c46:	6823      	ldr	r3, [r4, #0]
 8001c48:	f013 0f10 	tst.w	r3, #16
 8001c4c:	d00c      	beq.n	8001c68 <HAL_RCCEx_PeriphCLKConfig+0xb4>
  {
    /* Check the parameters */
    assert_param(IS_RCC_TIMPRES(PeriphClkInit->TIMPresSelection));

    /* Configure Timer Prescaler */
    __HAL_RCC_TIMCLKPRESCALER(PeriphClkInit->TIMPresSelection);
 8001c4e:	4b81      	ldr	r3, [pc, #516]	; (8001e54 <HAL_RCCEx_PeriphCLKConfig+0x2a0>)
 8001c50:	f8d3 208c 	ldr.w	r2, [r3, #140]	; 0x8c
 8001c54:	f022 7280 	bic.w	r2, r2, #16777216	; 0x1000000
 8001c58:	f8c3 208c 	str.w	r2, [r3, #140]	; 0x8c
 8001c5c:	f8d3 208c 	ldr.w	r2, [r3, #140]	; 0x8c
 8001c60:	6b21      	ldr	r1, [r4, #48]	; 0x30
 8001c62:	430a      	orrs	r2, r1
 8001c64:	f8c3 208c 	str.w	r2, [r3, #140]	; 0x8c
  }

  /*-------------------------------------- I2C1 Configuration -----------------------------------*/
  if(((PeriphClkInit->PeriphClockSelection) & RCC_PERIPHCLK_I2C1) == RCC_PERIPHCLK_I2C1)
 8001c68:	6823      	ldr	r3, [r4, #0]
 8001c6a:	f413 4f80 	tst.w	r3, #16384	; 0x4000
 8001c6e:	d008      	beq.n	8001c82 <HAL_RCCEx_PeriphCLKConfig+0xce>
  {
    /* Check the parameters */
    assert_param(IS_RCC_I2C1CLKSOURCE(PeriphClkInit->I2c1ClockSelection));

    /* Configure the I2C1 clock source */
    __HAL_RCC_I2C1_CONFIG(PeriphClkInit->I2c1ClockSelection);
 8001c70:	4a78      	ldr	r2, [pc, #480]	; (8001e54 <HAL_RCCEx_PeriphCLKConfig+0x2a0>)
 8001c72:	f8d2 3090 	ldr.w	r3, [r2, #144]	; 0x90
 8001c76:	f423 3340 	bic.w	r3, r3, #196608	; 0x30000
 8001c7a:	6de1      	ldr	r1, [r4, #92]	; 0x5c
 8001c7c:	430b      	orrs	r3, r1
 8001c7e:	f8c2 3090 	str.w	r3, [r2, #144]	; 0x90
  }

  /*-------------------------------------- I2C2 Configuration -----------------------------------*/
  if(((PeriphClkInit->PeriphClockSelection) & RCC_PERIPHCLK_I2C2) == RCC_PERIPHCLK_I2C2)
 8001c82:	6823      	ldr	r3, [r4, #0]
 8001c84:	f413 4f00 	tst.w	r3, #32768	; 0x8000
 8001c88:	d008      	beq.n	8001c9c <HAL_RCCEx_PeriphCLKConfig+0xe8>
  {
    /* Check the parameters */
    assert_param(IS_RCC_I2C2CLKSOURCE(PeriphClkInit->I2c2ClockSelection));

    /* Configure the I2C2 clock source */
    __HAL_RCC_I2C2_CONFIG(PeriphClkInit->I2c2ClockSelection);
 8001c8a:	4a72      	ldr	r2, [pc, #456]	; (8001e54 <HAL_RCCEx_PeriphCLKConfig+0x2a0>)
 8001c8c:	f8d2 3090 	ldr.w	r3, [r2, #144]	; 0x90
 8001c90:	f423 2340 	bic.w	r3, r3, #786432	; 0xc0000
 8001c94:	6e21      	ldr	r1, [r4, #96]	; 0x60
 8001c96:	430b      	orrs	r3, r1
 8001c98:	f8c2 3090 	str.w	r3, [r2, #144]	; 0x90
  }

  /*-------------------------------------- I2C3 Configuration -----------------------------------*/
  if(((PeriphClkInit->PeriphClockSelection) & RCC_PERIPHCLK_I2C3) == RCC_PERIPHCLK_I2C3)
 8001c9c:	6823      	ldr	r3, [r4, #0]
 8001c9e:	f413 3f80 	tst.w	r3, #65536	; 0x10000
 8001ca2:	d008      	beq.n	8001cb6 <HAL_RCCEx_PeriphCLKConfig+0x102>
  {
    /* Check the parameters */
    assert_param(IS_RCC_I2C3CLKSOURCE(PeriphClkInit->I2c3ClockSelection));

    /* Configure the I2C3 clock source */
    __HAL_RCC_I2C3_CONFIG(PeriphClkInit->I2c3ClockSelection);
 8001ca4:	4a6b      	ldr	r2, [pc, #428]	; (8001e54 <HAL_RCCEx_PeriphCLKConfig+0x2a0>)
 8001ca6:	f8d2 3090 	ldr.w	r3, [r2, #144]	; 0x90
 8001caa:	f423 1340 	bic.w	r3, r3, #3145728	; 0x300000
 8001cae:	6e61      	ldr	r1, [r4, #100]	; 0x64
 8001cb0:	430b      	orrs	r3, r1
 8001cb2:	f8c2 3090 	str.w	r3, [r2, #144]	; 0x90
  }

  /*-------------------------------------- USART1 Configuration -----------------------------------*/
  if(((PeriphClkInit->PeriphClockSelection) & RCC_PERIPHCLK_USART1) == RCC_PERIPHCLK_USART1)
 8001cb6:	6823      	ldr	r3, [r4, #0]
 8001cb8:	f013 0f40 	tst.w	r3, #64	; 0x40
 8001cbc:	d008      	beq.n	8001cd0 <HAL_RCCEx_PeriphCLKConfig+0x11c>
  {
    /* Check the parameters */
    assert_param(IS_RCC_USART1CLKSOURCE(PeriphClkInit->Usart1ClockSelection));

    /* Configure the USART1 clock source */
    __HAL_RCC_USART1_CONFIG(PeriphClkInit->Usart1ClockSelection);
 8001cbe:	4a65      	ldr	r2, [pc, #404]	; (8001e54 <HAL_RCCEx_PeriphCLKConfig+0x2a0>)
 8001cc0:	f8d2 3090 	ldr.w	r3, [r2, #144]	; 0x90
 8001cc4:	f023 0303 	bic.w	r3, r3, #3
 8001cc8:	6be1      	ldr	r1, [r4, #60]	; 0x3c
 8001cca:	430b      	orrs	r3, r1
 8001ccc:	f8c2 3090 	str.w	r3, [r2, #144]	; 0x90
  }

  /*-------------------------------------- USART2 Configuration -----------------------------------*/
  if(((PeriphClkInit->PeriphClockSelection) & RCC_PERIPHCLK_USART2) == RCC_PERIPHCLK_USART2)
 8001cd0:	6823      	ldr	r3, [r4, #0]
 8001cd2:	f013 0f80 	tst.w	r3, #128	; 0x80
 8001cd6:	d008      	beq.n	8001cea <HAL_RCCEx_PeriphCLKConfig+0x136>
  {
    /* Check the parameters */
    assert_param(IS_RCC_USART2CLKSOURCE(PeriphClkInit->Usart2ClockSelection));

    /* Configure the USART2 clock source */
    __HAL_RCC_USART2_CONFIG(PeriphClkInit->Usart2ClockSelection);
 8001cd8:	4a5e      	ldr	r2, [pc, #376]	; (8001e54 <HAL_RCCEx_PeriphCLKConfig+0x2a0>)
 8001cda:	f8d2 3090 	ldr.w	r3, [r2, #144]	; 0x90
 8001cde:	f023 030c 	bic.w	r3, r3, #12
 8001ce2:	6c21      	ldr	r1, [r4, #64]	; 0x40
 8001ce4:	430b      	orrs	r3, r1
 8001ce6:	f8c2 3090 	str.w	r3, [r2, #144]	; 0x90
  }

  /*-------------------------------------- USART3 Configuration -----------------------------------*/
  if(((PeriphClkInit->PeriphClockSelection) & RCC_PERIPHCLK_USART3) == RCC_PERIPHCLK_USART3)
 8001cea:	6823      	ldr	r3, [r4, #0]
 8001cec:	f413 7f80 	tst.w	r3, #256	; 0x100
 8001cf0:	d008      	beq.n	8001d04 <HAL_RCCEx_PeriphCLKConfig+0x150>
  {
    /* Check the parameters */
    assert_param(IS_RCC_USART3CLKSOURCE(PeriphClkInit->Usart3ClockSelection));

    /* Configure the USART3 clock source */
    __HAL_RCC_USART3_CONFIG(PeriphClkInit->Usart3ClockSelection);
 8001cf2:	4a58      	ldr	r2, [pc, #352]	; (8001e54 <HAL_RCCEx_PeriphCLKConfig+0x2a0>)
 8001cf4:	f8d2 3090 	ldr.w	r3, [r2, #144]	; 0x90
 8001cf8:	f023 0330 	bic.w	r3, r3, #48	; 0x30
 8001cfc:	6c61      	ldr	r1, [r4, #68]	; 0x44
 8001cfe:	430b      	orrs	r3, r1
 8001d00:	f8c2 3090 	str.w	r3, [r2, #144]	; 0x90
  }

  /*-------------------------------------- UART4 Configuration -----------------------------------*/
  if(((PeriphClkInit->PeriphClockSelection) & RCC_PERIPHCLK_UART4) == RCC_PERIPHCLK_UART4)
 8001d04:	6823      	ldr	r3, [r4, #0]
 8001d06:	f413 7f00 	tst.w	r3, #512	; 0x200
 8001d0a:	d008      	beq.n	8001d1e <HAL_RCCEx_PeriphCLKConfig+0x16a>
  {
    /* Check the parameters */
    assert_param(IS_RCC_UART4CLKSOURCE(PeriphClkInit->Uart4ClockSelection));

    /* Configure the UART4 clock source */
    __HAL_RCC_UART4_CONFIG(PeriphClkInit->Uart4ClockSelection);
 8001d0c:	4a51      	ldr	r2, [pc, #324]	; (8001e54 <HAL_RCCEx_PeriphCLKConfig+0x2a0>)
 8001d0e:	f8d2 3090 	ldr.w	r3, [r2, #144]	; 0x90
 8001d12:	f023 03c0 	bic.w	r3, r3, #192	; 0xc0
 8001d16:	6ca1      	ldr	r1, [r4, #72]	; 0x48
 8001d18:	430b      	orrs	r3, r1
 8001d1a:	f8c2 3090 	str.w	r3, [r2, #144]	; 0x90
  }

  /*-------------------------------------- UART5 Configuration -----------------------------------*/
  if(((PeriphClkInit->PeriphClockSelection) & RCC_PERIPHCLK_UART5) == RCC_PERIPHCLK_UART5)
 8001d1e:	6823      	ldr	r3, [r4, #0]
 8001d20:	f413 6f80 	tst.w	r3, #1024	; 0x400
 8001d24:	d008      	beq.n	8001d38 <HAL_RCCEx_PeriphCLKConfig+0x184>
  {
    /* Check the parameters */
    assert_param(IS_RCC_UART5CLKSOURCE(PeriphClkInit->Uart5ClockSelection));

    /* Configure the UART5 clock source */
    __HAL_RCC_UART5_CONFIG(PeriphClkInit->Uart5ClockSelection);
 8001d26:	4a4b      	ldr	r2, [pc, #300]	; (8001e54 <HAL_RCCEx_PeriphCLKConfig+0x2a0>)
 8001d28:	f8d2 3090 	ldr.w	r3, [r2, #144]	; 0x90
 8001d2c:	f423 7340 	bic.w	r3, r3, #768	; 0x300
 8001d30:	6ce1      	ldr	r1, [r4, #76]	; 0x4c
 8001d32:	430b      	orrs	r3, r1
 8001d34:	f8c2 3090 	str.w	r3, [r2, #144]	; 0x90
  }

  /*-------------------------------------- USART6 Configuration -----------------------------------*/
  if(((PeriphClkInit->PeriphClockSelection) & RCC_PERIPHCLK_USART6) == RCC_PERIPHCLK_USART6)
 8001d38:	6823      	ldr	r3, [r4, #0]
 8001d3a:	f413 6f00 	tst.w	r3, #2048	; 0x800
 8001d3e:	d008      	beq.n	8001d52 <HAL_RCCEx_PeriphCLKConfig+0x19e>
  {
    /* Check the parameters */
    assert_param(IS_RCC_USART6CLKSOURCE(PeriphClkInit->Usart6ClockSelection));

    /* Configure the USART6 clock source */
    __HAL_RCC_USART6_CONFIG(PeriphClkInit->Usart6ClockSelection);
 8001d40:	4a44      	ldr	r2, [pc, #272]	; (8001e54 <HAL_RCCEx_PeriphCLKConfig+0x2a0>)
 8001d42:	f8d2 3090 	ldr.w	r3, [r2, #144]	; 0x90
 8001d46:	f423 6340 	bic.w	r3, r3, #3072	; 0xc00
 8001d4a:	6d21      	ldr	r1, [r4, #80]	; 0x50
 8001d4c:	430b      	orrs	r3, r1
 8001d4e:	f8c2 3090 	str.w	r3, [r2, #144]	; 0x90
  }

  /*-------------------------------------- UART7 Configuration -----------------------------------*/
  if(((PeriphClkInit->PeriphClockSelection) & RCC_PERIPHCLK_UART7) == RCC_PERIPHCLK_UART7)
 8001d52:	6823      	ldr	r3, [r4, #0]
 8001d54:	f413 5f80 	tst.w	r3, #4096	; 0x1000
 8001d58:	d008      	beq.n	8001d6c <HAL_RCCEx_PeriphCLKConfig+0x1b8>
  {
    /* Check the parameters */
    assert_param(IS_RCC_UART7CLKSOURCE(PeriphClkInit->Uart7ClockSelection));

    /* Configure the UART7 clock source */
    __HAL_RCC_UART7_CONFIG(PeriphClkInit->Uart7ClockSelection);
 8001d5a:	4a3e      	ldr	r2, [pc, #248]	; (8001e54 <HAL_RCCEx_PeriphCLKConfig+0x2a0>)
 8001d5c:	f8d2 3090 	ldr.w	r3, [r2, #144]	; 0x90
 8001d60:	f423 5340 	bic.w	r3, r3, #12288	; 0x3000
 8001d64:	6d61      	ldr	r1, [r4, #84]	; 0x54
 8001d66:	430b      	orrs	r3, r1
 8001d68:	f8c2 3090 	str.w	r3, [r2, #144]	; 0x90
  }

  /*-------------------------------------- UART8 Configuration -----------------------------------*/
  if(((PeriphClkInit->PeriphClockSelection) & RCC_PERIPHCLK_UART8) == RCC_PERIPHCLK_UART8)
 8001d6c:	6823      	ldr	r3, [r4, #0]
 8001d6e:	f413 5f00 	tst.w	r3, #8192	; 0x2000
 8001d72:	d008      	beq.n	8001d86 <HAL_RCCEx_PeriphCLKConfig+0x1d2>
  {
    /* Check the parameters */
    assert_param(IS_RCC_UART8CLKSOURCE(PeriphClkInit->Uart8ClockSelection));

    /* Configure the UART8 clock source */
    __HAL_RCC_UART8_CONFIG(PeriphClkInit->Uart8ClockSelection);
 8001d74:	4a37      	ldr	r2, [pc, #220]	; (8001e54 <HAL_RCCEx_PeriphCLKConfig+0x2a0>)
 8001d76:	f8d2 3090 	ldr.w	r3, [r2, #144]	; 0x90
 8001d7a:	f423 4340 	bic.w	r3, r3, #49152	; 0xc000
 8001d7e:	6da1      	ldr	r1, [r4, #88]	; 0x58
 8001d80:	430b      	orrs	r3, r1
 8001d82:	f8c2 3090 	str.w	r3, [r2, #144]	; 0x90
  }

  /*-------------------------------------- CK48 Configuration -----------------------------------*/
  if(((PeriphClkInit->PeriphClockSelection) & RCC_PERIPHCLK_CLK48) == RCC_PERIPHCLK_CLK48)
 8001d86:	6823      	ldr	r3, [r4, #0]
 8001d88:	f413 1f00 	tst.w	r3, #2097152	; 0x200000
 8001d8c:	d00d      	beq.n	8001daa <HAL_RCCEx_PeriphCLKConfig+0x1f6>
  {
    /* Check the parameters */
    assert_param(IS_RCC_CLK48SOURCE(PeriphClkInit->Clk48ClockSelection));

    /* Configure the CLK48 source */
    __HAL_RCC_CLK48_CONFIG(PeriphClkInit->Clk48ClockSelection);
 8001d8e:	4a31      	ldr	r2, [pc, #196]	; (8001e54 <HAL_RCCEx_PeriphCLKConfig+0x2a0>)
 8001d90:	f8d2 3090 	ldr.w	r3, [r2, #144]	; 0x90
 8001d94:	f023 6300 	bic.w	r3, r3, #134217728	; 0x8000000
 8001d98:	6f61      	ldr	r1, [r4, #116]	; 0x74
 8001d9a:	430b      	orrs	r3, r1
 8001d9c:	f8c2 3090 	str.w	r3, [r2, #144]	; 0x90

    /* Enable the PLLSAI when it's used as clock source for CK48 */
    if(PeriphClkInit->Clk48ClockSelection == RCC_CLK48SOURCE_PLLSAIP)
 8001da0:	6f63      	ldr	r3, [r4, #116]	; 0x74
 8001da2:	f1b3 6f00 	cmp.w	r3, #134217728	; 0x8000000
 8001da6:	f000 80a1 	beq.w	8001eec <HAL_RCCEx_PeriphCLKConfig+0x338>
      pllsaiused = 1;
    }
  }

  /*-------------------------------------- LPTIM1 Configuration -----------------------------------*/
  if(((PeriphClkInit->PeriphClockSelection) & RCC_PERIPHCLK_LPTIM1) == RCC_PERIPHCLK_LPTIM1)
 8001daa:	6823      	ldr	r3, [r4, #0]
 8001dac:	f413 2f80 	tst.w	r3, #262144	; 0x40000
 8001db0:	d008      	beq.n	8001dc4 <HAL_RCCEx_PeriphCLKConfig+0x210>
  {
    /* Check the parameters */
    assert_param(IS_RCC_LPTIM1CLK(PeriphClkInit->Lptim1ClockSelection));

    /* Configure the LTPIM1 clock source */
    __HAL_RCC_LPTIM1_CONFIG(PeriphClkInit->Lptim1ClockSelection);
 8001db2:	4a28      	ldr	r2, [pc, #160]	; (8001e54 <HAL_RCCEx_PeriphCLKConfig+0x2a0>)
 8001db4:	f8d2 3090 	ldr.w	r3, [r2, #144]	; 0x90
 8001db8:	f023 7340 	bic.w	r3, r3, #50331648	; 0x3000000
 8001dbc:	6ee1      	ldr	r1, [r4, #108]	; 0x6c
 8001dbe:	430b      	orrs	r3, r1
 8001dc0:	f8c2 3090 	str.w	r3, [r2, #144]	; 0x90
   }

  /*------------------------------------- SDMMC1 Configuration ------------------------------------*/
  if(((PeriphClkInit->PeriphClockSelection) & RCC_PERIPHCLK_SDMMC1) == RCC_PERIPHCLK_SDMMC1)
 8001dc4:	6823      	ldr	r3, [r4, #0]
 8001dc6:	f413 0f00 	tst.w	r3, #8388608	; 0x800000
 8001dca:	d008      	beq.n	8001dde <HAL_RCCEx_PeriphCLKConfig+0x22a>
  {
    /* Check the parameters */
    assert_param(IS_RCC_SDMMC1CLKSOURCE(PeriphClkInit->Sdmmc1ClockSelection));

    /* Configure the SDMMC1 clock source */
    __HAL_RCC_SDMMC1_CONFIG(PeriphClkInit->Sdmmc1ClockSelection);
 8001dcc:	4a21      	ldr	r2, [pc, #132]	; (8001e54 <HAL_RCCEx_PeriphCLKConfig+0x2a0>)
 8001dce:	f8d2 3090 	ldr.w	r3, [r2, #144]	; 0x90
 8001dd2:	f023 5380 	bic.w	r3, r3, #268435456	; 0x10000000
 8001dd6:	6fa1      	ldr	r1, [r4, #120]	; 0x78
 8001dd8:	430b      	orrs	r3, r1
 8001dda:	f8c2 3090 	str.w	r3, [r2, #144]	; 0x90
  }

  /*------------------------------------- SDMMC2 Configuration ------------------------------------*/
  if(((PeriphClkInit->PeriphClockSelection) & RCC_PERIPHCLK_SDMMC2) == RCC_PERIPHCLK_SDMMC2)
 8001dde:	6823      	ldr	r3, [r4, #0]
 8001de0:	f013 6f80 	tst.w	r3, #67108864	; 0x4000000
 8001de4:	d008      	beq.n	8001df8 <HAL_RCCEx_PeriphCLKConfig+0x244>
  {
    /* Check the parameters */
    assert_param(IS_RCC_SDMMC2CLKSOURCE(PeriphClkInit->Sdmmc2ClockSelection));

    /* Configure the SDMMC2 clock source */
    __HAL_RCC_SDMMC2_CONFIG(PeriphClkInit->Sdmmc2ClockSelection);
 8001de6:	4a1b      	ldr	r2, [pc, #108]	; (8001e54 <HAL_RCCEx_PeriphCLKConfig+0x2a0>)
 8001de8:	f8d2 3090 	ldr.w	r3, [r2, #144]	; 0x90
 8001dec:	f023 5300 	bic.w	r3, r3, #536870912	; 0x20000000
 8001df0:	6fe1      	ldr	r1, [r4, #124]	; 0x7c
 8001df2:	430b      	orrs	r3, r1
 8001df4:	f8c2 3090 	str.w	r3, [r2, #144]	; 0x90
  }

  /*-------------------------------------- PLLI2S Configuration ---------------------------------*/
  /* PLLI2S is configured when a peripheral will use it as source clock : SAI1, SAI2 or I2S */
  if((plli2sused == 1) || (PeriphClkInit->PeriphClockSelection == RCC_PERIPHCLK_PLLI2S))
 8001df8:	2e00      	cmp	r6, #0
 8001dfa:	d179      	bne.n	8001ef0 <HAL_RCCEx_PeriphCLKConfig+0x33c>
 8001dfc:	6823      	ldr	r3, [r4, #0]
 8001dfe:	f1b3 7f00 	cmp.w	r3, #33554432	; 0x2000000
 8001e02:	d075      	beq.n	8001ef0 <HAL_RCCEx_PeriphCLKConfig+0x33c>
    }
  }

  /*-------------------------------------- PLLSAI Configuration ---------------------------------*/
  /* PLLSAI is configured when a peripheral will use it as source clock : SAI1, SAI2, LTDC or CK48 */
  if(pllsaiused == 1)
 8001e04:	2d00      	cmp	r5, #0
 8001e06:	f040 80e3 	bne.w	8001fd0 <HAL_RCCEx_PeriphCLKConfig+0x41c>
        /* return in case of Timeout detected */
        return HAL_TIMEOUT;
      }
    }
  }
  return HAL_OK;
 8001e0a:	2000      	movs	r0, #0
}
 8001e0c:	b003      	add	sp, #12
 8001e0e:	bdf0      	pop	{r4, r5, r6, r7, pc}
      pllsaiused = 1;
 8001e10:	2501      	movs	r5, #1
 8001e12:	e6ff      	b.n	8001c14 <HAL_RCCEx_PeriphCLKConfig+0x60>
      plli2sused = 1;
 8001e14:	2601      	movs	r6, #1
 8001e16:	e70f      	b.n	8001c38 <HAL_RCCEx_PeriphCLKConfig+0x84>
    __HAL_RCC_PWR_CLK_ENABLE();
 8001e18:	4b0e      	ldr	r3, [pc, #56]	; (8001e54 <HAL_RCCEx_PeriphCLKConfig+0x2a0>)
 8001e1a:	6c1a      	ldr	r2, [r3, #64]	; 0x40
 8001e1c:	f042 5280 	orr.w	r2, r2, #268435456	; 0x10000000
 8001e20:	641a      	str	r2, [r3, #64]	; 0x40
 8001e22:	6c1b      	ldr	r3, [r3, #64]	; 0x40
 8001e24:	f003 5380 	and.w	r3, r3, #268435456	; 0x10000000
 8001e28:	9301      	str	r3, [sp, #4]
 8001e2a:	9b01      	ldr	r3, [sp, #4]
    PWR->CR1 |= PWR_CR1_DBP;
 8001e2c:	4a0a      	ldr	r2, [pc, #40]	; (8001e58 <HAL_RCCEx_PeriphCLKConfig+0x2a4>)
 8001e2e:	6813      	ldr	r3, [r2, #0]
 8001e30:	f443 7380 	orr.w	r3, r3, #256	; 0x100
 8001e34:	6013      	str	r3, [r2, #0]
    tickstart = HAL_GetTick();
 8001e36:	f7fe fc07 	bl	8000648 <HAL_GetTick>
 8001e3a:	4607      	mov	r7, r0
    while((PWR->CR1 & PWR_CR1_DBP) == RESET)
 8001e3c:	4b06      	ldr	r3, [pc, #24]	; (8001e58 <HAL_RCCEx_PeriphCLKConfig+0x2a4>)
 8001e3e:	681b      	ldr	r3, [r3, #0]
 8001e40:	f413 7f80 	tst.w	r3, #256	; 0x100
 8001e44:	d10a      	bne.n	8001e5c <HAL_RCCEx_PeriphCLKConfig+0x2a8>
      if((HAL_GetTick() - tickstart) > RCC_DBP_TIMEOUT_VALUE)
 8001e46:	f7fe fbff 	bl	8000648 <HAL_GetTick>
 8001e4a:	1bc0      	subs	r0, r0, r7
 8001e4c:	2864      	cmp	r0, #100	; 0x64
 8001e4e:	d9f5      	bls.n	8001e3c <HAL_RCCEx_PeriphCLKConfig+0x288>
        return HAL_TIMEOUT;
 8001e50:	2003      	movs	r0, #3
 8001e52:	e7db      	b.n	8001e0c <HAL_RCCEx_PeriphCLKConfig+0x258>
 8001e54:	40023800 	.word	0x40023800
 8001e58:	40007000 	.word	0x40007000
    tmpreg0 = (RCC->BDCR & RCC_BDCR_RTCSEL);
 8001e5c:	4b8d      	ldr	r3, [pc, #564]	; (8002094 <HAL_RCCEx_PeriphCLKConfig+0x4e0>)
 8001e5e:	6f1b      	ldr	r3, [r3, #112]	; 0x70
    if((tmpreg0 != 0x00000000U) && (tmpreg0 != (PeriphClkInit->RTCClockSelection & RCC_BDCR_RTCSEL)))
 8001e60:	f413 7340 	ands.w	r3, r3, #768	; 0x300
 8001e64:	d015      	beq.n	8001e92 <HAL_RCCEx_PeriphCLKConfig+0x2de>
 8001e66:	6aa2      	ldr	r2, [r4, #40]	; 0x28
 8001e68:	f402 7240 	and.w	r2, r2, #768	; 0x300
 8001e6c:	429a      	cmp	r2, r3
 8001e6e:	d010      	beq.n	8001e92 <HAL_RCCEx_PeriphCLKConfig+0x2de>
      tmpreg0 = (RCC->BDCR & ~(RCC_BDCR_RTCSEL));
 8001e70:	4b88      	ldr	r3, [pc, #544]	; (8002094 <HAL_RCCEx_PeriphCLKConfig+0x4e0>)
 8001e72:	6f1a      	ldr	r2, [r3, #112]	; 0x70
 8001e74:	f422 7240 	bic.w	r2, r2, #768	; 0x300
      __HAL_RCC_BACKUPRESET_FORCE();
 8001e78:	6f19      	ldr	r1, [r3, #112]	; 0x70
 8001e7a:	f441 3180 	orr.w	r1, r1, #65536	; 0x10000
 8001e7e:	6719      	str	r1, [r3, #112]	; 0x70
      __HAL_RCC_BACKUPRESET_RELEASE();
 8001e80:	6f19      	ldr	r1, [r3, #112]	; 0x70
 8001e82:	f421 3180 	bic.w	r1, r1, #65536	; 0x10000
 8001e86:	6719      	str	r1, [r3, #112]	; 0x70
      RCC->BDCR = tmpreg0;
 8001e88:	671a      	str	r2, [r3, #112]	; 0x70
      if (HAL_IS_BIT_SET(RCC->BDCR, RCC_BDCR_LSEON))
 8001e8a:	6f1b      	ldr	r3, [r3, #112]	; 0x70
 8001e8c:	f013 0f01 	tst.w	r3, #1
 8001e90:	d112      	bne.n	8001eb8 <HAL_RCCEx_PeriphCLKConfig+0x304>
    __HAL_RCC_RTC_CONFIG(PeriphClkInit->RTCClockSelection);
 8001e92:	6aa3      	ldr	r3, [r4, #40]	; 0x28
 8001e94:	f403 7240 	and.w	r2, r3, #768	; 0x300
 8001e98:	f5b2 7f40 	cmp.w	r2, #768	; 0x300
 8001e9c:	d01d      	beq.n	8001eda <HAL_RCCEx_PeriphCLKConfig+0x326>
 8001e9e:	4a7d      	ldr	r2, [pc, #500]	; (8002094 <HAL_RCCEx_PeriphCLKConfig+0x4e0>)
 8001ea0:	6893      	ldr	r3, [r2, #8]
 8001ea2:	f423 13f8 	bic.w	r3, r3, #2031616	; 0x1f0000
 8001ea6:	6093      	str	r3, [r2, #8]
 8001ea8:	497a      	ldr	r1, [pc, #488]	; (8002094 <HAL_RCCEx_PeriphCLKConfig+0x4e0>)
 8001eaa:	6f0b      	ldr	r3, [r1, #112]	; 0x70
 8001eac:	6aa2      	ldr	r2, [r4, #40]	; 0x28
 8001eae:	f3c2 020b 	ubfx	r2, r2, #0, #12
 8001eb2:	4313      	orrs	r3, r2
 8001eb4:	670b      	str	r3, [r1, #112]	; 0x70
 8001eb6:	e6c6      	b.n	8001c46 <HAL_RCCEx_PeriphCLKConfig+0x92>
        tickstart = HAL_GetTick();
 8001eb8:	f7fe fbc6 	bl	8000648 <HAL_GetTick>
 8001ebc:	4607      	mov	r7, r0
        while(__HAL_RCC_GET_FLAG(RCC_FLAG_LSERDY) == RESET)
 8001ebe:	4b75      	ldr	r3, [pc, #468]	; (8002094 <HAL_RCCEx_PeriphCLKConfig+0x4e0>)
 8001ec0:	6f1b      	ldr	r3, [r3, #112]	; 0x70
 8001ec2:	f013 0f02 	tst.w	r3, #2
 8001ec6:	d1e4      	bne.n	8001e92 <HAL_RCCEx_PeriphCLKConfig+0x2de>
          if((HAL_GetTick() - tickstart ) > RCC_LSE_TIMEOUT_VALUE)
 8001ec8:	f7fe fbbe 	bl	8000648 <HAL_GetTick>
 8001ecc:	1bc0      	subs	r0, r0, r7
 8001ece:	f241 3388 	movw	r3, #5000	; 0x1388
 8001ed2:	4298      	cmp	r0, r3
 8001ed4:	d9f3      	bls.n	8001ebe <HAL_RCCEx_PeriphCLKConfig+0x30a>
            return HAL_TIMEOUT;
 8001ed6:	2003      	movs	r0, #3
 8001ed8:	e798      	b.n	8001e0c <HAL_RCCEx_PeriphCLKConfig+0x258>
    __HAL_RCC_RTC_CONFIG(PeriphClkInit->RTCClockSelection);
 8001eda:	486e      	ldr	r0, [pc, #440]	; (8002094 <HAL_RCCEx_PeriphCLKConfig+0x4e0>)
 8001edc:	6882      	ldr	r2, [r0, #8]
 8001ede:	f422 12f8 	bic.w	r2, r2, #2031616	; 0x1f0000
 8001ee2:	496d      	ldr	r1, [pc, #436]	; (8002098 <HAL_RCCEx_PeriphCLKConfig+0x4e4>)
 8001ee4:	4019      	ands	r1, r3
 8001ee6:	430a      	orrs	r2, r1
 8001ee8:	6082      	str	r2, [r0, #8]
 8001eea:	e7dd      	b.n	8001ea8 <HAL_RCCEx_PeriphCLKConfig+0x2f4>
      pllsaiused = 1;
 8001eec:	2501      	movs	r5, #1
 8001eee:	e75c      	b.n	8001daa <HAL_RCCEx_PeriphCLKConfig+0x1f6>
    __HAL_RCC_PLLI2S_DISABLE();
 8001ef0:	4a68      	ldr	r2, [pc, #416]	; (8002094 <HAL_RCCEx_PeriphCLKConfig+0x4e0>)
 8001ef2:	6813      	ldr	r3, [r2, #0]
 8001ef4:	f023 6380 	bic.w	r3, r3, #67108864	; 0x4000000
 8001ef8:	6013      	str	r3, [r2, #0]
    tickstart = HAL_GetTick();
 8001efa:	f7fe fba5 	bl	8000648 <HAL_GetTick>
 8001efe:	4606      	mov	r6, r0
    while(__HAL_RCC_GET_FLAG(RCC_FLAG_PLLI2SRDY)  != RESET)
 8001f00:	4b64      	ldr	r3, [pc, #400]	; (8002094 <HAL_RCCEx_PeriphCLKConfig+0x4e0>)
 8001f02:	681b      	ldr	r3, [r3, #0]
 8001f04:	f013 6f00 	tst.w	r3, #134217728	; 0x8000000
 8001f08:	d006      	beq.n	8001f18 <HAL_RCCEx_PeriphCLKConfig+0x364>
      if((HAL_GetTick() - tickstart) > PLLI2S_TIMEOUT_VALUE)
 8001f0a:	f7fe fb9d 	bl	8000648 <HAL_GetTick>
 8001f0e:	1b80      	subs	r0, r0, r6
 8001f10:	2864      	cmp	r0, #100	; 0x64
 8001f12:	d9f5      	bls.n	8001f00 <HAL_RCCEx_PeriphCLKConfig+0x34c>
        return HAL_TIMEOUT;
 8001f14:	2003      	movs	r0, #3
 8001f16:	e779      	b.n	8001e0c <HAL_RCCEx_PeriphCLKConfig+0x258>
    if(((((PeriphClkInit->PeriphClockSelection) & RCC_PERIPHCLK_I2S) == RCC_PERIPHCLK_I2S) && (PeriphClkInit->I2sClockSelection == RCC_I2SCLKSOURCE_PLLI2S)))
 8001f18:	6823      	ldr	r3, [r4, #0]
 8001f1a:	f013 0f01 	tst.w	r3, #1
 8001f1e:	d00e      	beq.n	8001f3e <HAL_RCCEx_PeriphCLKConfig+0x38a>
 8001f20:	6ae3      	ldr	r3, [r4, #44]	; 0x2c
 8001f22:	b963      	cbnz	r3, 8001f3e <HAL_RCCEx_PeriphCLKConfig+0x38a>
      tmpreg0 = ((RCC->PLLI2SCFGR & RCC_PLLI2SCFGR_PLLI2SQ) >> RCC_PLLI2SCFGR_PLLI2SQ_Pos);
 8001f24:	4a5b      	ldr	r2, [pc, #364]	; (8002094 <HAL_RCCEx_PeriphCLKConfig+0x4e0>)
 8001f26:	f8d2 3084 	ldr.w	r3, [r2, #132]	; 0x84
      __HAL_RCC_PLLI2S_CONFIG(PeriphClkInit->PLLI2S.PLLI2SN , tmpreg0, PeriphClkInit->PLLI2S.PLLI2SR);
 8001f2a:	6861      	ldr	r1, [r4, #4]
 8001f2c:	f003 6370 	and.w	r3, r3, #251658240	; 0xf000000
 8001f30:	ea43 1381 	orr.w	r3, r3, r1, lsl #6
 8001f34:	68a1      	ldr	r1, [r4, #8]
 8001f36:	ea43 7301 	orr.w	r3, r3, r1, lsl #28
 8001f3a:	f8c2 3084 	str.w	r3, [r2, #132]	; 0x84
    if(((((PeriphClkInit->PeriphClockSelection) & RCC_PERIPHCLK_SAI1) == RCC_PERIPHCLK_SAI1) && (PeriphClkInit->Sai1ClockSelection == RCC_SAI1CLKSOURCE_PLLI2S)) ||
 8001f3e:	6823      	ldr	r3, [r4, #0]
 8001f40:	f413 2f00 	tst.w	r3, #524288	; 0x80000
 8001f44:	d003      	beq.n	8001f4e <HAL_RCCEx_PeriphCLKConfig+0x39a>
 8001f46:	6b62      	ldr	r2, [r4, #52]	; 0x34
 8001f48:	f5b2 1f80 	cmp.w	r2, #1048576	; 0x100000
 8001f4c:	d006      	beq.n	8001f5c <HAL_RCCEx_PeriphCLKConfig+0x3a8>
 8001f4e:	f413 1f80 	tst.w	r3, #1048576	; 0x100000
 8001f52:	d019      	beq.n	8001f88 <HAL_RCCEx_PeriphCLKConfig+0x3d4>
       ((((PeriphClkInit->PeriphClockSelection) & RCC_PERIPHCLK_SAI2) == RCC_PERIPHCLK_SAI2) && (PeriphClkInit->Sai2ClockSelection == RCC_SAI2CLKSOURCE_PLLI2S)))
 8001f54:	6ba3      	ldr	r3, [r4, #56]	; 0x38
 8001f56:	f5b3 0f80 	cmp.w	r3, #4194304	; 0x400000
 8001f5a:	d115      	bne.n	8001f88 <HAL_RCCEx_PeriphCLKConfig+0x3d4>
      tmpreg0 = ((RCC->PLLI2SCFGR & RCC_PLLI2SCFGR_PLLI2SR) >> RCC_PLLI2SCFGR_PLLI2SR_Pos);
 8001f5c:	4a4d      	ldr	r2, [pc, #308]	; (8002094 <HAL_RCCEx_PeriphCLKConfig+0x4e0>)
 8001f5e:	f8d2 1084 	ldr.w	r1, [r2, #132]	; 0x84
      __HAL_RCC_PLLI2S_CONFIG(PeriphClkInit->PLLI2S.PLLI2SN, PeriphClkInit->PLLI2S.PLLI2SQ, tmpreg0);
 8001f62:	6860      	ldr	r0, [r4, #4]
 8001f64:	68e3      	ldr	r3, [r4, #12]
 8001f66:	061b      	lsls	r3, r3, #24
 8001f68:	ea43 1380 	orr.w	r3, r3, r0, lsl #6
 8001f6c:	f001 41e0 	and.w	r1, r1, #1879048192	; 0x70000000
 8001f70:	430b      	orrs	r3, r1
 8001f72:	f8c2 3084 	str.w	r3, [r2, #132]	; 0x84
      __HAL_RCC_PLLI2S_PLLSAICLKDIVQ_CONFIG(PeriphClkInit->PLLI2SDivQ);
 8001f76:	f8d2 308c 	ldr.w	r3, [r2, #140]	; 0x8c
 8001f7a:	f023 031f 	bic.w	r3, r3, #31
 8001f7e:	69e1      	ldr	r1, [r4, #28]
 8001f80:	3901      	subs	r1, #1
 8001f82:	430b      	orrs	r3, r1
 8001f84:	f8c2 308c 	str.w	r3, [r2, #140]	; 0x8c
    if((PeriphClkInit->PeriphClockSelection & RCC_PERIPHCLK_PLLI2S) == RCC_PERIPHCLK_PLLI2S)
 8001f88:	6823      	ldr	r3, [r4, #0]
 8001f8a:	f013 7f00 	tst.w	r3, #33554432	; 0x2000000
 8001f8e:	d00a      	beq.n	8001fa6 <HAL_RCCEx_PeriphCLKConfig+0x3f2>
      __HAL_RCC_PLLI2S_CONFIG(PeriphClkInit->PLLI2S.PLLI2SN , PeriphClkInit->PLLI2S.PLLI2SQ, PeriphClkInit->PLLI2S.PLLI2SR);
 8001f90:	6862      	ldr	r2, [r4, #4]
 8001f92:	68e3      	ldr	r3, [r4, #12]
 8001f94:	061b      	lsls	r3, r3, #24
 8001f96:	ea43 1382 	orr.w	r3, r3, r2, lsl #6
 8001f9a:	68a2      	ldr	r2, [r4, #8]
 8001f9c:	ea43 7302 	orr.w	r3, r3, r2, lsl #28
 8001fa0:	4a3c      	ldr	r2, [pc, #240]	; (8002094 <HAL_RCCEx_PeriphCLKConfig+0x4e0>)
 8001fa2:	f8c2 3084 	str.w	r3, [r2, #132]	; 0x84
    __HAL_RCC_PLLI2S_ENABLE();
 8001fa6:	4a3b      	ldr	r2, [pc, #236]	; (8002094 <HAL_RCCEx_PeriphCLKConfig+0x4e0>)
 8001fa8:	6813      	ldr	r3, [r2, #0]
 8001faa:	f043 6380 	orr.w	r3, r3, #67108864	; 0x4000000
 8001fae:	6013      	str	r3, [r2, #0]
    tickstart = HAL_GetTick();
 8001fb0:	f7fe fb4a 	bl	8000648 <HAL_GetTick>
 8001fb4:	4606      	mov	r6, r0
    while(__HAL_RCC_GET_FLAG(RCC_FLAG_PLLI2SRDY)  == RESET)
 8001fb6:	4b37      	ldr	r3, [pc, #220]	; (8002094 <HAL_RCCEx_PeriphCLKConfig+0x4e0>)
 8001fb8:	681b      	ldr	r3, [r3, #0]
 8001fba:	f013 6f00 	tst.w	r3, #134217728	; 0x8000000
 8001fbe:	f47f af21 	bne.w	8001e04 <HAL_RCCEx_PeriphCLKConfig+0x250>
      if((HAL_GetTick() - tickstart) > PLLI2S_TIMEOUT_VALUE)
 8001fc2:	f7fe fb41 	bl	8000648 <HAL_GetTick>
 8001fc6:	1b80      	subs	r0, r0, r6
 8001fc8:	2864      	cmp	r0, #100	; 0x64
 8001fca:	d9f4      	bls.n	8001fb6 <HAL_RCCEx_PeriphCLKConfig+0x402>
        return HAL_TIMEOUT;
 8001fcc:	2003      	movs	r0, #3
 8001fce:	e71d      	b.n	8001e0c <HAL_RCCEx_PeriphCLKConfig+0x258>
    __HAL_RCC_PLLSAI_DISABLE();
 8001fd0:	4a30      	ldr	r2, [pc, #192]	; (8002094 <HAL_RCCEx_PeriphCLKConfig+0x4e0>)
 8001fd2:	6813      	ldr	r3, [r2, #0]
 8001fd4:	f023 5380 	bic.w	r3, r3, #268435456	; 0x10000000
 8001fd8:	6013      	str	r3, [r2, #0]
    tickstart = HAL_GetTick();
 8001fda:	f7fe fb35 	bl	8000648 <HAL_GetTick>
 8001fde:	4605      	mov	r5, r0
    while(__HAL_RCC_PLLSAI_GET_FLAG() != RESET)
 8001fe0:	4b2c      	ldr	r3, [pc, #176]	; (8002094 <HAL_RCCEx_PeriphCLKConfig+0x4e0>)
 8001fe2:	681b      	ldr	r3, [r3, #0]
 8001fe4:	f013 5f00 	tst.w	r3, #536870912	; 0x20000000
 8001fe8:	d006      	beq.n	8001ff8 <HAL_RCCEx_PeriphCLKConfig+0x444>
      if((HAL_GetTick() - tickstart) > PLLSAI_TIMEOUT_VALUE)
 8001fea:	f7fe fb2d 	bl	8000648 <HAL_GetTick>
 8001fee:	1b40      	subs	r0, r0, r5
 8001ff0:	2864      	cmp	r0, #100	; 0x64
 8001ff2:	d9f5      	bls.n	8001fe0 <HAL_RCCEx_PeriphCLKConfig+0x42c>
        return HAL_TIMEOUT;
 8001ff4:	2003      	movs	r0, #3
 8001ff6:	e709      	b.n	8001e0c <HAL_RCCEx_PeriphCLKConfig+0x258>
    if(((((PeriphClkInit->PeriphClockSelection) & RCC_PERIPHCLK_SAI1) == RCC_PERIPHCLK_SAI1) && (PeriphClkInit->Sai1ClockSelection == RCC_SAI1CLKSOURCE_PLLSAI)) ||\
 8001ff8:	6823      	ldr	r3, [r4, #0]
 8001ffa:	f413 2f00 	tst.w	r3, #524288	; 0x80000
 8001ffe:	d001      	beq.n	8002004 <HAL_RCCEx_PeriphCLKConfig+0x450>
 8002000:	6b62      	ldr	r2, [r4, #52]	; 0x34
 8002002:	b122      	cbz	r2, 800200e <HAL_RCCEx_PeriphCLKConfig+0x45a>
 8002004:	f413 1f80 	tst.w	r3, #1048576	; 0x100000
 8002008:	d018      	beq.n	800203c <HAL_RCCEx_PeriphCLKConfig+0x488>
       ((((PeriphClkInit->PeriphClockSelection) & RCC_PERIPHCLK_SAI2) == RCC_PERIPHCLK_SAI2) && (PeriphClkInit->Sai2ClockSelection == RCC_SAI2CLKSOURCE_PLLSAI)))
 800200a:	6ba3      	ldr	r3, [r4, #56]	; 0x38
 800200c:	b9b3      	cbnz	r3, 800203c <HAL_RCCEx_PeriphCLKConfig+0x488>
      tmpreg0 = ((RCC->PLLSAICFGR & RCC_PLLSAICFGR_PLLSAIP) >> RCC_PLLSAICFGR_PLLSAIP_Pos);
 800200e:	4a21      	ldr	r2, [pc, #132]	; (8002094 <HAL_RCCEx_PeriphCLKConfig+0x4e0>)
 8002010:	f8d2 3088 	ldr.w	r3, [r2, #136]	; 0x88
      __HAL_RCC_PLLSAI_CONFIG(PeriphClkInit->PLLSAI.PLLSAIN , tmpreg0, PeriphClkInit->PLLSAI.PLLSAIQ);
 8002014:	6921      	ldr	r1, [r4, #16]
 8002016:	f403 3340 	and.w	r3, r3, #196608	; 0x30000
 800201a:	ea43 1381 	orr.w	r3, r3, r1, lsl #6
 800201e:	6961      	ldr	r1, [r4, #20]
 8002020:	ea43 6301 	orr.w	r3, r3, r1, lsl #24
 8002024:	f8c2 3088 	str.w	r3, [r2, #136]	; 0x88
      __HAL_RCC_PLLSAI_PLLSAICLKDIVQ_CONFIG(PeriphClkInit->PLLSAIDivQ);
 8002028:	f8d2 308c 	ldr.w	r3, [r2, #140]	; 0x8c
 800202c:	f423 53f8 	bic.w	r3, r3, #7936	; 0x1f00
 8002030:	6a21      	ldr	r1, [r4, #32]
 8002032:	3901      	subs	r1, #1
 8002034:	ea43 2301 	orr.w	r3, r3, r1, lsl #8
 8002038:	f8c2 308c 	str.w	r3, [r2, #140]	; 0x8c
    if((((PeriphClkInit->PeriphClockSelection) & RCC_PERIPHCLK_CLK48) == RCC_PERIPHCLK_CLK48) && (PeriphClkInit->Clk48ClockSelection == RCC_CLK48SOURCE_PLLSAIP))
 800203c:	6823      	ldr	r3, [r4, #0]
 800203e:	f413 1f00 	tst.w	r3, #2097152	; 0x200000
 8002042:	d003      	beq.n	800204c <HAL_RCCEx_PeriphCLKConfig+0x498>
 8002044:	6f63      	ldr	r3, [r4, #116]	; 0x74
 8002046:	f1b3 6f00 	cmp.w	r3, #134217728	; 0x8000000
 800204a:	d013      	beq.n	8002074 <HAL_RCCEx_PeriphCLKConfig+0x4c0>
    __HAL_RCC_PLLSAI_ENABLE();
 800204c:	4a11      	ldr	r2, [pc, #68]	; (8002094 <HAL_RCCEx_PeriphCLKConfig+0x4e0>)
 800204e:	6813      	ldr	r3, [r2, #0]
 8002050:	f043 5380 	orr.w	r3, r3, #268435456	; 0x10000000
 8002054:	6013      	str	r3, [r2, #0]
    tickstart = HAL_GetTick();
 8002056:	f7fe faf7 	bl	8000648 <HAL_GetTick>
 800205a:	4604      	mov	r4, r0
    while(__HAL_RCC_PLLSAI_GET_FLAG() == RESET)
 800205c:	4b0d      	ldr	r3, [pc, #52]	; (8002094 <HAL_RCCEx_PeriphCLKConfig+0x4e0>)
 800205e:	681b      	ldr	r3, [r3, #0]
 8002060:	f013 5f00 	tst.w	r3, #536870912	; 0x20000000
 8002064:	d114      	bne.n	8002090 <HAL_RCCEx_PeriphCLKConfig+0x4dc>
      if((HAL_GetTick() - tickstart) > PLLSAI_TIMEOUT_VALUE)
 8002066:	f7fe faef 	bl	8000648 <HAL_GetTick>
 800206a:	1b00      	subs	r0, r0, r4
 800206c:	2864      	cmp	r0, #100	; 0x64
 800206e:	d9f5      	bls.n	800205c <HAL_RCCEx_PeriphCLKConfig+0x4a8>
        return HAL_TIMEOUT;
 8002070:	2003      	movs	r0, #3
 8002072:	e6cb      	b.n	8001e0c <HAL_RCCEx_PeriphCLKConfig+0x258>
      tmpreg0 = ((RCC->PLLSAICFGR & RCC_PLLSAICFGR_PLLSAIQ) >> RCC_PLLSAICFGR_PLLSAIQ_Pos);
 8002074:	4907      	ldr	r1, [pc, #28]	; (8002094 <HAL_RCCEx_PeriphCLKConfig+0x4e0>)
 8002076:	f8d1 2088 	ldr.w	r2, [r1, #136]	; 0x88
      __HAL_RCC_PLLSAI_CONFIG(PeriphClkInit->PLLSAI.PLLSAIN , PeriphClkInit->PLLSAI.PLLSAIP, tmpreg0);
 800207a:	6920      	ldr	r0, [r4, #16]
 800207c:	69a3      	ldr	r3, [r4, #24]
 800207e:	041b      	lsls	r3, r3, #16
 8002080:	ea43 1380 	orr.w	r3, r3, r0, lsl #6
 8002084:	f002 6270 	and.w	r2, r2, #251658240	; 0xf000000
 8002088:	4313      	orrs	r3, r2
 800208a:	f8c1 3088 	str.w	r3, [r1, #136]	; 0x88
 800208e:	e7dd      	b.n	800204c <HAL_RCCEx_PeriphCLKConfig+0x498>
  return HAL_OK;
 8002090:	2000      	movs	r0, #0
 8002092:	e6bb      	b.n	8001e0c <HAL_RCCEx_PeriphCLKConfig+0x258>
 8002094:	40023800 	.word	0x40023800
 8002098:	0ffffcff 	.word	0x0ffffcff

0800209c <UART_SetConfig>:
  * @brief Configure the UART peripheral.
  * @param huart UART handle.
  * @retval HAL status
  */
HAL_StatusTypeDef UART_SetConfig(UART_HandleTypeDef *huart)
{
 800209c:	b510      	push	{r4, lr}
 800209e:	4604      	mov	r4, r0
  *  the UART Word Length, Parity, Mode and oversampling:
  *  set the M bits according to huart->Init.WordLength value
  *  set PCE and PS bits according to huart->Init.Parity value
  *  set TE and RE bits according to huart->Init.Mode value
  *  set OVER8 bit according to huart->Init.OverSampling value */
  tmpreg = (uint32_t)huart->Init.WordLength | huart->Init.Parity | huart->Init.Mode | huart->Init.OverSampling ;
 80020a0:	6883      	ldr	r3, [r0, #8]
 80020a2:	6902      	ldr	r2, [r0, #16]
 80020a4:	4313      	orrs	r3, r2
 80020a6:	6942      	ldr	r2, [r0, #20]
 80020a8:	4313      	orrs	r3, r2
 80020aa:	69c2      	ldr	r2, [r0, #28]
 80020ac:	4313      	orrs	r3, r2
  MODIFY_REG(huart->Instance->CR1, USART_CR1_FIELDS, tmpreg);
 80020ae:	6801      	ldr	r1, [r0, #0]
 80020b0:	6808      	ldr	r0, [r1, #0]
 80020b2:	4a99      	ldr	r2, [pc, #612]	; (8002318 <UART_SetConfig+0x27c>)
 80020b4:	4002      	ands	r2, r0
 80020b6:	4313      	orrs	r3, r2
 80020b8:	600b      	str	r3, [r1, #0]

  /*-------------------------- USART CR2 Configuration -----------------------*/
  /* Configure the UART Stop Bits: Set STOP[13:12] bits according
  * to huart->Init.StopBits value */
  MODIFY_REG(huart->Instance->CR2, USART_CR2_STOP, huart->Init.StopBits);
 80020ba:	6822      	ldr	r2, [r4, #0]
 80020bc:	6853      	ldr	r3, [r2, #4]
 80020be:	f423 5340 	bic.w	r3, r3, #12288	; 0x3000
 80020c2:	68e1      	ldr	r1, [r4, #12]
 80020c4:	430b      	orrs	r3, r1
 80020c6:	6053      	str	r3, [r2, #4]
  /* Configure
  * - UART HardWare Flow Control: set CTSE and RTSE bits according
  *   to huart->Init.HwFlowCtl value
  * - one-bit sampling method versus three samples' majority rule according
  *   to huart->Init.OneBitSampling (not applicable to LPUART) */
  tmpreg = (uint32_t)huart->Init.HwFlowCtl;
 80020c8:	69a2      	ldr	r2, [r4, #24]

  tmpreg |= huart->Init.OneBitSampling;
 80020ca:	6a23      	ldr	r3, [r4, #32]
 80020cc:	431a      	orrs	r2, r3
  MODIFY_REG(huart->Instance->CR3, USART_CR3_FIELDS, tmpreg);
 80020ce:	6821      	ldr	r1, [r4, #0]
 80020d0:	688b      	ldr	r3, [r1, #8]
 80020d2:	f423 6330 	bic.w	r3, r3, #2816	; 0xb00
 80020d6:	4313      	orrs	r3, r2
 80020d8:	608b      	str	r3, [r1, #8]


  /*-------------------------- USART BRR Configuration -----------------------*/
  UART_GETCLOCKSOURCE(huart, clocksource);
 80020da:	6823      	ldr	r3, [r4, #0]
 80020dc:	4a8f      	ldr	r2, [pc, #572]	; (800231c <UART_SetConfig+0x280>)
 80020de:	4293      	cmp	r3, r2
 80020e0:	d018      	beq.n	8002114 <UART_SetConfig+0x78>
 80020e2:	4a8f      	ldr	r2, [pc, #572]	; (8002320 <UART_SetConfig+0x284>)
 80020e4:	4293      	cmp	r3, r2
 80020e6:	d028      	beq.n	800213a <UART_SetConfig+0x9e>
 80020e8:	4a8e      	ldr	r2, [pc, #568]	; (8002324 <UART_SetConfig+0x288>)
 80020ea:	4293      	cmp	r3, r2
 80020ec:	d03d      	beq.n	800216a <UART_SetConfig+0xce>
 80020ee:	4a8e      	ldr	r2, [pc, #568]	; (8002328 <UART_SetConfig+0x28c>)
 80020f0:	4293      	cmp	r3, r2
 80020f2:	d050      	beq.n	8002196 <UART_SetConfig+0xfa>
 80020f4:	4a8d      	ldr	r2, [pc, #564]	; (800232c <UART_SetConfig+0x290>)
 80020f6:	4293      	cmp	r3, r2
 80020f8:	d062      	beq.n	80021c0 <UART_SetConfig+0x124>
 80020fa:	4a8d      	ldr	r2, [pc, #564]	; (8002330 <UART_SetConfig+0x294>)
 80020fc:	4293      	cmp	r3, r2
 80020fe:	d077      	beq.n	80021f0 <UART_SetConfig+0x154>
 8002100:	4a8c      	ldr	r2, [pc, #560]	; (8002334 <UART_SetConfig+0x298>)
 8002102:	4293      	cmp	r3, r2
 8002104:	f000 808c 	beq.w	8002220 <UART_SetConfig+0x184>
 8002108:	4a8b      	ldr	r2, [pc, #556]	; (8002338 <UART_SetConfig+0x29c>)
 800210a:	4293      	cmp	r3, r2
 800210c:	f000 80a0 	beq.w	8002250 <UART_SetConfig+0x1b4>
 8002110:	2310      	movs	r3, #16
 8002112:	e0b6      	b.n	8002282 <UART_SetConfig+0x1e6>
 8002114:	4b89      	ldr	r3, [pc, #548]	; (800233c <UART_SetConfig+0x2a0>)
 8002116:	f8d3 3090 	ldr.w	r3, [r3, #144]	; 0x90
 800211a:	f003 0303 	and.w	r3, r3, #3
 800211e:	2b03      	cmp	r3, #3
 8002120:	d809      	bhi.n	8002136 <UART_SetConfig+0x9a>
 8002122:	e8df f003 	tbb	[pc, r3]
 8002126:	0402      	.short	0x0402
 8002128:	06ad      	.short	0x06ad
 800212a:	2301      	movs	r3, #1
 800212c:	e0a9      	b.n	8002282 <UART_SetConfig+0x1e6>
 800212e:	2304      	movs	r3, #4
 8002130:	e0a7      	b.n	8002282 <UART_SetConfig+0x1e6>
 8002132:	2308      	movs	r3, #8
 8002134:	e0a5      	b.n	8002282 <UART_SetConfig+0x1e6>
 8002136:	2310      	movs	r3, #16
 8002138:	e0a3      	b.n	8002282 <UART_SetConfig+0x1e6>
 800213a:	4b80      	ldr	r3, [pc, #512]	; (800233c <UART_SetConfig+0x2a0>)
 800213c:	f8d3 3090 	ldr.w	r3, [r3, #144]	; 0x90
 8002140:	f003 030c 	and.w	r3, r3, #12
 8002144:	2b0c      	cmp	r3, #12
 8002146:	d80e      	bhi.n	8002166 <UART_SetConfig+0xca>
 8002148:	e8df f003 	tbb	[pc, r3]
 800214c:	0d0d0d07 	.word	0x0d0d0d07
 8002150:	0d0d0d09 	.word	0x0d0d0d09
 8002154:	0d0d0da9 	.word	0x0d0d0da9
 8002158:	0b          	.byte	0x0b
 8002159:	00          	.byte	0x00
 800215a:	2300      	movs	r3, #0
 800215c:	e091      	b.n	8002282 <UART_SetConfig+0x1e6>
 800215e:	2304      	movs	r3, #4
 8002160:	e08f      	b.n	8002282 <UART_SetConfig+0x1e6>
 8002162:	2308      	movs	r3, #8
 8002164:	e08d      	b.n	8002282 <UART_SetConfig+0x1e6>
 8002166:	2310      	movs	r3, #16
 8002168:	e08b      	b.n	8002282 <UART_SetConfig+0x1e6>
 800216a:	4b74      	ldr	r3, [pc, #464]	; (800233c <UART_SetConfig+0x2a0>)
 800216c:	f8d3 3090 	ldr.w	r3, [r3, #144]	; 0x90
 8002170:	f003 0330 	and.w	r3, r3, #48	; 0x30
 8002174:	2b10      	cmp	r3, #16
 8002176:	d00a      	beq.n	800218e <UART_SetConfig+0xf2>
 8002178:	d906      	bls.n	8002188 <UART_SetConfig+0xec>
 800217a:	2b20      	cmp	r3, #32
 800217c:	f000 8091 	beq.w	80022a2 <UART_SetConfig+0x206>
 8002180:	2b30      	cmp	r3, #48	; 0x30
 8002182:	d106      	bne.n	8002192 <UART_SetConfig+0xf6>
 8002184:	2308      	movs	r3, #8
 8002186:	e07c      	b.n	8002282 <UART_SetConfig+0x1e6>
 8002188:	b91b      	cbnz	r3, 8002192 <UART_SetConfig+0xf6>
 800218a:	2300      	movs	r3, #0
 800218c:	e079      	b.n	8002282 <UART_SetConfig+0x1e6>
 800218e:	2304      	movs	r3, #4
 8002190:	e077      	b.n	8002282 <UART_SetConfig+0x1e6>
 8002192:	2310      	movs	r3, #16
 8002194:	e075      	b.n	8002282 <UART_SetConfig+0x1e6>
 8002196:	4b69      	ldr	r3, [pc, #420]	; (800233c <UART_SetConfig+0x2a0>)
 8002198:	f8d3 3090 	ldr.w	r3, [r3, #144]	; 0x90
 800219c:	f003 03c0 	and.w	r3, r3, #192	; 0xc0
 80021a0:	2b40      	cmp	r3, #64	; 0x40
 80021a2:	d009      	beq.n	80021b8 <UART_SetConfig+0x11c>
 80021a4:	d905      	bls.n	80021b2 <UART_SetConfig+0x116>
 80021a6:	2b80      	cmp	r3, #128	; 0x80
 80021a8:	d07d      	beq.n	80022a6 <UART_SetConfig+0x20a>
 80021aa:	2bc0      	cmp	r3, #192	; 0xc0
 80021ac:	d106      	bne.n	80021bc <UART_SetConfig+0x120>
 80021ae:	2308      	movs	r3, #8
 80021b0:	e067      	b.n	8002282 <UART_SetConfig+0x1e6>
 80021b2:	b91b      	cbnz	r3, 80021bc <UART_SetConfig+0x120>
 80021b4:	2300      	movs	r3, #0
 80021b6:	e064      	b.n	8002282 <UART_SetConfig+0x1e6>
 80021b8:	2304      	movs	r3, #4
 80021ba:	e062      	b.n	8002282 <UART_SetConfig+0x1e6>
 80021bc:	2310      	movs	r3, #16
 80021be:	e060      	b.n	8002282 <UART_SetConfig+0x1e6>
 80021c0:	4b5e      	ldr	r3, [pc, #376]	; (800233c <UART_SetConfig+0x2a0>)
 80021c2:	f8d3 3090 	ldr.w	r3, [r3, #144]	; 0x90
 80021c6:	f403 7340 	and.w	r3, r3, #768	; 0x300
 80021ca:	f5b3 7f80 	cmp.w	r3, #256	; 0x100
 80021ce:	d00b      	beq.n	80021e8 <UART_SetConfig+0x14c>
 80021d0:	d907      	bls.n	80021e2 <UART_SetConfig+0x146>
 80021d2:	f5b3 7f00 	cmp.w	r3, #512	; 0x200
 80021d6:	d068      	beq.n	80022aa <UART_SetConfig+0x20e>
 80021d8:	f5b3 7f40 	cmp.w	r3, #768	; 0x300
 80021dc:	d106      	bne.n	80021ec <UART_SetConfig+0x150>
 80021de:	2308      	movs	r3, #8
 80021e0:	e04f      	b.n	8002282 <UART_SetConfig+0x1e6>
 80021e2:	b91b      	cbnz	r3, 80021ec <UART_SetConfig+0x150>
 80021e4:	2300      	movs	r3, #0
 80021e6:	e04c      	b.n	8002282 <UART_SetConfig+0x1e6>
 80021e8:	2304      	movs	r3, #4
 80021ea:	e04a      	b.n	8002282 <UART_SetConfig+0x1e6>
 80021ec:	2310      	movs	r3, #16
 80021ee:	e048      	b.n	8002282 <UART_SetConfig+0x1e6>
 80021f0:	4b52      	ldr	r3, [pc, #328]	; (800233c <UART_SetConfig+0x2a0>)
 80021f2:	f8d3 3090 	ldr.w	r3, [r3, #144]	; 0x90
 80021f6:	f403 6340 	and.w	r3, r3, #3072	; 0xc00
 80021fa:	f5b3 6f80 	cmp.w	r3, #1024	; 0x400
 80021fe:	d00b      	beq.n	8002218 <UART_SetConfig+0x17c>
 8002200:	d907      	bls.n	8002212 <UART_SetConfig+0x176>
 8002202:	f5b3 6f00 	cmp.w	r3, #2048	; 0x800
 8002206:	d052      	beq.n	80022ae <UART_SetConfig+0x212>
 8002208:	f5b3 6f40 	cmp.w	r3, #3072	; 0xc00
 800220c:	d106      	bne.n	800221c <UART_SetConfig+0x180>
 800220e:	2308      	movs	r3, #8
 8002210:	e037      	b.n	8002282 <UART_SetConfig+0x1e6>
 8002212:	b91b      	cbnz	r3, 800221c <UART_SetConfig+0x180>
 8002214:	2301      	movs	r3, #1
 8002216:	e034      	b.n	8002282 <UART_SetConfig+0x1e6>
 8002218:	2304      	movs	r3, #4
 800221a:	e032      	b.n	8002282 <UART_SetConfig+0x1e6>
 800221c:	2310      	movs	r3, #16
 800221e:	e030      	b.n	8002282 <UART_SetConfig+0x1e6>
 8002220:	4b46      	ldr	r3, [pc, #280]	; (800233c <UART_SetConfig+0x2a0>)
 8002222:	f8d3 3090 	ldr.w	r3, [r3, #144]	; 0x90
 8002226:	f403 5340 	and.w	r3, r3, #12288	; 0x3000
 800222a:	f5b3 5f80 	cmp.w	r3, #4096	; 0x1000
 800222e:	d00b      	beq.n	8002248 <UART_SetConfig+0x1ac>
 8002230:	d907      	bls.n	8002242 <UART_SetConfig+0x1a6>
 8002232:	f5b3 5f00 	cmp.w	r3, #8192	; 0x2000
 8002236:	d03c      	beq.n	80022b2 <UART_SetConfig+0x216>
 8002238:	f5b3 5f40 	cmp.w	r3, #12288	; 0x3000
 800223c:	d106      	bne.n	800224c <UART_SetConfig+0x1b0>
 800223e:	2308      	movs	r3, #8
 8002240:	e01f      	b.n	8002282 <UART_SetConfig+0x1e6>
 8002242:	b91b      	cbnz	r3, 800224c <UART_SetConfig+0x1b0>
 8002244:	2300      	movs	r3, #0
 8002246:	e01c      	b.n	8002282 <UART_SetConfig+0x1e6>
 8002248:	2304      	movs	r3, #4
 800224a:	e01a      	b.n	8002282 <UART_SetConfig+0x1e6>
 800224c:	2310      	movs	r3, #16
 800224e:	e018      	b.n	8002282 <UART_SetConfig+0x1e6>
 8002250:	4b3a      	ldr	r3, [pc, #232]	; (800233c <UART_SetConfig+0x2a0>)
 8002252:	f8d3 3090 	ldr.w	r3, [r3, #144]	; 0x90
 8002256:	f403 4340 	and.w	r3, r3, #49152	; 0xc000
 800225a:	f5b3 4f80 	cmp.w	r3, #16384	; 0x4000
 800225e:	d00b      	beq.n	8002278 <UART_SetConfig+0x1dc>
 8002260:	d907      	bls.n	8002272 <UART_SetConfig+0x1d6>
 8002262:	f5b3 4f00 	cmp.w	r3, #32768	; 0x8000
 8002266:	d026      	beq.n	80022b6 <UART_SetConfig+0x21a>
 8002268:	f5b3 4f40 	cmp.w	r3, #49152	; 0xc000
 800226c:	d106      	bne.n	800227c <UART_SetConfig+0x1e0>
 800226e:	2308      	movs	r3, #8
 8002270:	e007      	b.n	8002282 <UART_SetConfig+0x1e6>
 8002272:	b91b      	cbnz	r3, 800227c <UART_SetConfig+0x1e0>
 8002274:	2300      	movs	r3, #0
 8002276:	e004      	b.n	8002282 <UART_SetConfig+0x1e6>
 8002278:	2304      	movs	r3, #4
 800227a:	e002      	b.n	8002282 <UART_SetConfig+0x1e6>
 800227c:	2310      	movs	r3, #16
 800227e:	e000      	b.n	8002282 <UART_SetConfig+0x1e6>
 8002280:	2302      	movs	r3, #2

  if (huart->Init.OverSampling == UART_OVERSAMPLING_8)
 8002282:	69e2      	ldr	r2, [r4, #28]
 8002284:	f5b2 4f00 	cmp.w	r2, #32768	; 0x8000
 8002288:	d017      	beq.n	80022ba <UART_SetConfig+0x21e>
      ret = HAL_ERROR;
    }
  }
  else
  {
    switch (clocksource)
 800228a:	2b08      	cmp	r3, #8
 800228c:	f200 80b3 	bhi.w	80023f6 <UART_SetConfig+0x35a>
 8002290:	e8df f003 	tbb	[pc, r3]
 8002294:	b1958b76 	.word	0xb1958b76
 8002298:	b1b1b19e 	.word	0xb1b1b19e
 800229c:	a8          	.byte	0xa8
 800229d:	00          	.byte	0x00
  UART_GETCLOCKSOURCE(huart, clocksource);
 800229e:	2302      	movs	r3, #2
 80022a0:	e7ef      	b.n	8002282 <UART_SetConfig+0x1e6>
 80022a2:	2302      	movs	r3, #2
 80022a4:	e7ed      	b.n	8002282 <UART_SetConfig+0x1e6>
 80022a6:	2302      	movs	r3, #2
 80022a8:	e7eb      	b.n	8002282 <UART_SetConfig+0x1e6>
 80022aa:	2302      	movs	r3, #2
 80022ac:	e7e9      	b.n	8002282 <UART_SetConfig+0x1e6>
 80022ae:	2302      	movs	r3, #2
 80022b0:	e7e7      	b.n	8002282 <UART_SetConfig+0x1e6>
 80022b2:	2302      	movs	r3, #2
 80022b4:	e7e5      	b.n	8002282 <UART_SetConfig+0x1e6>
 80022b6:	2302      	movs	r3, #2
 80022b8:	e7e3      	b.n	8002282 <UART_SetConfig+0x1e6>
    switch (clocksource)
 80022ba:	2b08      	cmp	r3, #8
 80022bc:	d85d      	bhi.n	800237a <UART_SetConfig+0x2de>
 80022be:	e8df f003 	tbb	[pc, r3]
 80022c2:	1f05      	.short	0x1f05
 80022c4:	5c485c3f 	.word	0x5c485c3f
 80022c8:	5c5c      	.short	0x5c5c
 80022ca:	53          	.byte	0x53
 80022cb:	00          	.byte	0x00
        usartdiv = (uint16_t)(UART_DIV_SAMPLING8(HAL_RCC_GetPCLK1Freq(), huart->Init.BaudRate));
 80022cc:	f7ff fc52 	bl	8001b74 <HAL_RCC_GetPCLK1Freq>
 80022d0:	6862      	ldr	r2, [r4, #4]
 80022d2:	0853      	lsrs	r3, r2, #1
 80022d4:	eb03 0340 	add.w	r3, r3, r0, lsl #1
 80022d8:	fbb3 f3f2 	udiv	r3, r3, r2
 80022dc:	b29b      	uxth	r3, r3
  HAL_StatusTypeDef ret               = HAL_OK;
 80022de:	2000      	movs	r0, #0
    if ((usartdiv >= UART_BRR_MIN) && (usartdiv <= UART_BRR_MAX))
 80022e0:	f1a3 0110 	sub.w	r1, r3, #16
 80022e4:	f64f 72ef 	movw	r2, #65519	; 0xffef
 80022e8:	4291      	cmp	r1, r2
 80022ea:	f200 8087 	bhi.w	80023fc <UART_SetConfig+0x360>
      brrtemp = (uint16_t)(usartdiv & 0xFFF0U);
 80022ee:	b29a      	uxth	r2, r3
 80022f0:	f022 020f 	bic.w	r2, r2, #15
      brrtemp |= (uint16_t)((usartdiv & (uint16_t)0x000FU) >> 1U);
 80022f4:	f3c3 0342 	ubfx	r3, r3, #1, #3
 80022f8:	4313      	orrs	r3, r2
      huart->Instance->BRR = brrtemp;
 80022fa:	6822      	ldr	r2, [r4, #0]
 80022fc:	60d3      	str	r3, [r2, #12]
 80022fe:	e050      	b.n	80023a2 <UART_SetConfig+0x306>
        usartdiv = (uint16_t)(UART_DIV_SAMPLING8(HAL_RCC_GetPCLK2Freq(), huart->Init.BaudRate));
 8002300:	f7ff fc48 	bl	8001b94 <HAL_RCC_GetPCLK2Freq>
 8002304:	6862      	ldr	r2, [r4, #4]
 8002306:	0853      	lsrs	r3, r2, #1
 8002308:	eb03 0340 	add.w	r3, r3, r0, lsl #1
 800230c:	fbb3 f3f2 	udiv	r3, r3, r2
 8002310:	b29b      	uxth	r3, r3
  HAL_StatusTypeDef ret               = HAL_OK;
 8002312:	2000      	movs	r0, #0
        break;
 8002314:	e7e4      	b.n	80022e0 <UART_SetConfig+0x244>
 8002316:	bf00      	nop
 8002318:	efff69f3 	.word	0xefff69f3
 800231c:	40011000 	.word	0x40011000
 8002320:	40004400 	.word	0x40004400
 8002324:	40004800 	.word	0x40004800
 8002328:	40004c00 	.word	0x40004c00
 800232c:	40005000 	.word	0x40005000
 8002330:	40011400 	.word	0x40011400
 8002334:	40007800 	.word	0x40007800
 8002338:	40007c00 	.word	0x40007c00
 800233c:	40023800 	.word	0x40023800
        usartdiv = (uint16_t)(UART_DIV_SAMPLING8(HSI_VALUE, huart->Init.BaudRate));
 8002340:	6862      	ldr	r2, [r4, #4]
 8002342:	4b30      	ldr	r3, [pc, #192]	; (8002404 <UART_SetConfig+0x368>)
 8002344:	eb03 0352 	add.w	r3, r3, r2, lsr #1
 8002348:	fbb3 f3f2 	udiv	r3, r3, r2
 800234c:	b29b      	uxth	r3, r3
  HAL_StatusTypeDef ret               = HAL_OK;
 800234e:	2000      	movs	r0, #0
        break;
 8002350:	e7c6      	b.n	80022e0 <UART_SetConfig+0x244>
        usartdiv = (uint16_t)(UART_DIV_SAMPLING8(HAL_RCC_GetSysClockFreq(), huart->Init.BaudRate));
 8002352:	f7ff faeb 	bl	800192c <HAL_RCC_GetSysClockFreq>
 8002356:	6862      	ldr	r2, [r4, #4]
 8002358:	0853      	lsrs	r3, r2, #1
 800235a:	eb03 0340 	add.w	r3, r3, r0, lsl #1
 800235e:	fbb3 f3f2 	udiv	r3, r3, r2
 8002362:	b29b      	uxth	r3, r3
  HAL_StatusTypeDef ret               = HAL_OK;
 8002364:	2000      	movs	r0, #0
        break;
 8002366:	e7bb      	b.n	80022e0 <UART_SetConfig+0x244>
        usartdiv = (uint16_t)(UART_DIV_SAMPLING8(LSE_VALUE, huart->Init.BaudRate));
 8002368:	6862      	ldr	r2, [r4, #4]
 800236a:	0853      	lsrs	r3, r2, #1
 800236c:	f503 3380 	add.w	r3, r3, #65536	; 0x10000
 8002370:	fbb3 f3f2 	udiv	r3, r3, r2
 8002374:	b29b      	uxth	r3, r3
  HAL_StatusTypeDef ret               = HAL_OK;
 8002376:	2000      	movs	r0, #0
        break;
 8002378:	e7b2      	b.n	80022e0 <UART_SetConfig+0x244>
        ret = HAL_ERROR;
 800237a:	2001      	movs	r0, #1
  uint32_t usartdiv                   = 0x00000000U;
 800237c:	2300      	movs	r3, #0
 800237e:	e7af      	b.n	80022e0 <UART_SetConfig+0x244>
    {
      case UART_CLOCKSOURCE_PCLK1:
        usartdiv = (uint16_t)(UART_DIV_SAMPLING16(HAL_RCC_GetPCLK1Freq(), huart->Init.BaudRate));
 8002380:	f7ff fbf8 	bl	8001b74 <HAL_RCC_GetPCLK1Freq>
 8002384:	6862      	ldr	r2, [r4, #4]
 8002386:	eb00 0352 	add.w	r3, r0, r2, lsr #1
 800238a:	fbb3 f3f2 	udiv	r3, r3, r2
 800238e:	b29b      	uxth	r3, r3
  HAL_StatusTypeDef ret               = HAL_OK;
 8002390:	2000      	movs	r0, #0
        ret = HAL_ERROR;
        break;
    }

    /* USARTDIV must be greater than or equal to 0d16 */
    if ((usartdiv >= UART_BRR_MIN) && (usartdiv <= UART_BRR_MAX))
 8002392:	f1a3 0110 	sub.w	r1, r3, #16
 8002396:	f64f 72ef 	movw	r2, #65519	; 0xffef
 800239a:	4291      	cmp	r1, r2
 800239c:	d830      	bhi.n	8002400 <UART_SetConfig+0x364>
    {
      huart->Instance->BRR = usartdiv;
 800239e:	6822      	ldr	r2, [r4, #0]
 80023a0:	60d3      	str	r3, [r2, #12]
    }
  }


  /* Clear ISR function pointers */
  huart->RxISR = NULL;
 80023a2:	2300      	movs	r3, #0
 80023a4:	6623      	str	r3, [r4, #96]	; 0x60
  huart->TxISR = NULL;
 80023a6:	6663      	str	r3, [r4, #100]	; 0x64

  return ret;
}
 80023a8:	bd10      	pop	{r4, pc}
        usartdiv = (uint16_t)(UART_DIV_SAMPLING16(HAL_RCC_GetPCLK2Freq(), huart->Init.BaudRate));
 80023aa:	f7ff fbf3 	bl	8001b94 <HAL_RCC_GetPCLK2Freq>
 80023ae:	6862      	ldr	r2, [r4, #4]
 80023b0:	eb00 0352 	add.w	r3, r0, r2, lsr #1
 80023b4:	fbb3 f3f2 	udiv	r3, r3, r2
 80023b8:	b29b      	uxth	r3, r3
  HAL_StatusTypeDef ret               = HAL_OK;
 80023ba:	2000      	movs	r0, #0
        break;
 80023bc:	e7e9      	b.n	8002392 <UART_SetConfig+0x2f6>
        usartdiv = (uint16_t)(UART_DIV_SAMPLING16(HSI_VALUE, huart->Init.BaudRate));
 80023be:	6862      	ldr	r2, [r4, #4]
 80023c0:	4b11      	ldr	r3, [pc, #68]	; (8002408 <UART_SetConfig+0x36c>)
 80023c2:	eb03 0352 	add.w	r3, r3, r2, lsr #1
 80023c6:	fbb3 f3f2 	udiv	r3, r3, r2
 80023ca:	b29b      	uxth	r3, r3
  HAL_StatusTypeDef ret               = HAL_OK;
 80023cc:	2000      	movs	r0, #0
        break;
 80023ce:	e7e0      	b.n	8002392 <UART_SetConfig+0x2f6>
        usartdiv = (uint16_t)(UART_DIV_SAMPLING16(HAL_RCC_GetSysClockFreq(), huart->Init.BaudRate));
 80023d0:	f7ff faac 	bl	800192c <HAL_RCC_GetSysClockFreq>
 80023d4:	6862      	ldr	r2, [r4, #4]
 80023d6:	eb00 0352 	add.w	r3, r0, r2, lsr #1
 80023da:	fbb3 f3f2 	udiv	r3, r3, r2
 80023de:	b29b      	uxth	r3, r3
  HAL_StatusTypeDef ret               = HAL_OK;
 80023e0:	2000      	movs	r0, #0
        break;
 80023e2:	e7d6      	b.n	8002392 <UART_SetConfig+0x2f6>
        usartdiv = (uint16_t)(UART_DIV_SAMPLING16(LSE_VALUE, huart->Init.BaudRate));
 80023e4:	6862      	ldr	r2, [r4, #4]
 80023e6:	0853      	lsrs	r3, r2, #1
 80023e8:	f503 4300 	add.w	r3, r3, #32768	; 0x8000
 80023ec:	fbb3 f3f2 	udiv	r3, r3, r2
 80023f0:	b29b      	uxth	r3, r3
  HAL_StatusTypeDef ret               = HAL_OK;
 80023f2:	2000      	movs	r0, #0
        break;
 80023f4:	e7cd      	b.n	8002392 <UART_SetConfig+0x2f6>
        ret = HAL_ERROR;
 80023f6:	2001      	movs	r0, #1
  uint32_t usartdiv                   = 0x00000000U;
 80023f8:	2300      	movs	r3, #0
 80023fa:	e7ca      	b.n	8002392 <UART_SetConfig+0x2f6>
      ret = HAL_ERROR;
 80023fc:	2001      	movs	r0, #1
 80023fe:	e7d0      	b.n	80023a2 <UART_SetConfig+0x306>
      ret = HAL_ERROR;
 8002400:	2001      	movs	r0, #1
 8002402:	e7ce      	b.n	80023a2 <UART_SetConfig+0x306>
 8002404:	01e84800 	.word	0x01e84800
 8002408:	00f42400 	.word	0x00f42400

0800240c <UART_AdvFeatureConfig>:
{
  /* Check whether the set of advanced features to configure is properly set */
  assert_param(IS_UART_ADVFEATURE_INIT(huart->AdvancedInit.AdvFeatureInit));

  /* if required, configure TX pin active level inversion */
  if (HAL_IS_BIT_SET(huart->AdvancedInit.AdvFeatureInit, UART_ADVFEATURE_TXINVERT_INIT))
 800240c:	6a43      	ldr	r3, [r0, #36]	; 0x24
 800240e:	f013 0f01 	tst.w	r3, #1
 8002412:	d006      	beq.n	8002422 <UART_AdvFeatureConfig+0x16>
  {
    assert_param(IS_UART_ADVFEATURE_TXINV(huart->AdvancedInit.TxPinLevelInvert));
    MODIFY_REG(huart->Instance->CR2, USART_CR2_TXINV, huart->AdvancedInit.TxPinLevelInvert);
 8002414:	6802      	ldr	r2, [r0, #0]
 8002416:	6853      	ldr	r3, [r2, #4]
 8002418:	f423 3300 	bic.w	r3, r3, #131072	; 0x20000
 800241c:	6a81      	ldr	r1, [r0, #40]	; 0x28
 800241e:	430b      	orrs	r3, r1
 8002420:	6053      	str	r3, [r2, #4]
  }

  /* if required, configure RX pin active level inversion */
  if (HAL_IS_BIT_SET(huart->AdvancedInit.AdvFeatureInit, UART_ADVFEATURE_RXINVERT_INIT))
 8002422:	6a43      	ldr	r3, [r0, #36]	; 0x24
 8002424:	f013 0f02 	tst.w	r3, #2
 8002428:	d006      	beq.n	8002438 <UART_AdvFeatureConfig+0x2c>
  {
    assert_param(IS_UART_ADVFEATURE_RXINV(huart->AdvancedInit.RxPinLevelInvert));
    MODIFY_REG(huart->Instance->CR2, USART_CR2_RXINV, huart->AdvancedInit.RxPinLevelInvert);
 800242a:	6802      	ldr	r2, [r0, #0]
 800242c:	6853      	ldr	r3, [r2, #4]
 800242e:	f423 3380 	bic.w	r3, r3, #65536	; 0x10000
 8002432:	6ac1      	ldr	r1, [r0, #44]	; 0x2c
 8002434:	430b      	orrs	r3, r1
 8002436:	6053      	str	r3, [r2, #4]
  }

  /* if required, configure data inversion */
  if (HAL_IS_BIT_SET(huart->AdvancedInit.AdvFeatureInit, UART_ADVFEATURE_DATAINVERT_INIT))
 8002438:	6a43      	ldr	r3, [r0, #36]	; 0x24
 800243a:	f013 0f04 	tst.w	r3, #4
 800243e:	d006      	beq.n	800244e <UART_AdvFeatureConfig+0x42>
  {
    assert_param(IS_UART_ADVFEATURE_DATAINV(huart->AdvancedInit.DataInvert));
    MODIFY_REG(huart->Instance->CR2, USART_CR2_DATAINV, huart->AdvancedInit.DataInvert);
 8002440:	6802      	ldr	r2, [r0, #0]
 8002442:	6853      	ldr	r3, [r2, #4]
 8002444:	f423 2380 	bic.w	r3, r3, #262144	; 0x40000
 8002448:	6b01      	ldr	r1, [r0, #48]	; 0x30
 800244a:	430b      	orrs	r3, r1
 800244c:	6053      	str	r3, [r2, #4]
  }

  /* if required, configure RX/TX pins swap */
  if (HAL_IS_BIT_SET(huart->AdvancedInit.AdvFeatureInit, UART_ADVFEATURE_SWAP_INIT))
 800244e:	6a43      	ldr	r3, [r0, #36]	; 0x24
 8002450:	f013 0f08 	tst.w	r3, #8
 8002454:	d006      	beq.n	8002464 <UART_AdvFeatureConfig+0x58>
  {
    assert_param(IS_UART_ADVFEATURE_SWAP(huart->AdvancedInit.Swap));
    MODIFY_REG(huart->Instance->CR2, USART_CR2_SWAP, huart->AdvancedInit.Swap);
 8002456:	6802      	ldr	r2, [r0, #0]
 8002458:	6853      	ldr	r3, [r2, #4]
 800245a:	f423 4300 	bic.w	r3, r3, #32768	; 0x8000
 800245e:	6b41      	ldr	r1, [r0, #52]	; 0x34
 8002460:	430b      	orrs	r3, r1
 8002462:	6053      	str	r3, [r2, #4]
  }

  /* if required, configure RX overrun detection disabling */
  if (HAL_IS_BIT_SET(huart->AdvancedInit.AdvFeatureInit, UART_ADVFEATURE_RXOVERRUNDISABLE_INIT))
 8002464:	6a43      	ldr	r3, [r0, #36]	; 0x24
 8002466:	f013 0f10 	tst.w	r3, #16
 800246a:	d006      	beq.n	800247a <UART_AdvFeatureConfig+0x6e>
  {
    assert_param(IS_UART_OVERRUN(huart->AdvancedInit.OverrunDisable));
    MODIFY_REG(huart->Instance->CR3, USART_CR3_OVRDIS, huart->AdvancedInit.OverrunDisable);
 800246c:	6802      	ldr	r2, [r0, #0]
 800246e:	6893      	ldr	r3, [r2, #8]
 8002470:	f423 5380 	bic.w	r3, r3, #4096	; 0x1000
 8002474:	6b81      	ldr	r1, [r0, #56]	; 0x38
 8002476:	430b      	orrs	r3, r1
 8002478:	6093      	str	r3, [r2, #8]
  }

  /* if required, configure DMA disabling on reception error */
  if (HAL_IS_BIT_SET(huart->AdvancedInit.AdvFeatureInit, UART_ADVFEATURE_DMADISABLEONERROR_INIT))
 800247a:	6a43      	ldr	r3, [r0, #36]	; 0x24
 800247c:	f013 0f20 	tst.w	r3, #32
 8002480:	d006      	beq.n	8002490 <UART_AdvFeatureConfig+0x84>
  {
    assert_param(IS_UART_ADVFEATURE_DMAONRXERROR(huart->AdvancedInit.DMADisableonRxError));
    MODIFY_REG(huart->Instance->CR3, USART_CR3_DDRE, huart->AdvancedInit.DMADisableonRxError);
 8002482:	6802      	ldr	r2, [r0, #0]
 8002484:	6893      	ldr	r3, [r2, #8]
 8002486:	f423 5300 	bic.w	r3, r3, #8192	; 0x2000
 800248a:	6bc1      	ldr	r1, [r0, #60]	; 0x3c
 800248c:	430b      	orrs	r3, r1
 800248e:	6093      	str	r3, [r2, #8]
  }

  /* if required, configure auto Baud rate detection scheme */
  if (HAL_IS_BIT_SET(huart->AdvancedInit.AdvFeatureInit, UART_ADVFEATURE_AUTOBAUDRATE_INIT))
 8002490:	6a43      	ldr	r3, [r0, #36]	; 0x24
 8002492:	f013 0f40 	tst.w	r3, #64	; 0x40
 8002496:	d00a      	beq.n	80024ae <UART_AdvFeatureConfig+0xa2>
  {
    assert_param(IS_USART_AUTOBAUDRATE_DETECTION_INSTANCE(huart->Instance));
    assert_param(IS_UART_ADVFEATURE_AUTOBAUDRATE(huart->AdvancedInit.AutoBaudRateEnable));
    MODIFY_REG(huart->Instance->CR2, USART_CR2_ABREN, huart->AdvancedInit.AutoBaudRateEnable);
 8002498:	6802      	ldr	r2, [r0, #0]
 800249a:	6853      	ldr	r3, [r2, #4]
 800249c:	f423 1380 	bic.w	r3, r3, #1048576	; 0x100000
 80024a0:	6c01      	ldr	r1, [r0, #64]	; 0x40
 80024a2:	430b      	orrs	r3, r1
 80024a4:	6053      	str	r3, [r2, #4]
    /* set auto Baudrate detection parameters if detection is enabled */
    if (huart->AdvancedInit.AutoBaudRateEnable == UART_ADVFEATURE_AUTOBAUDRATE_ENABLE)
 80024a6:	6c03      	ldr	r3, [r0, #64]	; 0x40
 80024a8:	f5b3 1f80 	cmp.w	r3, #1048576	; 0x100000
 80024ac:	d00b      	beq.n	80024c6 <UART_AdvFeatureConfig+0xba>
      MODIFY_REG(huart->Instance->CR2, USART_CR2_ABRMODE, huart->AdvancedInit.AutoBaudRateMode);
    }
  }

  /* if required, configure MSB first on communication line */
  if (HAL_IS_BIT_SET(huart->AdvancedInit.AdvFeatureInit, UART_ADVFEATURE_MSBFIRST_INIT))
 80024ae:	6a43      	ldr	r3, [r0, #36]	; 0x24
 80024b0:	f013 0f80 	tst.w	r3, #128	; 0x80
 80024b4:	d006      	beq.n	80024c4 <UART_AdvFeatureConfig+0xb8>
  {
    assert_param(IS_UART_ADVFEATURE_MSBFIRST(huart->AdvancedInit.MSBFirst));
    MODIFY_REG(huart->Instance->CR2, USART_CR2_MSBFIRST, huart->AdvancedInit.MSBFirst);
 80024b6:	6802      	ldr	r2, [r0, #0]
 80024b8:	6853      	ldr	r3, [r2, #4]
 80024ba:	f423 2300 	bic.w	r3, r3, #524288	; 0x80000
 80024be:	6c81      	ldr	r1, [r0, #72]	; 0x48
 80024c0:	430b      	orrs	r3, r1
 80024c2:	6053      	str	r3, [r2, #4]
  }
}
 80024c4:	4770      	bx	lr
      MODIFY_REG(huart->Instance->CR2, USART_CR2_ABRMODE, huart->AdvancedInit.AutoBaudRateMode);
 80024c6:	6802      	ldr	r2, [r0, #0]
 80024c8:	6853      	ldr	r3, [r2, #4]
 80024ca:	f423 03c0 	bic.w	r3, r3, #6291456	; 0x600000
 80024ce:	6c41      	ldr	r1, [r0, #68]	; 0x44
 80024d0:	430b      	orrs	r3, r1
 80024d2:	6053      	str	r3, [r2, #4]
 80024d4:	e7eb      	b.n	80024ae <UART_AdvFeatureConfig+0xa2>

080024d6 <UART_WaitOnFlagUntilTimeout>:
  * @param Tickstart Tick start value
  * @param Timeout   Timeout duration
  * @retval HAL status
  */
HAL_StatusTypeDef UART_WaitOnFlagUntilTimeout(UART_HandleTypeDef *huart, uint32_t Flag, FlagStatus Status, uint32_t Tickstart, uint32_t Timeout)
{
 80024d6:	e92d 41f0 	stmdb	sp!, {r4, r5, r6, r7, r8, lr}
 80024da:	4605      	mov	r5, r0
 80024dc:	460f      	mov	r7, r1
 80024de:	4616      	mov	r6, r2
 80024e0:	4698      	mov	r8, r3
 80024e2:	9c06      	ldr	r4, [sp, #24]
  /* Wait until flag is set */
  while ((__HAL_UART_GET_FLAG(huart, Flag) ? SET : RESET) == Status)
 80024e4:	682b      	ldr	r3, [r5, #0]
 80024e6:	69db      	ldr	r3, [r3, #28]
 80024e8:	ea37 0303 	bics.w	r3, r7, r3
 80024ec:	bf0c      	ite	eq
 80024ee:	2301      	moveq	r3, #1
 80024f0:	2300      	movne	r3, #0
 80024f2:	42b3      	cmp	r3, r6
 80024f4:	d11c      	bne.n	8002530 <UART_WaitOnFlagUntilTimeout+0x5a>
  {
    /* Check for the Timeout */
    if (Timeout != HAL_MAX_DELAY)
 80024f6:	f1b4 3fff 	cmp.w	r4, #4294967295
 80024fa:	d0f3      	beq.n	80024e4 <UART_WaitOnFlagUntilTimeout+0xe>
    {
      if (((HAL_GetTick() - Tickstart) > Timeout) || (Timeout == 0U))
 80024fc:	f7fe f8a4 	bl	8000648 <HAL_GetTick>
 8002500:	eba0 0008 	sub.w	r0, r0, r8
 8002504:	42a0      	cmp	r0, r4
 8002506:	d801      	bhi.n	800250c <UART_WaitOnFlagUntilTimeout+0x36>
 8002508:	2c00      	cmp	r4, #0
 800250a:	d1eb      	bne.n	80024e4 <UART_WaitOnFlagUntilTimeout+0xe>
      {
        /* Disable TXE, RXNE, PE and ERR (Frame error, noise error, overrun error) interrupts for the interrupt process */
        CLEAR_BIT(huart->Instance->CR1, (USART_CR1_RXNEIE | USART_CR1_PEIE | USART_CR1_TXEIE));
 800250c:	682a      	ldr	r2, [r5, #0]
 800250e:	6813      	ldr	r3, [r2, #0]
 8002510:	f423 73d0 	bic.w	r3, r3, #416	; 0x1a0
 8002514:	6013      	str	r3, [r2, #0]
        CLEAR_BIT(huart->Instance->CR3, USART_CR3_EIE);
 8002516:	682a      	ldr	r2, [r5, #0]
 8002518:	6893      	ldr	r3, [r2, #8]
 800251a:	f023 0301 	bic.w	r3, r3, #1
 800251e:	6093      	str	r3, [r2, #8]

        huart->gState = HAL_UART_STATE_READY;
 8002520:	2320      	movs	r3, #32
 8002522:	676b      	str	r3, [r5, #116]	; 0x74
        huart->RxState = HAL_UART_STATE_READY;
 8002524:	67ab      	str	r3, [r5, #120]	; 0x78

        /* Process Unlocked */
        __HAL_UNLOCK(huart);
 8002526:	2300      	movs	r3, #0
 8002528:	f885 3070 	strb.w	r3, [r5, #112]	; 0x70

        return HAL_TIMEOUT;
 800252c:	2003      	movs	r0, #3
 800252e:	e000      	b.n	8002532 <UART_WaitOnFlagUntilTimeout+0x5c>
      }
    }
  }
  return HAL_OK;
 8002530:	2000      	movs	r0, #0
}
 8002532:	e8bd 81f0 	ldmia.w	sp!, {r4, r5, r6, r7, r8, pc}

08002536 <UART_CheckIdleState>:
{
 8002536:	b510      	push	{r4, lr}
 8002538:	b082      	sub	sp, #8
 800253a:	4604      	mov	r4, r0
  huart->ErrorCode = HAL_UART_ERROR_NONE;
 800253c:	2300      	movs	r3, #0
 800253e:	67c3      	str	r3, [r0, #124]	; 0x7c
  tickstart = HAL_GetTick();
 8002540:	f7fe f882 	bl	8000648 <HAL_GetTick>
  if ((huart->Instance->CR1 & USART_CR1_TE) == USART_CR1_TE)
 8002544:	6822      	ldr	r2, [r4, #0]
 8002546:	6812      	ldr	r2, [r2, #0]
 8002548:	f012 0f08 	tst.w	r2, #8
 800254c:	d107      	bne.n	800255e <UART_CheckIdleState+0x28>
  huart->gState = HAL_UART_STATE_READY;
 800254e:	2320      	movs	r3, #32
 8002550:	6763      	str	r3, [r4, #116]	; 0x74
  huart->RxState = HAL_UART_STATE_READY;
 8002552:	67a3      	str	r3, [r4, #120]	; 0x78
  __HAL_UNLOCK(huart);
 8002554:	2000      	movs	r0, #0
 8002556:	f884 0070 	strb.w	r0, [r4, #112]	; 0x70
}
 800255a:	b002      	add	sp, #8
 800255c:	bd10      	pop	{r4, pc}
    if (UART_WaitOnFlagUntilTimeout(huart, USART_ISR_TEACK, RESET, tickstart, HAL_UART_TIMEOUT_VALUE) != HAL_OK)
 800255e:	f06f 437e 	mvn.w	r3, #4261412864	; 0xfe000000
 8002562:	9300      	str	r3, [sp, #0]
 8002564:	4603      	mov	r3, r0
 8002566:	2200      	movs	r2, #0
 8002568:	f44f 1100 	mov.w	r1, #2097152	; 0x200000
 800256c:	4620      	mov	r0, r4
 800256e:	f7ff ffb2 	bl	80024d6 <UART_WaitOnFlagUntilTimeout>
 8002572:	2800      	cmp	r0, #0
 8002574:	d0eb      	beq.n	800254e <UART_CheckIdleState+0x18>
      return HAL_TIMEOUT;
 8002576:	2003      	movs	r0, #3
 8002578:	e7ef      	b.n	800255a <UART_CheckIdleState+0x24>

0800257a <HAL_UART_Init>:
  if (huart == NULL)
 800257a:	b368      	cbz	r0, 80025d8 <HAL_UART_Init+0x5e>
{
 800257c:	b510      	push	{r4, lr}
 800257e:	4604      	mov	r4, r0
  if (huart->gState == HAL_UART_STATE_RESET)
 8002580:	6f43      	ldr	r3, [r0, #116]	; 0x74
 8002582:	b303      	cbz	r3, 80025c6 <HAL_UART_Init+0x4c>
  huart->gState = HAL_UART_STATE_BUSY;
 8002584:	2324      	movs	r3, #36	; 0x24
 8002586:	6763      	str	r3, [r4, #116]	; 0x74
  __HAL_UART_DISABLE(huart);
 8002588:	6822      	ldr	r2, [r4, #0]
 800258a:	6813      	ldr	r3, [r2, #0]
 800258c:	f023 0301 	bic.w	r3, r3, #1
 8002590:	6013      	str	r3, [r2, #0]
  if (UART_SetConfig(huart) == HAL_ERROR)
 8002592:	4620      	mov	r0, r4
 8002594:	f7ff fd82 	bl	800209c <UART_SetConfig>
 8002598:	2801      	cmp	r0, #1
 800259a:	d013      	beq.n	80025c4 <HAL_UART_Init+0x4a>
  if (huart->AdvancedInit.AdvFeatureInit != UART_ADVFEATURE_NO_INIT)
 800259c:	6a63      	ldr	r3, [r4, #36]	; 0x24
 800259e:	b9bb      	cbnz	r3, 80025d0 <HAL_UART_Init+0x56>
  CLEAR_BIT(huart->Instance->CR2, (USART_CR2_LINEN | USART_CR2_CLKEN));
 80025a0:	6822      	ldr	r2, [r4, #0]
 80025a2:	6853      	ldr	r3, [r2, #4]
 80025a4:	f423 4390 	bic.w	r3, r3, #18432	; 0x4800
 80025a8:	6053      	str	r3, [r2, #4]
  CLEAR_BIT(huart->Instance->CR3, (USART_CR3_SCEN | USART_CR3_HDSEL | USART_CR3_IREN));
 80025aa:	6822      	ldr	r2, [r4, #0]
 80025ac:	6893      	ldr	r3, [r2, #8]
 80025ae:	f023 032a 	bic.w	r3, r3, #42	; 0x2a
 80025b2:	6093      	str	r3, [r2, #8]
  __HAL_UART_ENABLE(huart);
 80025b4:	6822      	ldr	r2, [r4, #0]
 80025b6:	6813      	ldr	r3, [r2, #0]
 80025b8:	f043 0301 	orr.w	r3, r3, #1
 80025bc:	6013      	str	r3, [r2, #0]
  return (UART_CheckIdleState(huart));
 80025be:	4620      	mov	r0, r4
 80025c0:	f7ff ffb9 	bl	8002536 <UART_CheckIdleState>
}
 80025c4:	bd10      	pop	{r4, pc}
    huart->Lock = HAL_UNLOCKED;
 80025c6:	f880 3070 	strb.w	r3, [r0, #112]	; 0x70
    HAL_UART_MspInit(huart);
 80025ca:	f001 fd7f 	bl	80040cc <HAL_UART_MspInit>
 80025ce:	e7d9      	b.n	8002584 <HAL_UART_Init+0xa>
    UART_AdvFeatureConfig(huart);
 80025d0:	4620      	mov	r0, r4
 80025d2:	f7ff ff1b 	bl	800240c <UART_AdvFeatureConfig>
 80025d6:	e7e3      	b.n	80025a0 <HAL_UART_Init+0x26>
    return HAL_ERROR;
 80025d8:	2001      	movs	r0, #1
}
 80025da:	4770      	bx	lr

080025dc <USB_CoreReset>:
  * @param  USBx  Selected device
  * @retval HAL status
  */
static HAL_StatusTypeDef USB_CoreReset(USB_OTG_GlobalTypeDef *USBx)
{
  uint32_t count = 0U;
 80025dc:	2300      	movs	r3, #0

  /* Wait for AHB master IDLE state. */
  do
  {
    if (++count > 200000U)
 80025de:	3301      	adds	r3, #1
 80025e0:	4a0c      	ldr	r2, [pc, #48]	; (8002614 <USB_CoreReset+0x38>)
 80025e2:	4293      	cmp	r3, r2
 80025e4:	d811      	bhi.n	800260a <USB_CoreReset+0x2e>
    {
      return HAL_TIMEOUT;
    }
  }
  while ((USBx->GRSTCTL & USB_OTG_GRSTCTL_AHBIDL) == 0U);
 80025e6:	6902      	ldr	r2, [r0, #16]
 80025e8:	2a00      	cmp	r2, #0
 80025ea:	daf8      	bge.n	80025de <USB_CoreReset+0x2>

  /* Core Soft Reset */
  count = 0U;
  USBx->GRSTCTL |= USB_OTG_GRSTCTL_CSRST;
 80025ec:	6903      	ldr	r3, [r0, #16]
 80025ee:	f043 0301 	orr.w	r3, r3, #1
 80025f2:	6103      	str	r3, [r0, #16]
  count = 0U;
 80025f4:	2300      	movs	r3, #0

  do
  {
    if (++count > 200000U)
 80025f6:	3301      	adds	r3, #1
 80025f8:	4a06      	ldr	r2, [pc, #24]	; (8002614 <USB_CoreReset+0x38>)
 80025fa:	4293      	cmp	r3, r2
 80025fc:	d807      	bhi.n	800260e <USB_CoreReset+0x32>
    {
      return HAL_TIMEOUT;
    }
  }
  while ((USBx->GRSTCTL & USB_OTG_GRSTCTL_CSRST) == USB_OTG_GRSTCTL_CSRST);
 80025fe:	6902      	ldr	r2, [r0, #16]
 8002600:	f012 0f01 	tst.w	r2, #1
 8002604:	d1f7      	bne.n	80025f6 <USB_CoreReset+0x1a>

  return HAL_OK;
 8002606:	2000      	movs	r0, #0
 8002608:	4770      	bx	lr
      return HAL_TIMEOUT;
 800260a:	2003      	movs	r0, #3
 800260c:	4770      	bx	lr
      return HAL_TIMEOUT;
 800260e:	2003      	movs	r0, #3
}
 8002610:	4770      	bx	lr
 8002612:	bf00      	nop
 8002614:	00030d40 	.word	0x00030d40

08002618 <USB_CoreInit>:
{
 8002618:	b084      	sub	sp, #16
 800261a:	b510      	push	{r4, lr}
 800261c:	4604      	mov	r4, r0
 800261e:	a803      	add	r0, sp, #12
 8002620:	e880 000e 	stmia.w	r0, {r1, r2, r3}
  if (cfg.phy_itface == USB_OTG_ULPI_PHY)
 8002624:	9b08      	ldr	r3, [sp, #32]
 8002626:	2b01      	cmp	r3, #1
 8002628:	d11d      	bne.n	8002666 <USB_CoreInit+0x4e>
    USBx->GCCFG &= ~(USB_OTG_GCCFG_PWRDWN);
 800262a:	6ba3      	ldr	r3, [r4, #56]	; 0x38
 800262c:	f423 3380 	bic.w	r3, r3, #65536	; 0x10000
 8002630:	63a3      	str	r3, [r4, #56]	; 0x38
    USBx->GUSBCFG &= ~(USB_OTG_GUSBCFG_TSDPS | USB_OTG_GUSBCFG_ULPIFSLS | USB_OTG_GUSBCFG_PHYSEL);
 8002632:	68e2      	ldr	r2, [r4, #12]
 8002634:	4b16      	ldr	r3, [pc, #88]	; (8002690 <USB_CoreInit+0x78>)
 8002636:	4013      	ands	r3, r2
 8002638:	60e3      	str	r3, [r4, #12]
    USBx->GUSBCFG &= ~(USB_OTG_GUSBCFG_ULPIEVBUSD | USB_OTG_GUSBCFG_ULPIEVBUSI);
 800263a:	68e3      	ldr	r3, [r4, #12]
 800263c:	f423 1340 	bic.w	r3, r3, #3145728	; 0x300000
 8002640:	60e3      	str	r3, [r4, #12]
    if (cfg.use_external_vbus == 1U)
 8002642:	9b0f      	ldr	r3, [sp, #60]	; 0x3c
 8002644:	2b01      	cmp	r3, #1
 8002646:	d009      	beq.n	800265c <USB_CoreInit+0x44>
    ret = USB_CoreReset(USBx);
 8002648:	4620      	mov	r0, r4
 800264a:	f7ff ffc7 	bl	80025dc <USB_CoreReset>
  if (cfg.dma_enable == 1U)
 800264e:	9b06      	ldr	r3, [sp, #24]
 8002650:	2b01      	cmp	r3, #1
 8002652:	d014      	beq.n	800267e <USB_CoreInit+0x66>
}
 8002654:	e8bd 4010 	ldmia.w	sp!, {r4, lr}
 8002658:	b004      	add	sp, #16
 800265a:	4770      	bx	lr
      USBx->GUSBCFG |= USB_OTG_GUSBCFG_ULPIEVBUSD;
 800265c:	68e3      	ldr	r3, [r4, #12]
 800265e:	f443 1380 	orr.w	r3, r3, #1048576	; 0x100000
 8002662:	60e3      	str	r3, [r4, #12]
 8002664:	e7f0      	b.n	8002648 <USB_CoreInit+0x30>
    USBx->GUSBCFG |= USB_OTG_GUSBCFG_PHYSEL;
 8002666:	68e3      	ldr	r3, [r4, #12]
 8002668:	f043 0340 	orr.w	r3, r3, #64	; 0x40
 800266c:	60e3      	str	r3, [r4, #12]
    ret = USB_CoreReset(USBx);
 800266e:	4620      	mov	r0, r4
 8002670:	f7ff ffb4 	bl	80025dc <USB_CoreReset>
    USBx->GCCFG |= USB_OTG_GCCFG_PWRDWN;
 8002674:	6ba3      	ldr	r3, [r4, #56]	; 0x38
 8002676:	f443 3380 	orr.w	r3, r3, #65536	; 0x10000
 800267a:	63a3      	str	r3, [r4, #56]	; 0x38
 800267c:	e7e7      	b.n	800264e <USB_CoreInit+0x36>
    USBx->GAHBCFG |= USB_OTG_GAHBCFG_HBSTLEN_2;
 800267e:	68a3      	ldr	r3, [r4, #8]
 8002680:	f043 0306 	orr.w	r3, r3, #6
 8002684:	60a3      	str	r3, [r4, #8]
    USBx->GAHBCFG |= USB_OTG_GAHBCFG_DMAEN;
 8002686:	68a3      	ldr	r3, [r4, #8]
 8002688:	f043 0320 	orr.w	r3, r3, #32
 800268c:	60a3      	str	r3, [r4, #8]
 800268e:	e7e1      	b.n	8002654 <USB_CoreInit+0x3c>
 8002690:	ffbdffbf 	.word	0xffbdffbf

08002694 <USB_SetTurnaroundTime>:
  if (speed == USB_OTG_SPEED_FULL)
 8002694:	2a03      	cmp	r2, #3
 8002696:	d00a      	beq.n	80026ae <USB_SetTurnaroundTime+0x1a>
    UsbTrd = USBD_HS_TRDT_VALUE;
 8002698:	2109      	movs	r1, #9
  USBx->GUSBCFG &= ~USB_OTG_GUSBCFG_TRDT;
 800269a:	68c2      	ldr	r2, [r0, #12]
 800269c:	f422 5270 	bic.w	r2, r2, #15360	; 0x3c00
 80026a0:	60c2      	str	r2, [r0, #12]
  USBx->GUSBCFG |= (uint32_t)((UsbTrd << 10) & USB_OTG_GUSBCFG_TRDT);
 80026a2:	68c3      	ldr	r3, [r0, #12]
 80026a4:	ea43 2381 	orr.w	r3, r3, r1, lsl #10
 80026a8:	60c3      	str	r3, [r0, #12]
}
 80026aa:	2000      	movs	r0, #0
 80026ac:	4770      	bx	lr
    if ((hclk >= 14200000U) && (hclk < 15000000U))
 80026ae:	4b27      	ldr	r3, [pc, #156]	; (800274c <USB_SetTurnaroundTime+0xb8>)
 80026b0:	440b      	add	r3, r1
 80026b2:	4a27      	ldr	r2, [pc, #156]	; (8002750 <USB_SetTurnaroundTime+0xbc>)
 80026b4:	4293      	cmp	r3, r2
 80026b6:	d939      	bls.n	800272c <USB_SetTurnaroundTime+0x98>
    else if ((hclk >= 15000000U) && (hclk < 16000000U))
 80026b8:	4b26      	ldr	r3, [pc, #152]	; (8002754 <USB_SetTurnaroundTime+0xc0>)
 80026ba:	440b      	add	r3, r1
 80026bc:	4a26      	ldr	r2, [pc, #152]	; (8002758 <USB_SetTurnaroundTime+0xc4>)
 80026be:	4293      	cmp	r3, r2
 80026c0:	d936      	bls.n	8002730 <USB_SetTurnaroundTime+0x9c>
    else if ((hclk >= 16000000U) && (hclk < 17200000U))
 80026c2:	4b26      	ldr	r3, [pc, #152]	; (800275c <USB_SetTurnaroundTime+0xc8>)
 80026c4:	440b      	add	r3, r1
 80026c6:	4a26      	ldr	r2, [pc, #152]	; (8002760 <USB_SetTurnaroundTime+0xcc>)
 80026c8:	4293      	cmp	r3, r2
 80026ca:	d933      	bls.n	8002734 <USB_SetTurnaroundTime+0xa0>
    else if ((hclk >= 17200000U) && (hclk < 18500000U))
 80026cc:	4b25      	ldr	r3, [pc, #148]	; (8002764 <USB_SetTurnaroundTime+0xd0>)
 80026ce:	440b      	add	r3, r1
 80026d0:	f502 32c3 	add.w	r2, r2, #99840	; 0x18600
 80026d4:	32a0      	adds	r2, #160	; 0xa0
 80026d6:	4293      	cmp	r3, r2
 80026d8:	d92e      	bls.n	8002738 <USB_SetTurnaroundTime+0xa4>
    else if ((hclk >= 18500000U) && (hclk < 20000000U))
 80026da:	4b23      	ldr	r3, [pc, #140]	; (8002768 <USB_SetTurnaroundTime+0xd4>)
 80026dc:	440b      	add	r3, r1
 80026de:	4a23      	ldr	r2, [pc, #140]	; (800276c <USB_SetTurnaroundTime+0xd8>)
 80026e0:	4293      	cmp	r3, r2
 80026e2:	d92b      	bls.n	800273c <USB_SetTurnaroundTime+0xa8>
    else if ((hclk >= 20000000U) && (hclk < 21800000U))
 80026e4:	4b22      	ldr	r3, [pc, #136]	; (8002770 <USB_SetTurnaroundTime+0xdc>)
 80026e6:	440b      	add	r3, r1
 80026e8:	f502 2292 	add.w	r2, r2, #299008	; 0x49000
 80026ec:	f502 7278 	add.w	r2, r2, #992	; 0x3e0
 80026f0:	4293      	cmp	r3, r2
 80026f2:	d925      	bls.n	8002740 <USB_SetTurnaroundTime+0xac>
    else if ((hclk >= 21800000U) && (hclk < 24000000U))
 80026f4:	4b1f      	ldr	r3, [pc, #124]	; (8002774 <USB_SetTurnaroundTime+0xe0>)
 80026f6:	440b      	add	r3, r1
 80026f8:	f502 22c3 	add.w	r2, r2, #399360	; 0x61800
 80026fc:	f502 7220 	add.w	r2, r2, #640	; 0x280
 8002700:	4293      	cmp	r3, r2
 8002702:	d91f      	bls.n	8002744 <USB_SetTurnaroundTime+0xb0>
    else if ((hclk >= 24000000U) && (hclk < 27700000U))
 8002704:	4b1c      	ldr	r3, [pc, #112]	; (8002778 <USB_SetTurnaroundTime+0xe4>)
 8002706:	440b      	add	r3, r1
 8002708:	f502 12b7 	add.w	r2, r2, #1499136	; 0x16e000
 800270c:	f502 7258 	add.w	r2, r2, #864	; 0x360
 8002710:	4293      	cmp	r3, r2
 8002712:	d919      	bls.n	8002748 <USB_SetTurnaroundTime+0xb4>
    else if ((hclk >= 27700000U) && (hclk < 32000000U))
 8002714:	4b19      	ldr	r3, [pc, #100]	; (800277c <USB_SetTurnaroundTime+0xe8>)
 8002716:	440b      	add	r3, r1
 8002718:	f502 2212 	add.w	r2, r2, #598016	; 0x92000
 800271c:	f502 62f8 	add.w	r2, r2, #1984	; 0x7c0
 8002720:	4293      	cmp	r3, r2
 8002722:	d901      	bls.n	8002728 <USB_SetTurnaroundTime+0x94>
      UsbTrd = 0x6U;
 8002724:	2106      	movs	r1, #6
 8002726:	e7b8      	b.n	800269a <USB_SetTurnaroundTime+0x6>
      UsbTrd = 0x7U;
 8002728:	2107      	movs	r1, #7
 800272a:	e7b6      	b.n	800269a <USB_SetTurnaroundTime+0x6>
      UsbTrd = 0xFU;
 800272c:	210f      	movs	r1, #15
 800272e:	e7b4      	b.n	800269a <USB_SetTurnaroundTime+0x6>
      UsbTrd = 0xEU;
 8002730:	210e      	movs	r1, #14
 8002732:	e7b2      	b.n	800269a <USB_SetTurnaroundTime+0x6>
      UsbTrd = 0xDU;
 8002734:	210d      	movs	r1, #13
 8002736:	e7b0      	b.n	800269a <USB_SetTurnaroundTime+0x6>
      UsbTrd = 0xCU;
 8002738:	210c      	movs	r1, #12
 800273a:	e7ae      	b.n	800269a <USB_SetTurnaroundTime+0x6>
      UsbTrd = 0xBU;
 800273c:	210b      	movs	r1, #11
 800273e:	e7ac      	b.n	800269a <USB_SetTurnaroundTime+0x6>
      UsbTrd = 0xAU;
 8002740:	210a      	movs	r1, #10
 8002742:	e7aa      	b.n	800269a <USB_SetTurnaroundTime+0x6>
      UsbTrd = 0x9U;
 8002744:	2109      	movs	r1, #9
 8002746:	e7a8      	b.n	800269a <USB_SetTurnaroundTime+0x6>
      UsbTrd = 0x8U;
 8002748:	2108      	movs	r1, #8
 800274a:	e7a6      	b.n	800269a <USB_SetTurnaroundTime+0x6>
 800274c:	ff275340 	.word	0xff275340
 8002750:	000c34ff 	.word	0x000c34ff
 8002754:	ff1b1e40 	.word	0xff1b1e40
 8002758:	000f423f 	.word	0x000f423f
 800275c:	ff0bdc00 	.word	0xff0bdc00
 8002760:	00124f7f 	.word	0x00124f7f
 8002764:	fef98c80 	.word	0xfef98c80
 8002768:	fee5b660 	.word	0xfee5b660
 800276c:	0016e35f 	.word	0x0016e35f
 8002770:	feced300 	.word	0xfeced300
 8002774:	feb35bc0 	.word	0xfeb35bc0
 8002778:	fe91ca00 	.word	0xfe91ca00
 800277c:	fe5954e0 	.word	0xfe5954e0

08002780 <USB_EnableGlobalInt>:
  USBx->GAHBCFG |= USB_OTG_GAHBCFG_GINT;
 8002780:	6883      	ldr	r3, [r0, #8]
 8002782:	f043 0301 	orr.w	r3, r3, #1
 8002786:	6083      	str	r3, [r0, #8]
}
 8002788:	2000      	movs	r0, #0
 800278a:	4770      	bx	lr

0800278c <USB_DisableGlobalInt>:
  USBx->GAHBCFG &= ~USB_OTG_GAHBCFG_GINT;
 800278c:	6883      	ldr	r3, [r0, #8]
 800278e:	f023 0301 	bic.w	r3, r3, #1
 8002792:	6083      	str	r3, [r0, #8]
}
 8002794:	2000      	movs	r0, #0
 8002796:	4770      	bx	lr

08002798 <USB_SetCurrentMode>:
{
 8002798:	b508      	push	{r3, lr}
  USBx->GUSBCFG &= ~(USB_OTG_GUSBCFG_FHMOD | USB_OTG_GUSBCFG_FDMOD);
 800279a:	68c3      	ldr	r3, [r0, #12]
 800279c:	f023 43c0 	bic.w	r3, r3, #1610612736	; 0x60000000
 80027a0:	60c3      	str	r3, [r0, #12]
  if (mode == USB_HOST_MODE)
 80027a2:	2901      	cmp	r1, #1
 80027a4:	d009      	beq.n	80027ba <USB_SetCurrentMode+0x22>
  else if (mode == USB_DEVICE_MODE)
 80027a6:	b969      	cbnz	r1, 80027c4 <USB_SetCurrentMode+0x2c>
    USBx->GUSBCFG |= USB_OTG_GUSBCFG_FDMOD;
 80027a8:	68c3      	ldr	r3, [r0, #12]
 80027aa:	f043 4380 	orr.w	r3, r3, #1073741824	; 0x40000000
 80027ae:	60c3      	str	r3, [r0, #12]
  HAL_Delay(50U);
 80027b0:	2032      	movs	r0, #50	; 0x32
 80027b2:	f7fd ff4f 	bl	8000654 <HAL_Delay>
  return HAL_OK;
 80027b6:	2000      	movs	r0, #0
}
 80027b8:	bd08      	pop	{r3, pc}
    USBx->GUSBCFG |= USB_OTG_GUSBCFG_FHMOD;
 80027ba:	68c3      	ldr	r3, [r0, #12]
 80027bc:	f043 5300 	orr.w	r3, r3, #536870912	; 0x20000000
 80027c0:	60c3      	str	r3, [r0, #12]
 80027c2:	e7f5      	b.n	80027b0 <USB_SetCurrentMode+0x18>
    return HAL_ERROR;
 80027c4:	2001      	movs	r0, #1
 80027c6:	e7f7      	b.n	80027b8 <USB_SetCurrentMode+0x20>

080027c8 <USB_FlushTxFifo>:
  USBx->GRSTCTL = (USB_OTG_GRSTCTL_TXFFLSH | (num << 6));
 80027c8:	0189      	lsls	r1, r1, #6
 80027ca:	f041 0120 	orr.w	r1, r1, #32
 80027ce:	6101      	str	r1, [r0, #16]
  uint32_t count = 0U;
 80027d0:	2300      	movs	r3, #0
    if (++count > 200000U)
 80027d2:	3301      	adds	r3, #1
 80027d4:	4a05      	ldr	r2, [pc, #20]	; (80027ec <USB_FlushTxFifo+0x24>)
 80027d6:	4293      	cmp	r3, r2
 80027d8:	d805      	bhi.n	80027e6 <USB_FlushTxFifo+0x1e>
  while ((USBx->GRSTCTL & USB_OTG_GRSTCTL_TXFFLSH) == USB_OTG_GRSTCTL_TXFFLSH);
 80027da:	6902      	ldr	r2, [r0, #16]
 80027dc:	f012 0f20 	tst.w	r2, #32
 80027e0:	d1f7      	bne.n	80027d2 <USB_FlushTxFifo+0xa>
  return HAL_OK;
 80027e2:	2000      	movs	r0, #0
 80027e4:	4770      	bx	lr
      return HAL_TIMEOUT;
 80027e6:	2003      	movs	r0, #3
}
 80027e8:	4770      	bx	lr
 80027ea:	bf00      	nop
 80027ec:	00030d40 	.word	0x00030d40

080027f0 <USB_FlushRxFifo>:
  USBx->GRSTCTL = USB_OTG_GRSTCTL_RXFFLSH;
 80027f0:	2310      	movs	r3, #16
 80027f2:	6103      	str	r3, [r0, #16]
  uint32_t count = 0;
 80027f4:	2300      	movs	r3, #0
    if (++count > 200000U)
 80027f6:	3301      	adds	r3, #1
 80027f8:	4a05      	ldr	r2, [pc, #20]	; (8002810 <USB_FlushRxFifo+0x20>)
 80027fa:	4293      	cmp	r3, r2
 80027fc:	d805      	bhi.n	800280a <USB_FlushRxFifo+0x1a>
  while ((USBx->GRSTCTL & USB_OTG_GRSTCTL_RXFFLSH) == USB_OTG_GRSTCTL_RXFFLSH);
 80027fe:	6902      	ldr	r2, [r0, #16]
 8002800:	f012 0f10 	tst.w	r2, #16
 8002804:	d1f7      	bne.n	80027f6 <USB_FlushRxFifo+0x6>
  return HAL_OK;
 8002806:	2000      	movs	r0, #0
 8002808:	4770      	bx	lr
      return HAL_TIMEOUT;
 800280a:	2003      	movs	r0, #3
}
 800280c:	4770      	bx	lr
 800280e:	bf00      	nop
 8002810:	00030d40 	.word	0x00030d40

08002814 <USB_SetDevSpeed>:
  USBx_DEVICE->DCFG |= speed;
 8002814:	f8d0 3800 	ldr.w	r3, [r0, #2048]	; 0x800
 8002818:	4319      	orrs	r1, r3
 800281a:	f8c0 1800 	str.w	r1, [r0, #2048]	; 0x800
}
 800281e:	2000      	movs	r0, #0
 8002820:	4770      	bx	lr
	...

08002824 <USB_DevInit>:
{
 8002824:	b084      	sub	sp, #16
 8002826:	e92d 41f0 	stmdb	sp!, {r4, r5, r6, r7, r8, lr}
 800282a:	4604      	mov	r4, r0
 800282c:	a807      	add	r0, sp, #28
 800282e:	e880 000e 	stmia.w	r0, {r1, r2, r3}
  uint32_t USBx_BASE = (uint32_t)USBx;
 8002832:	4625      	mov	r5, r4
  for (i = 0U; i < 15U; i++)
 8002834:	2300      	movs	r3, #0
 8002836:	e006      	b.n	8002846 <USB_DevInit+0x22>
    USBx->DIEPTXF[i] = 0U;
 8002838:	f103 0240 	add.w	r2, r3, #64	; 0x40
 800283c:	eb04 0282 	add.w	r2, r4, r2, lsl #2
 8002840:	2100      	movs	r1, #0
 8002842:	6051      	str	r1, [r2, #4]
  for (i = 0U; i < 15U; i++)
 8002844:	3301      	adds	r3, #1
 8002846:	2b0e      	cmp	r3, #14
 8002848:	d9f6      	bls.n	8002838 <USB_DevInit+0x14>
  if (cfg.vbus_sensing_enable == 0U)
 800284a:	9b11      	ldr	r3, [sp, #68]	; 0x44
 800284c:	bb03      	cbnz	r3, 8002890 <USB_DevInit+0x6c>
    USBx->GCCFG &= ~USB_OTG_GCCFG_VBDEN;
 800284e:	6ba3      	ldr	r3, [r4, #56]	; 0x38
 8002850:	f423 1300 	bic.w	r3, r3, #2097152	; 0x200000
 8002854:	63a3      	str	r3, [r4, #56]	; 0x38
    USBx->GOTGCTL |= USB_OTG_GOTGCTL_BVALOEN;
 8002856:	6823      	ldr	r3, [r4, #0]
 8002858:	f043 0340 	orr.w	r3, r3, #64	; 0x40
 800285c:	6023      	str	r3, [r4, #0]
    USBx->GOTGCTL |= USB_OTG_GOTGCTL_BVALOVAL;
 800285e:	6823      	ldr	r3, [r4, #0]
 8002860:	f043 0380 	orr.w	r3, r3, #128	; 0x80
 8002864:	6023      	str	r3, [r4, #0]
  USBx_PCGCCTL = 0U;
 8002866:	2300      	movs	r3, #0
 8002868:	f8c4 3e00 	str.w	r3, [r4, #3584]	; 0xe00
  USBx_DEVICE->DCFG |= DCFG_FRAME_INTERVAL_80;
 800286c:	f504 6600 	add.w	r6, r4, #2048	; 0x800
 8002870:	f8d4 3800 	ldr.w	r3, [r4, #2048]	; 0x800
 8002874:	f8c4 3800 	str.w	r3, [r4, #2048]	; 0x800
  if (cfg.phy_itface == USB_OTG_ULPI_PHY)
 8002878:	9b0c      	ldr	r3, [sp, #48]	; 0x30
 800287a:	2b01      	cmp	r3, #1
 800287c:	d00d      	beq.n	800289a <USB_DevInit+0x76>
  else if (cfg.phy_itface == USB_OTG_HS_EMBEDDED_PHY)
 800287e:	2b03      	cmp	r3, #3
 8002880:	d11c      	bne.n	80028bc <USB_DevInit+0x98>
    if (cfg.speed == USB_OTG_SPEED_HIGH)
 8002882:	9b09      	ldr	r3, [sp, #36]	; 0x24
 8002884:	b9ab      	cbnz	r3, 80028b2 <USB_DevInit+0x8e>
      (void)USB_SetDevSpeed(USBx, USB_OTG_SPEED_HIGH);
 8002886:	2100      	movs	r1, #0
 8002888:	4620      	mov	r0, r4
 800288a:	f7ff ffc3 	bl	8002814 <USB_SetDevSpeed>
 800288e:	e019      	b.n	80028c4 <USB_DevInit+0xa0>
    USBx->GCCFG |= USB_OTG_GCCFG_VBDEN;
 8002890:	6ba3      	ldr	r3, [r4, #56]	; 0x38
 8002892:	f443 1300 	orr.w	r3, r3, #2097152	; 0x200000
 8002896:	63a3      	str	r3, [r4, #56]	; 0x38
 8002898:	e7e5      	b.n	8002866 <USB_DevInit+0x42>
    if (cfg.speed == USB_OTG_SPEED_HIGH)
 800289a:	9b09      	ldr	r3, [sp, #36]	; 0x24
 800289c:	b923      	cbnz	r3, 80028a8 <USB_DevInit+0x84>
      (void)USB_SetDevSpeed(USBx, USB_OTG_SPEED_HIGH);
 800289e:	2100      	movs	r1, #0
 80028a0:	4620      	mov	r0, r4
 80028a2:	f7ff ffb7 	bl	8002814 <USB_SetDevSpeed>
 80028a6:	e00d      	b.n	80028c4 <USB_DevInit+0xa0>
      (void)USB_SetDevSpeed(USBx, USB_OTG_SPEED_HIGH_IN_FULL);
 80028a8:	2101      	movs	r1, #1
 80028aa:	4620      	mov	r0, r4
 80028ac:	f7ff ffb2 	bl	8002814 <USB_SetDevSpeed>
 80028b0:	e008      	b.n	80028c4 <USB_DevInit+0xa0>
      (void)USB_SetDevSpeed(USBx, USB_OTG_SPEED_HIGH_IN_FULL);
 80028b2:	2101      	movs	r1, #1
 80028b4:	4620      	mov	r0, r4
 80028b6:	f7ff ffad 	bl	8002814 <USB_SetDevSpeed>
 80028ba:	e003      	b.n	80028c4 <USB_DevInit+0xa0>
    (void)USB_SetDevSpeed(USBx, USB_OTG_SPEED_FULL);
 80028bc:	2103      	movs	r1, #3
 80028be:	4620      	mov	r0, r4
 80028c0:	f7ff ffa8 	bl	8002814 <USB_SetDevSpeed>
  if (USB_FlushTxFifo(USBx, 0x10U) != HAL_OK) /* all Tx FIFOs */
 80028c4:	2110      	movs	r1, #16
 80028c6:	4620      	mov	r0, r4
 80028c8:	f7ff ff7e 	bl	80027c8 <USB_FlushTxFifo>
 80028cc:	4680      	mov	r8, r0
 80028ce:	b108      	cbz	r0, 80028d4 <USB_DevInit+0xb0>
    ret = HAL_ERROR;
 80028d0:	f04f 0801 	mov.w	r8, #1
  if (USB_FlushRxFifo(USBx) != HAL_OK)
 80028d4:	4620      	mov	r0, r4
 80028d6:	f7ff ff8b 	bl	80027f0 <USB_FlushRxFifo>
 80028da:	b108      	cbz	r0, 80028e0 <USB_DevInit+0xbc>
    ret = HAL_ERROR;
 80028dc:	f04f 0801 	mov.w	r8, #1
  USBx_DEVICE->DIEPMSK = 0U;
 80028e0:	2300      	movs	r3, #0
 80028e2:	6133      	str	r3, [r6, #16]
  USBx_DEVICE->DOEPMSK = 0U;
 80028e4:	6173      	str	r3, [r6, #20]
  USBx_DEVICE->DAINTMSK = 0U;
 80028e6:	61f3      	str	r3, [r6, #28]
  for (i = 0U; i < cfg.dev_endpoints; i++)
 80028e8:	e00a      	b.n	8002900 <USB_DevInit+0xdc>
      if (i == 0U)
 80028ea:	b9c3      	cbnz	r3, 800291e <USB_DevInit+0xfa>
        USBx_INEP(i)->DIEPCTL = USB_OTG_DIEPCTL_SNAK;
 80028ec:	f04f 6000 	mov.w	r0, #134217728	; 0x8000000
 80028f0:	f8c2 0900 	str.w	r0, [r2, #2304]	; 0x900
    USBx_INEP(i)->DIEPTSIZ = 0U;
 80028f4:	2200      	movs	r2, #0
 80028f6:	610a      	str	r2, [r1, #16]
    USBx_INEP(i)->DIEPINT  = 0xFB7FU;
 80028f8:	f64f 327f 	movw	r2, #64383	; 0xfb7f
 80028fc:	608a      	str	r2, [r1, #8]
  for (i = 0U; i < cfg.dev_endpoints; i++)
 80028fe:	3301      	adds	r3, #1
 8002900:	9907      	ldr	r1, [sp, #28]
 8002902:	4299      	cmp	r1, r3
 8002904:	d910      	bls.n	8002928 <USB_DevInit+0x104>
    if ((USBx_INEP(i)->DIEPCTL & USB_OTG_DIEPCTL_EPENA) == USB_OTG_DIEPCTL_EPENA)
 8002906:	eb05 1243 	add.w	r2, r5, r3, lsl #5
 800290a:	f502 6110 	add.w	r1, r2, #2304	; 0x900
 800290e:	f8d2 0900 	ldr.w	r0, [r2, #2304]	; 0x900
 8002912:	2800      	cmp	r0, #0
 8002914:	dbe9      	blt.n	80028ea <USB_DevInit+0xc6>
      USBx_INEP(i)->DIEPCTL = 0U;
 8002916:	2000      	movs	r0, #0
 8002918:	f8c2 0900 	str.w	r0, [r2, #2304]	; 0x900
 800291c:	e7ea      	b.n	80028f4 <USB_DevInit+0xd0>
        USBx_INEP(i)->DIEPCTL = USB_OTG_DIEPCTL_EPDIS | USB_OTG_DIEPCTL_SNAK;
 800291e:	f04f 4090 	mov.w	r0, #1207959552	; 0x48000000
 8002922:	f8c2 0900 	str.w	r0, [r2, #2304]	; 0x900
 8002926:	e7e5      	b.n	80028f4 <USB_DevInit+0xd0>
  for (i = 0U; i < cfg.dev_endpoints; i++)
 8002928:	2300      	movs	r3, #0
 800292a:	e00a      	b.n	8002942 <USB_DevInit+0x11e>
      if (i == 0U)
 800292c:	b1bb      	cbz	r3, 800295e <USB_DevInit+0x13a>
        USBx_OUTEP(i)->DOEPCTL = USB_OTG_DOEPCTL_EPDIS | USB_OTG_DOEPCTL_SNAK;
 800292e:	f04f 4790 	mov.w	r7, #1207959552	; 0x48000000
 8002932:	f8c2 7b00 	str.w	r7, [r2, #2816]	; 0xb00
    USBx_OUTEP(i)->DOEPTSIZ = 0U;
 8002936:	2200      	movs	r2, #0
 8002938:	6102      	str	r2, [r0, #16]
    USBx_OUTEP(i)->DOEPINT  = 0xFB7FU;
 800293a:	f64f 327f 	movw	r2, #64383	; 0xfb7f
 800293e:	6082      	str	r2, [r0, #8]
  for (i = 0U; i < cfg.dev_endpoints; i++)
 8002940:	3301      	adds	r3, #1
 8002942:	4299      	cmp	r1, r3
 8002944:	d910      	bls.n	8002968 <USB_DevInit+0x144>
    if ((USBx_OUTEP(i)->DOEPCTL & USB_OTG_DOEPCTL_EPENA) == USB_OTG_DOEPCTL_EPENA)
 8002946:	eb05 1243 	add.w	r2, r5, r3, lsl #5
 800294a:	f502 6030 	add.w	r0, r2, #2816	; 0xb00
 800294e:	f8d2 7b00 	ldr.w	r7, [r2, #2816]	; 0xb00
 8002952:	2f00      	cmp	r7, #0
 8002954:	dbea      	blt.n	800292c <USB_DevInit+0x108>
      USBx_OUTEP(i)->DOEPCTL = 0U;
 8002956:	2700      	movs	r7, #0
 8002958:	f8c2 7b00 	str.w	r7, [r2, #2816]	; 0xb00
 800295c:	e7eb      	b.n	8002936 <USB_DevInit+0x112>
        USBx_OUTEP(i)->DOEPCTL = USB_OTG_DOEPCTL_SNAK;
 800295e:	f04f 6700 	mov.w	r7, #134217728	; 0x8000000
 8002962:	f8c2 7b00 	str.w	r7, [r2, #2816]	; 0xb00
 8002966:	e7e6      	b.n	8002936 <USB_DevInit+0x112>
  USBx_DEVICE->DIEPMSK &= ~(USB_OTG_DIEPMSK_TXFURM);
 8002968:	6933      	ldr	r3, [r6, #16]
 800296a:	f423 7380 	bic.w	r3, r3, #256	; 0x100
 800296e:	6133      	str	r3, [r6, #16]
  if (cfg.dma_enable == 1U)
 8002970:	9b0a      	ldr	r3, [sp, #40]	; 0x28
 8002972:	2b01      	cmp	r3, #1
 8002974:	d01b      	beq.n	80029ae <USB_DevInit+0x18a>
  USBx->GINTMSK = 0U;
 8002976:	2200      	movs	r2, #0
 8002978:	61a2      	str	r2, [r4, #24]
  USBx->GINTSTS = 0xBFFFFFFFU;
 800297a:	f06f 4280 	mvn.w	r2, #1073741824	; 0x40000000
 800297e:	6162      	str	r2, [r4, #20]
  if (cfg.dma_enable == 0U)
 8002980:	b91b      	cbnz	r3, 800298a <USB_DevInit+0x166>
    USBx->GINTMSK |= USB_OTG_GINTMSK_RXFLVLM;
 8002982:	69a3      	ldr	r3, [r4, #24]
 8002984:	f043 0310 	orr.w	r3, r3, #16
 8002988:	61a3      	str	r3, [r4, #24]
  USBx->GINTMSK |= USB_OTG_GINTMSK_USBSUSPM | USB_OTG_GINTMSK_USBRST |
 800298a:	69a2      	ldr	r2, [r4, #24]
 800298c:	4b0e      	ldr	r3, [pc, #56]	; (80029c8 <USB_DevInit+0x1a4>)
 800298e:	4313      	orrs	r3, r2
 8002990:	61a3      	str	r3, [r4, #24]
  if (cfg.Sof_enable != 0U)
 8002992:	9b0d      	ldr	r3, [sp, #52]	; 0x34
 8002994:	b11b      	cbz	r3, 800299e <USB_DevInit+0x17a>
    USBx->GINTMSK |= USB_OTG_GINTMSK_SOFM;
 8002996:	69a3      	ldr	r3, [r4, #24]
 8002998:	f043 0308 	orr.w	r3, r3, #8
 800299c:	61a3      	str	r3, [r4, #24]
  if (cfg.vbus_sensing_enable == 1U)
 800299e:	9b11      	ldr	r3, [sp, #68]	; 0x44
 80029a0:	2b01      	cmp	r3, #1
 80029a2:	d00b      	beq.n	80029bc <USB_DevInit+0x198>
}
 80029a4:	4640      	mov	r0, r8
 80029a6:	e8bd 41f0 	ldmia.w	sp!, {r4, r5, r6, r7, r8, lr}
 80029aa:	b004      	add	sp, #16
 80029ac:	4770      	bx	lr
    USBx_DEVICE->DTHRCTL = USB_OTG_DTHRCTL_TXTHRLEN_6 |
 80029ae:	4a07      	ldr	r2, [pc, #28]	; (80029cc <USB_DevInit+0x1a8>)
 80029b0:	6332      	str	r2, [r6, #48]	; 0x30
    USBx_DEVICE->DTHRCTL |= USB_OTG_DTHRCTL_RXTHREN |
 80029b2:	6b31      	ldr	r1, [r6, #48]	; 0x30
 80029b4:	4a06      	ldr	r2, [pc, #24]	; (80029d0 <USB_DevInit+0x1ac>)
 80029b6:	430a      	orrs	r2, r1
 80029b8:	6332      	str	r2, [r6, #48]	; 0x30
 80029ba:	e7dc      	b.n	8002976 <USB_DevInit+0x152>
    USBx->GINTMSK |= (USB_OTG_GINTMSK_SRQIM | USB_OTG_GINTMSK_OTGINT);
 80029bc:	69a2      	ldr	r2, [r4, #24]
 80029be:	4b05      	ldr	r3, [pc, #20]	; (80029d4 <USB_DevInit+0x1b0>)
 80029c0:	4313      	orrs	r3, r2
 80029c2:	61a3      	str	r3, [r4, #24]
 80029c4:	e7ee      	b.n	80029a4 <USB_DevInit+0x180>
 80029c6:	bf00      	nop
 80029c8:	803c3800 	.word	0x803c3800
 80029cc:	00800100 	.word	0x00800100
 80029d0:	00010003 	.word	0x00010003
 80029d4:	40000004 	.word	0x40000004

080029d8 <USB_GetDevSpeed>:
  uint32_t DevEnumSpeed = USBx_DEVICE->DSTS & USB_OTG_DSTS_ENUMSPD;
 80029d8:	f8d0 3808 	ldr.w	r3, [r0, #2056]	; 0x808
  if (DevEnumSpeed == DSTS_ENUMSPD_HS_PHY_30MHZ_OR_60MHZ)
 80029dc:	f013 0306 	ands.w	r3, r3, #6
 80029e0:	d007      	beq.n	80029f2 <USB_GetDevSpeed+0x1a>
  else if ((DevEnumSpeed == DSTS_ENUMSPD_FS_PHY_30MHZ_OR_60MHZ) ||
 80029e2:	2b06      	cmp	r3, #6
 80029e4:	bf18      	it	ne
 80029e6:	2b02      	cmpne	r3, #2
 80029e8:	d001      	beq.n	80029ee <USB_GetDevSpeed+0x16>
    speed = 0U;
 80029ea:	2000      	movs	r0, #0
}
 80029ec:	4770      	bx	lr
    speed = USB_OTG_SPEED_FULL;
 80029ee:	2003      	movs	r0, #3
 80029f0:	4770      	bx	lr
    speed = USB_OTG_SPEED_HIGH;
 80029f2:	2000      	movs	r0, #0
 80029f4:	4770      	bx	lr
	...

080029f8 <USB_ActivateEndpoint>:
{
 80029f8:	b470      	push	{r4, r5, r6}
  uint32_t epnum = (uint32_t)ep->num;
 80029fa:	780b      	ldrb	r3, [r1, #0]
  if (ep->is_in == 1U)
 80029fc:	784a      	ldrb	r2, [r1, #1]
 80029fe:	2a01      	cmp	r2, #1
 8002a00:	d020      	beq.n	8002a44 <USB_ActivateEndpoint+0x4c>
    USBx_DEVICE->DAINTMSK |= USB_OTG_DAINTMSK_OEPM & ((uint32_t)(1UL << (ep->num & EP_ADDR_MSK)) << 16);
 8002a02:	f8d0 281c 	ldr.w	r2, [r0, #2076]	; 0x81c
 8002a06:	f003 060f 	and.w	r6, r3, #15
 8002a0a:	2401      	movs	r4, #1
 8002a0c:	40b4      	lsls	r4, r6
 8002a0e:	ea42 4204 	orr.w	r2, r2, r4, lsl #16
 8002a12:	f8c0 281c 	str.w	r2, [r0, #2076]	; 0x81c
    if (((USBx_OUTEP(epnum)->DOEPCTL) & USB_OTG_DOEPCTL_USBAEP) == 0U)
 8002a16:	eb00 1043 	add.w	r0, r0, r3, lsl #5
 8002a1a:	f8d0 3b00 	ldr.w	r3, [r0, #2816]	; 0xb00
 8002a1e:	f413 4f00 	tst.w	r3, #32768	; 0x8000
 8002a22:	d10c      	bne.n	8002a3e <USB_ActivateEndpoint+0x46>
      USBx_OUTEP(epnum)->DOEPCTL |= (ep->maxpacket & USB_OTG_DOEPCTL_MPSIZ) |
 8002a24:	f8d0 2b00 	ldr.w	r2, [r0, #2816]	; 0xb00
 8002a28:	688b      	ldr	r3, [r1, #8]
 8002a2a:	f3c3 030a 	ubfx	r3, r3, #0, #11
                                    ((uint32_t)ep->type << 18) |
 8002a2e:	78c9      	ldrb	r1, [r1, #3]
      USBx_OUTEP(epnum)->DOEPCTL |= (ep->maxpacket & USB_OTG_DOEPCTL_MPSIZ) |
 8002a30:	ea43 4381 	orr.w	r3, r3, r1, lsl #18
 8002a34:	4313      	orrs	r3, r2
 8002a36:	4a13      	ldr	r2, [pc, #76]	; (8002a84 <USB_ActivateEndpoint+0x8c>)
 8002a38:	431a      	orrs	r2, r3
 8002a3a:	f8c0 2b00 	str.w	r2, [r0, #2816]	; 0xb00
}
 8002a3e:	2000      	movs	r0, #0
 8002a40:	bc70      	pop	{r4, r5, r6}
 8002a42:	4770      	bx	lr
    USBx_DEVICE->DAINTMSK |= USB_OTG_DAINTMSK_IEPM & (uint32_t)(1UL << (ep->num & EP_ADDR_MSK));
 8002a44:	f8d0 481c 	ldr.w	r4, [r0, #2076]	; 0x81c
 8002a48:	f003 060f 	and.w	r6, r3, #15
 8002a4c:	40b2      	lsls	r2, r6
 8002a4e:	b292      	uxth	r2, r2
 8002a50:	4322      	orrs	r2, r4
 8002a52:	f8c0 281c 	str.w	r2, [r0, #2076]	; 0x81c
    if ((USBx_INEP(epnum)->DIEPCTL & USB_OTG_DIEPCTL_USBAEP) == 0U)
 8002a56:	eb00 1043 	add.w	r0, r0, r3, lsl #5
 8002a5a:	f8d0 2900 	ldr.w	r2, [r0, #2304]	; 0x900
 8002a5e:	f412 4f00 	tst.w	r2, #32768	; 0x8000
 8002a62:	d1ec      	bne.n	8002a3e <USB_ActivateEndpoint+0x46>
      USBx_INEP(epnum)->DIEPCTL |= (ep->maxpacket & USB_OTG_DIEPCTL_MPSIZ) |
 8002a64:	f8d0 4900 	ldr.w	r4, [r0, #2304]	; 0x900
 8002a68:	688a      	ldr	r2, [r1, #8]
 8002a6a:	f3c2 020a 	ubfx	r2, r2, #0, #11
                                   ((uint32_t)ep->type << 18) | (epnum << 22) |
 8002a6e:	78c9      	ldrb	r1, [r1, #3]
      USBx_INEP(epnum)->DIEPCTL |= (ep->maxpacket & USB_OTG_DIEPCTL_MPSIZ) |
 8002a70:	ea42 4281 	orr.w	r2, r2, r1, lsl #18
                                   ((uint32_t)ep->type << 18) | (epnum << 22) |
 8002a74:	ea42 5383 	orr.w	r3, r2, r3, lsl #22
      USBx_INEP(epnum)->DIEPCTL |= (ep->maxpacket & USB_OTG_DIEPCTL_MPSIZ) |
 8002a78:	4323      	orrs	r3, r4
 8002a7a:	4a02      	ldr	r2, [pc, #8]	; (8002a84 <USB_ActivateEndpoint+0x8c>)
 8002a7c:	431a      	orrs	r2, r3
 8002a7e:	f8c0 2900 	str.w	r2, [r0, #2304]	; 0x900
 8002a82:	e7dc      	b.n	8002a3e <USB_ActivateEndpoint+0x46>
 8002a84:	10008000 	.word	0x10008000

08002a88 <USB_DeactivateEndpoint>:
{
 8002a88:	b470      	push	{r4, r5, r6}
  uint32_t epnum = (uint32_t)ep->num;
 8002a8a:	780b      	ldrb	r3, [r1, #0]
  if (ep->is_in == 1U)
 8002a8c:	784a      	ldrb	r2, [r1, #1]
 8002a8e:	2a01      	cmp	r2, #1
 8002a90:	d01f      	beq.n	8002ad2 <USB_DeactivateEndpoint+0x4a>
    USBx_DEVICE->DEACHMSK &= ~(USB_OTG_DAINTMSK_OEPM & ((uint32_t)(1UL << (ep->num & EP_ADDR_MSK)) << 16));
 8002a92:	f8d0 583c 	ldr.w	r5, [r0, #2108]	; 0x83c
 8002a96:	f003 060f 	and.w	r6, r3, #15
 8002a9a:	2401      	movs	r4, #1
 8002a9c:	fa04 f606 	lsl.w	r6, r4, r6
 8002aa0:	ea25 4506 	bic.w	r5, r5, r6, lsl #16
 8002aa4:	f8c0 583c 	str.w	r5, [r0, #2108]	; 0x83c
    USBx_DEVICE->DAINTMSK &= ~(USB_OTG_DAINTMSK_OEPM & ((uint32_t)(1UL << (ep->num & EP_ADDR_MSK)) << 16));
 8002aa8:	f8d0 581c 	ldr.w	r5, [r0, #2076]	; 0x81c
 8002aac:	7809      	ldrb	r1, [r1, #0]
 8002aae:	f001 010f 	and.w	r1, r1, #15
 8002ab2:	408c      	lsls	r4, r1
 8002ab4:	ea25 4404 	bic.w	r4, r5, r4, lsl #16
 8002ab8:	f8c0 481c 	str.w	r4, [r0, #2076]	; 0x81c
    USBx_OUTEP(epnum)->DOEPCTL &= ~(USB_OTG_DOEPCTL_USBAEP |
 8002abc:	eb00 1043 	add.w	r0, r0, r3, lsl #5
 8002ac0:	f8d0 2b00 	ldr.w	r2, [r0, #2816]	; 0xb00
 8002ac4:	4b12      	ldr	r3, [pc, #72]	; (8002b10 <USB_DeactivateEndpoint+0x88>)
 8002ac6:	4013      	ands	r3, r2
 8002ac8:	f8c0 3b00 	str.w	r3, [r0, #2816]	; 0xb00
}
 8002acc:	2000      	movs	r0, #0
 8002ace:	bc70      	pop	{r4, r5, r6}
 8002ad0:	4770      	bx	lr
    USBx_DEVICE->DEACHMSK &= ~(USB_OTG_DAINTMSK_IEPM & (uint32_t)(1UL << (ep->num & EP_ADDR_MSK)));
 8002ad2:	f8d0 683c 	ldr.w	r6, [r0, #2108]	; 0x83c
 8002ad6:	f003 040f 	and.w	r4, r3, #15
 8002ada:	fa02 f404 	lsl.w	r4, r2, r4
 8002ade:	b2a4      	uxth	r4, r4
 8002ae0:	ea26 0404 	bic.w	r4, r6, r4
 8002ae4:	f8c0 483c 	str.w	r4, [r0, #2108]	; 0x83c
    USBx_DEVICE->DAINTMSK &= ~(USB_OTG_DAINTMSK_IEPM & (uint32_t)(1UL << (ep->num & EP_ADDR_MSK)));
 8002ae8:	f8d0 481c 	ldr.w	r4, [r0, #2076]	; 0x81c
 8002aec:	7809      	ldrb	r1, [r1, #0]
 8002aee:	f001 010f 	and.w	r1, r1, #15
 8002af2:	408a      	lsls	r2, r1
 8002af4:	b292      	uxth	r2, r2
 8002af6:	ea24 0202 	bic.w	r2, r4, r2
 8002afa:	f8c0 281c 	str.w	r2, [r0, #2076]	; 0x81c
    USBx_INEP(epnum)->DIEPCTL &= ~(USB_OTG_DIEPCTL_USBAEP |
 8002afe:	eb00 1043 	add.w	r0, r0, r3, lsl #5
 8002b02:	f8d0 3900 	ldr.w	r3, [r0, #2304]	; 0x900
 8002b06:	4a03      	ldr	r2, [pc, #12]	; (8002b14 <USB_DeactivateEndpoint+0x8c>)
 8002b08:	401a      	ands	r2, r3
 8002b0a:	f8c0 2900 	str.w	r2, [r0, #2304]	; 0x900
 8002b0e:	e7dd      	b.n	8002acc <USB_DeactivateEndpoint+0x44>
 8002b10:	eff37800 	.word	0xeff37800
 8002b14:	ec337800 	.word	0xec337800

08002b18 <USB_EP0StartXfer>:
{
 8002b18:	b470      	push	{r4, r5, r6}
  uint32_t epnum = (uint32_t)ep->num;
 8002b1a:	780b      	ldrb	r3, [r1, #0]
  if (ep->is_in == 1U)
 8002b1c:	784c      	ldrb	r4, [r1, #1]
 8002b1e:	2c01      	cmp	r4, #1
 8002b20:	d024      	beq.n	8002b6c <USB_EP0StartXfer+0x54>
    USBx_OUTEP(epnum)->DOEPTSIZ &= ~(USB_OTG_DOEPTSIZ_XFRSIZ);
 8002b22:	eb00 1043 	add.w	r0, r0, r3, lsl #5
 8002b26:	f500 6330 	add.w	r3, r0, #2816	; 0xb00
 8002b2a:	691d      	ldr	r5, [r3, #16]
 8002b2c:	4c3a      	ldr	r4, [pc, #232]	; (8002c18 <USB_EP0StartXfer+0x100>)
 8002b2e:	402c      	ands	r4, r5
 8002b30:	611c      	str	r4, [r3, #16]
    USBx_OUTEP(epnum)->DOEPTSIZ &= ~(USB_OTG_DOEPTSIZ_PKTCNT);
 8002b32:	691d      	ldr	r5, [r3, #16]
 8002b34:	4c39      	ldr	r4, [pc, #228]	; (8002c1c <USB_EP0StartXfer+0x104>)
 8002b36:	402c      	ands	r4, r5
 8002b38:	611c      	str	r4, [r3, #16]
    if (ep->xfer_len > 0U)
 8002b3a:	694c      	ldr	r4, [r1, #20]
 8002b3c:	b10c      	cbz	r4, 8002b42 <USB_EP0StartXfer+0x2a>
      ep->xfer_len = ep->maxpacket;
 8002b3e:	688c      	ldr	r4, [r1, #8]
 8002b40:	614c      	str	r4, [r1, #20]
    USBx_OUTEP(epnum)->DOEPTSIZ |= (USB_OTG_DOEPTSIZ_PKTCNT & (1U << 19));
 8002b42:	691c      	ldr	r4, [r3, #16]
 8002b44:	f444 2400 	orr.w	r4, r4, #524288	; 0x80000
 8002b48:	611c      	str	r4, [r3, #16]
    USBx_OUTEP(epnum)->DOEPTSIZ |= (USB_OTG_DOEPTSIZ_XFRSIZ & (ep->maxpacket));
 8002b4a:	691c      	ldr	r4, [r3, #16]
 8002b4c:	688d      	ldr	r5, [r1, #8]
 8002b4e:	f3c5 0512 	ubfx	r5, r5, #0, #19
 8002b52:	432c      	orrs	r4, r5
 8002b54:	611c      	str	r4, [r3, #16]
    if (dma == 1U)
 8002b56:	2a01      	cmp	r2, #1
 8002b58:	d059      	beq.n	8002c0e <USB_EP0StartXfer+0xf6>
    USBx_OUTEP(epnum)->DOEPCTL |= (USB_OTG_DOEPCTL_CNAK | USB_OTG_DOEPCTL_EPENA);
 8002b5a:	f8d0 3b00 	ldr.w	r3, [r0, #2816]	; 0xb00
 8002b5e:	f043 4304 	orr.w	r3, r3, #2214592512	; 0x84000000
 8002b62:	f8c0 3b00 	str.w	r3, [r0, #2816]	; 0xb00
}
 8002b66:	2000      	movs	r0, #0
 8002b68:	bc70      	pop	{r4, r5, r6}
 8002b6a:	4770      	bx	lr
    if (ep->xfer_len == 0U)
 8002b6c:	694c      	ldr	r4, [r1, #20]
 8002b6e:	bb54      	cbnz	r4, 8002bc6 <USB_EP0StartXfer+0xae>
      USBx_INEP(epnum)->DIEPTSIZ &= ~(USB_OTG_DIEPTSIZ_PKTCNT);
 8002b70:	eb00 1443 	add.w	r4, r0, r3, lsl #5
 8002b74:	f8d4 6910 	ldr.w	r6, [r4, #2320]	; 0x910
 8002b78:	4d28      	ldr	r5, [pc, #160]	; (8002c1c <USB_EP0StartXfer+0x104>)
 8002b7a:	4035      	ands	r5, r6
 8002b7c:	f8c4 5910 	str.w	r5, [r4, #2320]	; 0x910
      USBx_INEP(epnum)->DIEPTSIZ |= (USB_OTG_DIEPTSIZ_PKTCNT & (1U << 19));
 8002b80:	f8d4 5910 	ldr.w	r5, [r4, #2320]	; 0x910
 8002b84:	f445 2500 	orr.w	r5, r5, #524288	; 0x80000
 8002b88:	f8c4 5910 	str.w	r5, [r4, #2320]	; 0x910
      USBx_INEP(epnum)->DIEPTSIZ &= ~(USB_OTG_DIEPTSIZ_XFRSIZ);
 8002b8c:	f8d4 6910 	ldr.w	r6, [r4, #2320]	; 0x910
 8002b90:	4d21      	ldr	r5, [pc, #132]	; (8002c18 <USB_EP0StartXfer+0x100>)
 8002b92:	4035      	ands	r5, r6
 8002b94:	f8c4 5910 	str.w	r5, [r4, #2320]	; 0x910
    if (dma == 1U)
 8002b98:	2a01      	cmp	r2, #1
 8002b9a:	d030      	beq.n	8002bfe <USB_EP0StartXfer+0xe6>
      if (ep->xfer_len > 0U)
 8002b9c:	694a      	ldr	r2, [r1, #20]
 8002b9e:	b14a      	cbz	r2, 8002bb4 <USB_EP0StartXfer+0x9c>
        USBx_DEVICE->DIEPEMPMSK |= 1UL << (ep->num & EP_ADDR_MSK);
 8002ba0:	f8d0 2834 	ldr.w	r2, [r0, #2100]	; 0x834
 8002ba4:	7809      	ldrb	r1, [r1, #0]
 8002ba6:	f001 040f 	and.w	r4, r1, #15
 8002baa:	2101      	movs	r1, #1
 8002bac:	40a1      	lsls	r1, r4
 8002bae:	430a      	orrs	r2, r1
 8002bb0:	f8c0 2834 	str.w	r2, [r0, #2100]	; 0x834
    USBx_INEP(epnum)->DIEPCTL |= (USB_OTG_DIEPCTL_CNAK | USB_OTG_DIEPCTL_EPENA);
 8002bb4:	eb00 1043 	add.w	r0, r0, r3, lsl #5
 8002bb8:	f8d0 2900 	ldr.w	r2, [r0, #2304]	; 0x900
 8002bbc:	f042 4204 	orr.w	r2, r2, #2214592512	; 0x84000000
 8002bc0:	f8c0 2900 	str.w	r2, [r0, #2304]	; 0x900
 8002bc4:	e7cf      	b.n	8002b66 <USB_EP0StartXfer+0x4e>
      USBx_INEP(epnum)->DIEPTSIZ &= ~(USB_OTG_DIEPTSIZ_XFRSIZ);
 8002bc6:	eb00 1443 	add.w	r4, r0, r3, lsl #5
 8002bca:	f504 6410 	add.w	r4, r4, #2304	; 0x900
 8002bce:	6926      	ldr	r6, [r4, #16]
 8002bd0:	4d11      	ldr	r5, [pc, #68]	; (8002c18 <USB_EP0StartXfer+0x100>)
 8002bd2:	4035      	ands	r5, r6
 8002bd4:	6125      	str	r5, [r4, #16]
      USBx_INEP(epnum)->DIEPTSIZ &= ~(USB_OTG_DIEPTSIZ_PKTCNT);
 8002bd6:	6926      	ldr	r6, [r4, #16]
 8002bd8:	4d10      	ldr	r5, [pc, #64]	; (8002c1c <USB_EP0StartXfer+0x104>)
 8002bda:	4035      	ands	r5, r6
 8002bdc:	6125      	str	r5, [r4, #16]
      if (ep->xfer_len > ep->maxpacket)
 8002bde:	694e      	ldr	r6, [r1, #20]
 8002be0:	688d      	ldr	r5, [r1, #8]
 8002be2:	42ae      	cmp	r6, r5
 8002be4:	d900      	bls.n	8002be8 <USB_EP0StartXfer+0xd0>
        ep->xfer_len = ep->maxpacket;
 8002be6:	614d      	str	r5, [r1, #20]
      USBx_INEP(epnum)->DIEPTSIZ |= (USB_OTG_DIEPTSIZ_PKTCNT & (1U << 19));
 8002be8:	6925      	ldr	r5, [r4, #16]
 8002bea:	f445 2500 	orr.w	r5, r5, #524288	; 0x80000
 8002bee:	6125      	str	r5, [r4, #16]
      USBx_INEP(epnum)->DIEPTSIZ |= (USB_OTG_DIEPTSIZ_XFRSIZ & ep->xfer_len);
 8002bf0:	6925      	ldr	r5, [r4, #16]
 8002bf2:	694e      	ldr	r6, [r1, #20]
 8002bf4:	f3c6 0612 	ubfx	r6, r6, #0, #19
 8002bf8:	4335      	orrs	r5, r6
 8002bfa:	6125      	str	r5, [r4, #16]
 8002bfc:	e7cc      	b.n	8002b98 <USB_EP0StartXfer+0x80>
      if ((uint32_t)ep->dma_addr != 0U)
 8002bfe:	690a      	ldr	r2, [r1, #16]
 8002c00:	2a00      	cmp	r2, #0
 8002c02:	d0d7      	beq.n	8002bb4 <USB_EP0StartXfer+0x9c>
        USBx_INEP(epnum)->DIEPDMA = (uint32_t)(ep->dma_addr);
 8002c04:	eb00 1143 	add.w	r1, r0, r3, lsl #5
 8002c08:	f8c1 2914 	str.w	r2, [r1, #2324]	; 0x914
 8002c0c:	e7d2      	b.n	8002bb4 <USB_EP0StartXfer+0x9c>
      if ((uint32_t)ep->xfer_buff != 0U)
 8002c0e:	68ca      	ldr	r2, [r1, #12]
 8002c10:	2a00      	cmp	r2, #0
 8002c12:	d0a2      	beq.n	8002b5a <USB_EP0StartXfer+0x42>
        USBx_OUTEP(epnum)->DOEPDMA = (uint32_t)(ep->xfer_buff);
 8002c14:	615a      	str	r2, [r3, #20]
 8002c16:	e7a0      	b.n	8002b5a <USB_EP0StartXfer+0x42>
 8002c18:	fff80000 	.word	0xfff80000
 8002c1c:	e007ffff 	.word	0xe007ffff

08002c20 <USB_WritePacket>:
{
 8002c20:	b470      	push	{r4, r5, r6}
 8002c22:	f89d 400c 	ldrb.w	r4, [sp, #12]
  if (dma == 0U)
 8002c26:	b964      	cbnz	r4, 8002c42 <USB_WritePacket+0x22>
    count32b = ((uint32_t)len + 3U) / 4U;
 8002c28:	3303      	adds	r3, #3
 8002c2a:	089d      	lsrs	r5, r3, #2
    for (i = 0U; i < count32b; i++)
 8002c2c:	e007      	b.n	8002c3e <USB_WritePacket+0x1e>
      USBx_DFIFO((uint32_t)ch_ep_num) = *((__packed uint32_t *)pSrc);
 8002c2e:	eb00 3302 	add.w	r3, r0, r2, lsl #12
 8002c32:	f503 5380 	add.w	r3, r3, #4096	; 0x1000
 8002c36:	f851 6b04 	ldr.w	r6, [r1], #4
 8002c3a:	601e      	str	r6, [r3, #0]
    for (i = 0U; i < count32b; i++)
 8002c3c:	3401      	adds	r4, #1
 8002c3e:	42ac      	cmp	r4, r5
 8002c40:	d3f5      	bcc.n	8002c2e <USB_WritePacket+0xe>
}
 8002c42:	2000      	movs	r0, #0
 8002c44:	bc70      	pop	{r4, r5, r6}
 8002c46:	4770      	bx	lr

08002c48 <USB_EPStartXfer>:
{
 8002c48:	b5f0      	push	{r4, r5, r6, r7, lr}
 8002c4a:	b083      	sub	sp, #12
  uint32_t epnum = (uint32_t)ep->num;
 8002c4c:	780b      	ldrb	r3, [r1, #0]
  if (ep->is_in == 1U)
 8002c4e:	784c      	ldrb	r4, [r1, #1]
 8002c50:	2c01      	cmp	r4, #1
 8002c52:	d029      	beq.n	8002ca8 <USB_EPStartXfer+0x60>
    USBx_OUTEP(epnum)->DOEPTSIZ &= ~(USB_OTG_DOEPTSIZ_XFRSIZ);
 8002c54:	eb00 1343 	add.w	r3, r0, r3, lsl #5
 8002c58:	f503 6430 	add.w	r4, r3, #2816	; 0xb00
 8002c5c:	6926      	ldr	r6, [r4, #16]
 8002c5e:	4d71      	ldr	r5, [pc, #452]	; (8002e24 <USB_EPStartXfer+0x1dc>)
 8002c60:	4035      	ands	r5, r6
 8002c62:	6125      	str	r5, [r4, #16]
    USBx_OUTEP(epnum)->DOEPTSIZ &= ~(USB_OTG_DOEPTSIZ_PKTCNT);
 8002c64:	6926      	ldr	r6, [r4, #16]
 8002c66:	4d70      	ldr	r5, [pc, #448]	; (8002e28 <USB_EPStartXfer+0x1e0>)
 8002c68:	4035      	ands	r5, r6
 8002c6a:	6125      	str	r5, [r4, #16]
    if (ep->xfer_len == 0U)
 8002c6c:	694d      	ldr	r5, [r1, #20]
 8002c6e:	2d00      	cmp	r5, #0
 8002c70:	f040 80aa 	bne.w	8002dc8 <USB_EPStartXfer+0x180>
      USBx_OUTEP(epnum)->DOEPTSIZ |= (USB_OTG_DOEPTSIZ_XFRSIZ & ep->maxpacket);
 8002c74:	6925      	ldr	r5, [r4, #16]
 8002c76:	688e      	ldr	r6, [r1, #8]
 8002c78:	f3c6 0612 	ubfx	r6, r6, #0, #19
 8002c7c:	4335      	orrs	r5, r6
 8002c7e:	6125      	str	r5, [r4, #16]
      USBx_OUTEP(epnum)->DOEPTSIZ |= (USB_OTG_DOEPTSIZ_PKTCNT & (1U << 19));
 8002c80:	6925      	ldr	r5, [r4, #16]
 8002c82:	f445 2500 	orr.w	r5, r5, #524288	; 0x80000
 8002c86:	6125      	str	r5, [r4, #16]
    if (dma == 1U)
 8002c88:	2a01      	cmp	r2, #1
 8002c8a:	f000 80b2 	beq.w	8002df2 <USB_EPStartXfer+0x1aa>
    if (ep->type == EP_TYPE_ISOC)
 8002c8e:	78ca      	ldrb	r2, [r1, #3]
 8002c90:	2a01      	cmp	r2, #1
 8002c92:	f000 80b4 	beq.w	8002dfe <USB_EPStartXfer+0x1b6>
    USBx_OUTEP(epnum)->DOEPCTL |= (USB_OTG_DOEPCTL_CNAK | USB_OTG_DOEPCTL_EPENA);
 8002c96:	f8d3 2b00 	ldr.w	r2, [r3, #2816]	; 0xb00
 8002c9a:	f042 4204 	orr.w	r2, r2, #2214592512	; 0x84000000
 8002c9e:	f8c3 2b00 	str.w	r2, [r3, #2816]	; 0xb00
}
 8002ca2:	2000      	movs	r0, #0
 8002ca4:	b003      	add	sp, #12
 8002ca6:	bdf0      	pop	{r4, r5, r6, r7, pc}
    if (ep->xfer_len == 0U)
 8002ca8:	694c      	ldr	r4, [r1, #20]
 8002caa:	2c00      	cmp	r4, #0
 8002cac:	d13b      	bne.n	8002d26 <USB_EPStartXfer+0xde>
      USBx_INEP(epnum)->DIEPTSIZ &= ~(USB_OTG_DIEPTSIZ_PKTCNT);
 8002cae:	eb00 1443 	add.w	r4, r0, r3, lsl #5
 8002cb2:	f8d4 6910 	ldr.w	r6, [r4, #2320]	; 0x910
 8002cb6:	4d5c      	ldr	r5, [pc, #368]	; (8002e28 <USB_EPStartXfer+0x1e0>)
 8002cb8:	4035      	ands	r5, r6
 8002cba:	f8c4 5910 	str.w	r5, [r4, #2320]	; 0x910
      USBx_INEP(epnum)->DIEPTSIZ |= (USB_OTG_DIEPTSIZ_PKTCNT & (1U << 19));
 8002cbe:	f8d4 5910 	ldr.w	r5, [r4, #2320]	; 0x910
 8002cc2:	f445 2500 	orr.w	r5, r5, #524288	; 0x80000
 8002cc6:	f8c4 5910 	str.w	r5, [r4, #2320]	; 0x910
      USBx_INEP(epnum)->DIEPTSIZ &= ~(USB_OTG_DIEPTSIZ_XFRSIZ);
 8002cca:	f8d4 6910 	ldr.w	r6, [r4, #2320]	; 0x910
 8002cce:	4d55      	ldr	r5, [pc, #340]	; (8002e24 <USB_EPStartXfer+0x1dc>)
 8002cd0:	4035      	ands	r5, r6
 8002cd2:	f8c4 5910 	str.w	r5, [r4, #2320]	; 0x910
    if (dma == 1U)
 8002cd6:	2a01      	cmp	r2, #1
 8002cd8:	d057      	beq.n	8002d8a <USB_EPStartXfer+0x142>
      if (ep->type != EP_TYPE_ISOC)
 8002cda:	78cc      	ldrb	r4, [r1, #3]
 8002cdc:	2c01      	cmp	r4, #1
 8002cde:	d00b      	beq.n	8002cf8 <USB_EPStartXfer+0xb0>
        if (ep->xfer_len > 0U)
 8002ce0:	694c      	ldr	r4, [r1, #20]
 8002ce2:	b14c      	cbz	r4, 8002cf8 <USB_EPStartXfer+0xb0>
          USBx_DEVICE->DIEPEMPMSK |= 1UL << (ep->num & EP_ADDR_MSK);
 8002ce4:	f8d0 4834 	ldr.w	r4, [r0, #2100]	; 0x834
 8002ce8:	780d      	ldrb	r5, [r1, #0]
 8002cea:	f005 060f 	and.w	r6, r5, #15
 8002cee:	2501      	movs	r5, #1
 8002cf0:	40b5      	lsls	r5, r6
 8002cf2:	432c      	orrs	r4, r5
 8002cf4:	f8c0 4834 	str.w	r4, [r0, #2100]	; 0x834
    if (ep->type == EP_TYPE_ISOC)
 8002cf8:	78cc      	ldrb	r4, [r1, #3]
 8002cfa:	2c01      	cmp	r4, #1
 8002cfc:	d04d      	beq.n	8002d9a <USB_EPStartXfer+0x152>
    USBx_INEP(epnum)->DIEPCTL |= (USB_OTG_DIEPCTL_CNAK | USB_OTG_DIEPCTL_EPENA);
 8002cfe:	eb00 1343 	add.w	r3, r0, r3, lsl #5
 8002d02:	f8d3 4900 	ldr.w	r4, [r3, #2304]	; 0x900
 8002d06:	f044 4404 	orr.w	r4, r4, #2214592512	; 0x84000000
 8002d0a:	f8c3 4900 	str.w	r4, [r3, #2304]	; 0x900
    if (ep->type == EP_TYPE_ISOC)
 8002d0e:	78cb      	ldrb	r3, [r1, #3]
 8002d10:	2b01      	cmp	r3, #1
 8002d12:	d1c6      	bne.n	8002ca2 <USB_EPStartXfer+0x5a>
 8002d14:	4614      	mov	r4, r2
 8002d16:	460b      	mov	r3, r1
      (void)USB_WritePacket(USBx, ep->xfer_buff, ep->num, (uint16_t)ep->xfer_len, dma);
 8002d18:	68c9      	ldr	r1, [r1, #12]
 8002d1a:	781a      	ldrb	r2, [r3, #0]
 8002d1c:	8a9b      	ldrh	r3, [r3, #20]
 8002d1e:	9400      	str	r4, [sp, #0]
 8002d20:	f7ff ff7e 	bl	8002c20 <USB_WritePacket>
 8002d24:	e7bd      	b.n	8002ca2 <USB_EPStartXfer+0x5a>
      USBx_INEP(epnum)->DIEPTSIZ &= ~(USB_OTG_DIEPTSIZ_XFRSIZ);
 8002d26:	eb00 1443 	add.w	r4, r0, r3, lsl #5
 8002d2a:	f8d4 6910 	ldr.w	r6, [r4, #2320]	; 0x910
 8002d2e:	4d3d      	ldr	r5, [pc, #244]	; (8002e24 <USB_EPStartXfer+0x1dc>)
 8002d30:	4035      	ands	r5, r6
 8002d32:	f8c4 5910 	str.w	r5, [r4, #2320]	; 0x910
      USBx_INEP(epnum)->DIEPTSIZ &= ~(USB_OTG_DIEPTSIZ_PKTCNT);
 8002d36:	f8d4 6910 	ldr.w	r6, [r4, #2320]	; 0x910
 8002d3a:	4d3b      	ldr	r5, [pc, #236]	; (8002e28 <USB_EPStartXfer+0x1e0>)
 8002d3c:	4035      	ands	r5, r6
 8002d3e:	f8c4 5910 	str.w	r5, [r4, #2320]	; 0x910
      USBx_INEP(epnum)->DIEPTSIZ |= (USB_OTG_DIEPTSIZ_PKTCNT & (((ep->xfer_len + ep->maxpacket - 1U) / ep->maxpacket) << 19));
 8002d42:	f8d4 6910 	ldr.w	r6, [r4, #2320]	; 0x910
 8002d46:	694d      	ldr	r5, [r1, #20]
 8002d48:	688f      	ldr	r7, [r1, #8]
 8002d4a:	443d      	add	r5, r7
 8002d4c:	3d01      	subs	r5, #1
 8002d4e:	fbb5 f5f7 	udiv	r5, r5, r7
 8002d52:	4f36      	ldr	r7, [pc, #216]	; (8002e2c <USB_EPStartXfer+0x1e4>)
 8002d54:	ea07 45c5 	and.w	r5, r7, r5, lsl #19
 8002d58:	4335      	orrs	r5, r6
 8002d5a:	f8c4 5910 	str.w	r5, [r4, #2320]	; 0x910
      USBx_INEP(epnum)->DIEPTSIZ |= (USB_OTG_DIEPTSIZ_XFRSIZ & ep->xfer_len);
 8002d5e:	f8d4 5910 	ldr.w	r5, [r4, #2320]	; 0x910
 8002d62:	694e      	ldr	r6, [r1, #20]
 8002d64:	f3c6 0612 	ubfx	r6, r6, #0, #19
 8002d68:	4335      	orrs	r5, r6
 8002d6a:	f8c4 5910 	str.w	r5, [r4, #2320]	; 0x910
      USBx_INEP(epnum)->DIEPTSIZ &= ~(USB_OTG_DIEPTSIZ_XFRSIZ);
 8002d6e:	f504 6410 	add.w	r4, r4, #2304	; 0x900
      if (ep->type == EP_TYPE_ISOC)
 8002d72:	78cd      	ldrb	r5, [r1, #3]
 8002d74:	2d01      	cmp	r5, #1
 8002d76:	d1ae      	bne.n	8002cd6 <USB_EPStartXfer+0x8e>
        USBx_INEP(epnum)->DIEPTSIZ &= ~(USB_OTG_DIEPTSIZ_MULCNT);
 8002d78:	6925      	ldr	r5, [r4, #16]
 8002d7a:	f025 45c0 	bic.w	r5, r5, #1610612736	; 0x60000000
 8002d7e:	6125      	str	r5, [r4, #16]
        USBx_INEP(epnum)->DIEPTSIZ |= (USB_OTG_DIEPTSIZ_MULCNT & (1U << 29));
 8002d80:	6925      	ldr	r5, [r4, #16]
 8002d82:	f045 5500 	orr.w	r5, r5, #536870912	; 0x20000000
 8002d86:	6125      	str	r5, [r4, #16]
 8002d88:	e7a5      	b.n	8002cd6 <USB_EPStartXfer+0x8e>
      if ((uint32_t)ep->dma_addr != 0U)
 8002d8a:	690c      	ldr	r4, [r1, #16]
 8002d8c:	2c00      	cmp	r4, #0
 8002d8e:	d0b3      	beq.n	8002cf8 <USB_EPStartXfer+0xb0>
        USBx_INEP(epnum)->DIEPDMA = (uint32_t)(ep->dma_addr);
 8002d90:	eb00 1543 	add.w	r5, r0, r3, lsl #5
 8002d94:	f8c5 4914 	str.w	r4, [r5, #2324]	; 0x914
 8002d98:	e7ae      	b.n	8002cf8 <USB_EPStartXfer+0xb0>
      if ((USBx_DEVICE->DSTS & (1U << 8)) == 0U)
 8002d9a:	f8d0 4808 	ldr.w	r4, [r0, #2056]	; 0x808
 8002d9e:	f414 7f80 	tst.w	r4, #256	; 0x100
 8002da2:	d108      	bne.n	8002db6 <USB_EPStartXfer+0x16e>
        USBx_INEP(epnum)->DIEPCTL |= USB_OTG_DIEPCTL_SODDFRM;
 8002da4:	eb00 1543 	add.w	r5, r0, r3, lsl #5
 8002da8:	f8d5 4900 	ldr.w	r4, [r5, #2304]	; 0x900
 8002dac:	f044 5400 	orr.w	r4, r4, #536870912	; 0x20000000
 8002db0:	f8c5 4900 	str.w	r4, [r5, #2304]	; 0x900
 8002db4:	e7a3      	b.n	8002cfe <USB_EPStartXfer+0xb6>
        USBx_INEP(epnum)->DIEPCTL |= USB_OTG_DIEPCTL_SD0PID_SEVNFRM;
 8002db6:	eb00 1543 	add.w	r5, r0, r3, lsl #5
 8002dba:	f8d5 4900 	ldr.w	r4, [r5, #2304]	; 0x900
 8002dbe:	f044 5480 	orr.w	r4, r4, #268435456	; 0x10000000
 8002dc2:	f8c5 4900 	str.w	r4, [r5, #2304]	; 0x900
 8002dc6:	e79a      	b.n	8002cfe <USB_EPStartXfer+0xb6>
      pktcnt = (uint16_t)((ep->xfer_len + ep->maxpacket - 1U) / ep->maxpacket);
 8002dc8:	688e      	ldr	r6, [r1, #8]
 8002dca:	4435      	add	r5, r6
 8002dcc:	3d01      	subs	r5, #1
 8002dce:	fbb5 f5f6 	udiv	r5, r5, r6
      USBx_OUTEP(epnum)->DOEPTSIZ |= USB_OTG_DOEPTSIZ_PKTCNT & ((uint32_t)pktcnt << 19);
 8002dd2:	6926      	ldr	r6, [r4, #16]
 8002dd4:	4f15      	ldr	r7, [pc, #84]	; (8002e2c <USB_EPStartXfer+0x1e4>)
 8002dd6:	ea07 47c5 	and.w	r7, r7, r5, lsl #19
 8002dda:	433e      	orrs	r6, r7
 8002ddc:	6126      	str	r6, [r4, #16]
      USBx_OUTEP(epnum)->DOEPTSIZ |= USB_OTG_DOEPTSIZ_XFRSIZ & (ep->maxpacket * pktcnt);
 8002dde:	6927      	ldr	r7, [r4, #16]
 8002de0:	688e      	ldr	r6, [r1, #8]
 8002de2:	b2ad      	uxth	r5, r5
 8002de4:	fb06 f505 	mul.w	r5, r6, r5
 8002de8:	f3c5 0512 	ubfx	r5, r5, #0, #19
 8002dec:	433d      	orrs	r5, r7
 8002dee:	6125      	str	r5, [r4, #16]
 8002df0:	e74a      	b.n	8002c88 <USB_EPStartXfer+0x40>
      if ((uint32_t)ep->xfer_buff != 0U)
 8002df2:	68ca      	ldr	r2, [r1, #12]
 8002df4:	2a00      	cmp	r2, #0
 8002df6:	f43f af4a 	beq.w	8002c8e <USB_EPStartXfer+0x46>
        USBx_OUTEP(epnum)->DOEPDMA = (uint32_t)(ep->xfer_buff);
 8002dfa:	6162      	str	r2, [r4, #20]
 8002dfc:	e747      	b.n	8002c8e <USB_EPStartXfer+0x46>
      if ((USBx_DEVICE->DSTS & (1U << 8)) == 0U)
 8002dfe:	f8d0 2808 	ldr.w	r2, [r0, #2056]	; 0x808
 8002e02:	f412 7f80 	tst.w	r2, #256	; 0x100
 8002e06:	d106      	bne.n	8002e16 <USB_EPStartXfer+0x1ce>
        USBx_OUTEP(epnum)->DOEPCTL |= USB_OTG_DOEPCTL_SODDFRM;
 8002e08:	f8d3 2b00 	ldr.w	r2, [r3, #2816]	; 0xb00
 8002e0c:	f042 5200 	orr.w	r2, r2, #536870912	; 0x20000000
 8002e10:	f8c3 2b00 	str.w	r2, [r3, #2816]	; 0xb00
 8002e14:	e73f      	b.n	8002c96 <USB_EPStartXfer+0x4e>
        USBx_OUTEP(epnum)->DOEPCTL |= USB_OTG_DOEPCTL_SD0PID_SEVNFRM;
 8002e16:	f8d3 2b00 	ldr.w	r2, [r3, #2816]	; 0xb00
 8002e1a:	f042 5280 	orr.w	r2, r2, #268435456	; 0x10000000
 8002e1e:	f8c3 2b00 	str.w	r2, [r3, #2816]	; 0xb00
 8002e22:	e738      	b.n	8002c96 <USB_EPStartXfer+0x4e>
 8002e24:	fff80000 	.word	0xfff80000
 8002e28:	e007ffff 	.word	0xe007ffff
 8002e2c:	1ff80000 	.word	0x1ff80000

08002e30 <USB_ReadPacket>:
  uint32_t count32b = ((uint32_t)len + 3U) / 4U;
 8002e30:	3203      	adds	r2, #3
 8002e32:	0892      	lsrs	r2, r2, #2
  for (i = 0U; i < count32b; i++)
 8002e34:	2300      	movs	r3, #0
 8002e36:	4293      	cmp	r3, r2
 8002e38:	d20c      	bcs.n	8002e54 <USB_ReadPacket+0x24>
{
 8002e3a:	b410      	push	{r4}
    *(__packed uint32_t *)pDest = USBx_DFIFO(0U);
 8002e3c:	f500 5480 	add.w	r4, r0, #4096	; 0x1000
 8002e40:	6824      	ldr	r4, [r4, #0]
 8002e42:	f841 4b04 	str.w	r4, [r1], #4
  for (i = 0U; i < count32b; i++)
 8002e46:	3301      	adds	r3, #1
 8002e48:	4293      	cmp	r3, r2
 8002e4a:	d3f7      	bcc.n	8002e3c <USB_ReadPacket+0xc>
}
 8002e4c:	4608      	mov	r0, r1
 8002e4e:	f85d 4b04 	ldr.w	r4, [sp], #4
 8002e52:	4770      	bx	lr
 8002e54:	4608      	mov	r0, r1
 8002e56:	4770      	bx	lr

08002e58 <USB_EPSetStall>:
  uint32_t epnum = (uint32_t)ep->num;
 8002e58:	780b      	ldrb	r3, [r1, #0]
  if (ep->is_in == 1U)
 8002e5a:	784a      	ldrb	r2, [r1, #1]
 8002e5c:	2a01      	cmp	r2, #1
 8002e5e:	d014      	beq.n	8002e8a <USB_EPSetStall+0x32>
    if (((USBx_OUTEP(epnum)->DOEPCTL & USB_OTG_DOEPCTL_EPENA) == 0U) && (epnum != 0U))
 8002e60:	eb00 1043 	add.w	r0, r0, r3, lsl #5
 8002e64:	f8d0 2b00 	ldr.w	r2, [r0, #2816]	; 0xb00
 8002e68:	2a00      	cmp	r2, #0
 8002e6a:	db06      	blt.n	8002e7a <USB_EPSetStall+0x22>
 8002e6c:	b12b      	cbz	r3, 8002e7a <USB_EPSetStall+0x22>
      USBx_OUTEP(epnum)->DOEPCTL &= ~(USB_OTG_DOEPCTL_EPDIS);
 8002e6e:	f8d0 3b00 	ldr.w	r3, [r0, #2816]	; 0xb00
 8002e72:	f023 4380 	bic.w	r3, r3, #1073741824	; 0x40000000
 8002e76:	f8c0 3b00 	str.w	r3, [r0, #2816]	; 0xb00
    USBx_OUTEP(epnum)->DOEPCTL |= USB_OTG_DOEPCTL_STALL;
 8002e7a:	f8d0 3b00 	ldr.w	r3, [r0, #2816]	; 0xb00
 8002e7e:	f443 1300 	orr.w	r3, r3, #2097152	; 0x200000
 8002e82:	f8c0 3b00 	str.w	r3, [r0, #2816]	; 0xb00
}
 8002e86:	2000      	movs	r0, #0
 8002e88:	4770      	bx	lr
    if (((USBx_INEP(epnum)->DIEPCTL & USB_OTG_DIEPCTL_EPENA) == 0U) && (epnum != 0U))
 8002e8a:	eb00 1043 	add.w	r0, r0, r3, lsl #5
 8002e8e:	f8d0 2900 	ldr.w	r2, [r0, #2304]	; 0x900
 8002e92:	2a00      	cmp	r2, #0
 8002e94:	db06      	blt.n	8002ea4 <USB_EPSetStall+0x4c>
 8002e96:	b12b      	cbz	r3, 8002ea4 <USB_EPSetStall+0x4c>
      USBx_INEP(epnum)->DIEPCTL &= ~(USB_OTG_DIEPCTL_EPDIS);
 8002e98:	f8d0 3900 	ldr.w	r3, [r0, #2304]	; 0x900
 8002e9c:	f023 4380 	bic.w	r3, r3, #1073741824	; 0x40000000
 8002ea0:	f8c0 3900 	str.w	r3, [r0, #2304]	; 0x900
    USBx_INEP(epnum)->DIEPCTL |= USB_OTG_DIEPCTL_STALL;
 8002ea4:	f8d0 3900 	ldr.w	r3, [r0, #2304]	; 0x900
 8002ea8:	f443 1300 	orr.w	r3, r3, #2097152	; 0x200000
 8002eac:	f8c0 3900 	str.w	r3, [r0, #2304]	; 0x900
 8002eb0:	e7e9      	b.n	8002e86 <USB_EPSetStall+0x2e>

08002eb2 <USB_EPClearStall>:
  uint32_t epnum = (uint32_t)ep->num;
 8002eb2:	780b      	ldrb	r3, [r1, #0]
  if (ep->is_in == 1U)
 8002eb4:	784a      	ldrb	r2, [r1, #1]
 8002eb6:	2a01      	cmp	r2, #1
 8002eb8:	d00e      	beq.n	8002ed8 <USB_EPClearStall+0x26>
    USBx_OUTEP(epnum)->DOEPCTL &= ~USB_OTG_DOEPCTL_STALL;
 8002eba:	eb00 1043 	add.w	r0, r0, r3, lsl #5
 8002ebe:	f8d0 3b00 	ldr.w	r3, [r0, #2816]	; 0xb00
 8002ec2:	f423 1300 	bic.w	r3, r3, #2097152	; 0x200000
 8002ec6:	f8c0 3b00 	str.w	r3, [r0, #2816]	; 0xb00
    if ((ep->type == EP_TYPE_INTR) || (ep->type == EP_TYPE_BULK))
 8002eca:	78cb      	ldrb	r3, [r1, #3]
 8002ecc:	3b02      	subs	r3, #2
 8002ece:	b2db      	uxtb	r3, r3
 8002ed0:	2b01      	cmp	r3, #1
 8002ed2:	d915      	bls.n	8002f00 <USB_EPClearStall+0x4e>
}
 8002ed4:	2000      	movs	r0, #0
 8002ed6:	4770      	bx	lr
    USBx_INEP(epnum)->DIEPCTL &= ~USB_OTG_DIEPCTL_STALL;
 8002ed8:	eb00 1043 	add.w	r0, r0, r3, lsl #5
 8002edc:	f8d0 3900 	ldr.w	r3, [r0, #2304]	; 0x900
 8002ee0:	f423 1300 	bic.w	r3, r3, #2097152	; 0x200000
 8002ee4:	f8c0 3900 	str.w	r3, [r0, #2304]	; 0x900
    if ((ep->type == EP_TYPE_INTR) || (ep->type == EP_TYPE_BULK))
 8002ee8:	78cb      	ldrb	r3, [r1, #3]
 8002eea:	3b02      	subs	r3, #2
 8002eec:	b2db      	uxtb	r3, r3
 8002eee:	2b01      	cmp	r3, #1
 8002ef0:	d8f0      	bhi.n	8002ed4 <USB_EPClearStall+0x22>
      USBx_INEP(epnum)->DIEPCTL |= USB_OTG_DIEPCTL_SD0PID_SEVNFRM; /* DATA0 */
 8002ef2:	f8d0 3900 	ldr.w	r3, [r0, #2304]	; 0x900
 8002ef6:	f043 5380 	orr.w	r3, r3, #268435456	; 0x10000000
 8002efa:	f8c0 3900 	str.w	r3, [r0, #2304]	; 0x900
 8002efe:	e7e9      	b.n	8002ed4 <USB_EPClearStall+0x22>
      USBx_OUTEP(epnum)->DOEPCTL |= USB_OTG_DOEPCTL_SD0PID_SEVNFRM; /* DATA0 */
 8002f00:	f8d0 3b00 	ldr.w	r3, [r0, #2816]	; 0xb00
 8002f04:	f043 5380 	orr.w	r3, r3, #268435456	; 0x10000000
 8002f08:	f8c0 3b00 	str.w	r3, [r0, #2816]	; 0xb00
 8002f0c:	e7e2      	b.n	8002ed4 <USB_EPClearStall+0x22>

08002f0e <USB_SetDevAddress>:
  USBx_DEVICE->DCFG &= ~(USB_OTG_DCFG_DAD);
 8002f0e:	f8d0 3800 	ldr.w	r3, [r0, #2048]	; 0x800
 8002f12:	f423 63fe 	bic.w	r3, r3, #2032	; 0x7f0
 8002f16:	f8c0 3800 	str.w	r3, [r0, #2048]	; 0x800
  USBx_DEVICE->DCFG |= ((uint32_t)address << 4) & USB_OTG_DCFG_DAD;
 8002f1a:	f8d0 3800 	ldr.w	r3, [r0, #2048]	; 0x800
 8002f1e:	0109      	lsls	r1, r1, #4
 8002f20:	f401 61fe 	and.w	r1, r1, #2032	; 0x7f0
 8002f24:	430b      	orrs	r3, r1
 8002f26:	f8c0 3800 	str.w	r3, [r0, #2048]	; 0x800
}
 8002f2a:	2000      	movs	r0, #0
 8002f2c:	4770      	bx	lr

08002f2e <USB_DevConnect>:
{
 8002f2e:	b508      	push	{r3, lr}
  USBx_DEVICE->DCTL &= ~USB_OTG_DCTL_SDIS;
 8002f30:	f8d0 3804 	ldr.w	r3, [r0, #2052]	; 0x804
 8002f34:	f023 0302 	bic.w	r3, r3, #2
 8002f38:	f8c0 3804 	str.w	r3, [r0, #2052]	; 0x804
  HAL_Delay(3U);
 8002f3c:	2003      	movs	r0, #3
 8002f3e:	f7fd fb89 	bl	8000654 <HAL_Delay>
}
 8002f42:	2000      	movs	r0, #0
 8002f44:	bd08      	pop	{r3, pc}

08002f46 <USB_DevDisconnect>:
{
 8002f46:	b508      	push	{r3, lr}
  USBx_DEVICE->DCTL |= USB_OTG_DCTL_SDIS;
 8002f48:	f8d0 3804 	ldr.w	r3, [r0, #2052]	; 0x804
 8002f4c:	f043 0302 	orr.w	r3, r3, #2
 8002f50:	f8c0 3804 	str.w	r3, [r0, #2052]	; 0x804
  HAL_Delay(3U);
 8002f54:	2003      	movs	r0, #3
 8002f56:	f7fd fb7d 	bl	8000654 <HAL_Delay>
}
 8002f5a:	2000      	movs	r0, #0
 8002f5c:	bd08      	pop	{r3, pc}

08002f5e <USB_ReadInterrupts>:
  tmpreg = USBx->GINTSTS;
 8002f5e:	6942      	ldr	r2, [r0, #20]
  tmpreg &= USBx->GINTMSK;
 8002f60:	6980      	ldr	r0, [r0, #24]
}
 8002f62:	4010      	ands	r0, r2
 8002f64:	4770      	bx	lr

08002f66 <USB_ReadDevAllOutEpInterrupt>:
  tmpreg  = USBx_DEVICE->DAINT;
 8002f66:	f8d0 3818 	ldr.w	r3, [r0, #2072]	; 0x818
 8002f6a:	f500 6000 	add.w	r0, r0, #2048	; 0x800
  tmpreg &= USBx_DEVICE->DAINTMSK;
 8002f6e:	69c0      	ldr	r0, [r0, #28]
 8002f70:	4018      	ands	r0, r3
}
 8002f72:	0c00      	lsrs	r0, r0, #16
 8002f74:	4770      	bx	lr

08002f76 <USB_ReadDevAllInEpInterrupt>:
  tmpreg  = USBx_DEVICE->DAINT;
 8002f76:	f8d0 3818 	ldr.w	r3, [r0, #2072]	; 0x818
 8002f7a:	f500 6000 	add.w	r0, r0, #2048	; 0x800
  tmpreg &= USBx_DEVICE->DAINTMSK;
 8002f7e:	69c0      	ldr	r0, [r0, #28]
 8002f80:	4018      	ands	r0, r3
}
 8002f82:	b280      	uxth	r0, r0
 8002f84:	4770      	bx	lr

08002f86 <USB_ReadDevOutEPInterrupt>:
  tmpreg  = USBx_OUTEP((uint32_t)epnum)->DOEPINT;
 8002f86:	eb00 1141 	add.w	r1, r0, r1, lsl #5
 8002f8a:	f8d1 2b08 	ldr.w	r2, [r1, #2824]	; 0xb08
  tmpreg &= USBx_DEVICE->DOEPMSK;
 8002f8e:	f500 6000 	add.w	r0, r0, #2048	; 0x800
 8002f92:	6940      	ldr	r0, [r0, #20]
}
 8002f94:	4010      	ands	r0, r2
 8002f96:	4770      	bx	lr

08002f98 <USB_ReadDevInEPInterrupt>:
{
 8002f98:	b410      	push	{r4}
  msk = USBx_DEVICE->DIEPMSK;
 8002f9a:	f8d0 4810 	ldr.w	r4, [r0, #2064]	; 0x810
  emp = USBx_DEVICE->DIEPEMPMSK;
 8002f9e:	f8d0 3834 	ldr.w	r3, [r0, #2100]	; 0x834
  msk |= ((emp >> (epnum & EP_ADDR_MSK)) & 0x1U) << 7;
 8002fa2:	f001 020f 	and.w	r2, r1, #15
 8002fa6:	40d3      	lsrs	r3, r2
 8002fa8:	01db      	lsls	r3, r3, #7
 8002faa:	b2db      	uxtb	r3, r3
 8002fac:	4323      	orrs	r3, r4
  tmpreg = USBx_INEP((uint32_t)epnum)->DIEPINT & msk;
 8002fae:	eb00 1041 	add.w	r0, r0, r1, lsl #5
 8002fb2:	f500 6010 	add.w	r0, r0, #2304	; 0x900
 8002fb6:	6880      	ldr	r0, [r0, #8]
}
 8002fb8:	4018      	ands	r0, r3
 8002fba:	f85d 4b04 	ldr.w	r4, [sp], #4
 8002fbe:	4770      	bx	lr

08002fc0 <USB_GetMode>:
  return ((USBx->GINTSTS) & 0x1U);
 8002fc0:	6940      	ldr	r0, [r0, #20]
}
 8002fc2:	f000 0001 	and.w	r0, r0, #1
 8002fc6:	4770      	bx	lr

08002fc8 <USB_ActivateSetup>:
  USBx_INEP(0U)->DIEPCTL &= ~USB_OTG_DIEPCTL_MPSIZ;
 8002fc8:	f8d0 2900 	ldr.w	r2, [r0, #2304]	; 0x900
 8002fcc:	4b0b      	ldr	r3, [pc, #44]	; (8002ffc <USB_ActivateSetup+0x34>)
 8002fce:	4013      	ands	r3, r2
 8002fd0:	f8c0 3900 	str.w	r3, [r0, #2304]	; 0x900
  if ((USBx_DEVICE->DSTS & USB_OTG_DSTS_ENUMSPD) == DSTS_ENUMSPD_LS_PHY_6MHZ)
 8002fd4:	f500 6300 	add.w	r3, r0, #2048	; 0x800
 8002fd8:	689a      	ldr	r2, [r3, #8]
 8002fda:	f002 0206 	and.w	r2, r2, #6
 8002fde:	2a04      	cmp	r2, #4
 8002fe0:	d005      	beq.n	8002fee <USB_ActivateSetup+0x26>
  USBx_DEVICE->DCTL |= USB_OTG_DCTL_CGINAK;
 8002fe2:	685a      	ldr	r2, [r3, #4]
 8002fe4:	f442 7280 	orr.w	r2, r2, #256	; 0x100
 8002fe8:	605a      	str	r2, [r3, #4]
}
 8002fea:	2000      	movs	r0, #0
 8002fec:	4770      	bx	lr
    USBx_INEP(0U)->DIEPCTL |= 3U;
 8002fee:	f8d0 2900 	ldr.w	r2, [r0, #2304]	; 0x900
 8002ff2:	f042 0203 	orr.w	r2, r2, #3
 8002ff6:	f8c0 2900 	str.w	r2, [r0, #2304]	; 0x900
 8002ffa:	e7f2      	b.n	8002fe2 <USB_ActivateSetup+0x1a>
 8002ffc:	fffff800 	.word	0xfffff800

08003000 <USB_EP0_OutStart>:
{
 8003000:	b410      	push	{r4}
  uint32_t gSNPSiD = *(__IO uint32_t *)(&USBx->CID + 0x1U);
 8003002:	6c04      	ldr	r4, [r0, #64]	; 0x40
  if (gSNPSiD > USB_OTG_CORE_ID_300A)
 8003004:	4b15      	ldr	r3, [pc, #84]	; (800305c <USB_EP0_OutStart+0x5c>)
 8003006:	429c      	cmp	r4, r3
 8003008:	d903      	bls.n	8003012 <USB_EP0_OutStart+0x12>
    if ((USBx_OUTEP(0U)->DOEPCTL & USB_OTG_DOEPCTL_EPENA) == USB_OTG_DOEPCTL_EPENA)
 800300a:	f8d0 3b00 	ldr.w	r3, [r0, #2816]	; 0xb00
 800300e:	2b00      	cmp	r3, #0
 8003010:	db16      	blt.n	8003040 <USB_EP0_OutStart+0x40>
  USBx_OUTEP(0U)->DOEPTSIZ = 0U;
 8003012:	2400      	movs	r4, #0
 8003014:	f8c0 4b10 	str.w	r4, [r0, #2832]	; 0xb10
  USBx_OUTEP(0U)->DOEPTSIZ |= (USB_OTG_DOEPTSIZ_PKTCNT & (1U << 19));
 8003018:	f8d0 4b10 	ldr.w	r4, [r0, #2832]	; 0xb10
 800301c:	f444 2400 	orr.w	r4, r4, #524288	; 0x80000
 8003020:	f8c0 4b10 	str.w	r4, [r0, #2832]	; 0xb10
  USBx_OUTEP(0U)->DOEPTSIZ |= (3U * 8U);
 8003024:	f8d0 4b10 	ldr.w	r4, [r0, #2832]	; 0xb10
 8003028:	f044 0418 	orr.w	r4, r4, #24
 800302c:	f8c0 4b10 	str.w	r4, [r0, #2832]	; 0xb10
  USBx_OUTEP(0U)->DOEPTSIZ |=  USB_OTG_DOEPTSIZ_STUPCNT;
 8003030:	f8d0 4b10 	ldr.w	r4, [r0, #2832]	; 0xb10
 8003034:	f044 44c0 	orr.w	r4, r4, #1610612736	; 0x60000000
 8003038:	f8c0 4b10 	str.w	r4, [r0, #2832]	; 0xb10
  if (dma == 1U)
 800303c:	2901      	cmp	r1, #1
 800303e:	d003      	beq.n	8003048 <USB_EP0_OutStart+0x48>
}
 8003040:	2000      	movs	r0, #0
 8003042:	f85d 4b04 	ldr.w	r4, [sp], #4
 8003046:	4770      	bx	lr
    USBx_OUTEP(0U)->DOEPDMA = (uint32_t)psetup;
 8003048:	f8c0 2b14 	str.w	r2, [r0, #2836]	; 0xb14
    USBx_OUTEP(0U)->DOEPCTL |= USB_OTG_DOEPCTL_EPENA | USB_OTG_DOEPCTL_USBAEP;
 800304c:	f8d0 3b00 	ldr.w	r3, [r0, #2816]	; 0xb00
 8003050:	f043 2380 	orr.w	r3, r3, #2147516416	; 0x80008000
 8003054:	f8c0 3b00 	str.w	r3, [r0, #2816]	; 0xb00
 8003058:	e7f2      	b.n	8003040 <USB_EP0_OutStart+0x40>
 800305a:	bf00      	nop
 800305c:	4f54300a 	.word	0x4f54300a

08003060 <USBD_CDC_EP0_RxReady>:
  *         Handle EP0 Rx Ready event
  * @param  pdev: device instance
  * @retval status
  */
static uint8_t  USBD_CDC_EP0_RxReady (USBD_HandleTypeDef *pdev)
{
 8003060:	b510      	push	{r4, lr}
  USBD_CDC_HandleTypeDef   *hcdc = (USBD_CDC_HandleTypeDef*) pdev->pClassData;
 8003062:	f8d0 4290 	ldr.w	r4, [r0, #656]	; 0x290

  if((pdev->pUserData != NULL) && (hcdc->CmdOpCode != 0xFFU))
 8003066:	f8d0 3294 	ldr.w	r3, [r0, #660]	; 0x294
 800306a:	b15b      	cbz	r3, 8003084 <USBD_CDC_EP0_RxReady+0x24>
 800306c:	f894 0200 	ldrb.w	r0, [r4, #512]	; 0x200
 8003070:	28ff      	cmp	r0, #255	; 0xff
 8003072:	d007      	beq.n	8003084 <USBD_CDC_EP0_RxReady+0x24>
  {
    ((USBD_CDC_ItfTypeDef *)pdev->pUserData)->Control(hcdc->CmdOpCode,
 8003074:	689b      	ldr	r3, [r3, #8]
 8003076:	f894 2201 	ldrb.w	r2, [r4, #513]	; 0x201
 800307a:	4621      	mov	r1, r4
 800307c:	4798      	blx	r3
                                                      (uint8_t *)(void *)hcdc->data,
                                                      (uint16_t)hcdc->CmdLength);
      hcdc->CmdOpCode = 0xFFU;
 800307e:	23ff      	movs	r3, #255	; 0xff
 8003080:	f884 3200 	strb.w	r3, [r4, #512]	; 0x200

  }
  return USBD_OK;
}
 8003084:	2000      	movs	r0, #0
 8003086:	bd10      	pop	{r4, pc}

08003088 <USBD_CDC_GetFSCfgDesc>:
  * @param  length : pointer data length
  * @retval pointer to descriptor buffer
  */
static uint8_t  *USBD_CDC_GetFSCfgDesc (uint16_t *length)
{
  *length = sizeof (USBD_CDC_CfgFSDesc);
 8003088:	2343      	movs	r3, #67	; 0x43
 800308a:	8003      	strh	r3, [r0, #0]
  return USBD_CDC_CfgFSDesc;
}
 800308c:	4800      	ldr	r0, [pc, #0]	; (8003090 <USBD_CDC_GetFSCfgDesc+0x8>)
 800308e:	4770      	bx	lr
 8003090:	20000008 	.word	0x20000008

08003094 <USBD_CDC_GetHSCfgDesc>:
  * @param  length : pointer data length
  * @retval pointer to descriptor buffer
  */
static uint8_t  *USBD_CDC_GetHSCfgDesc (uint16_t *length)
{
  *length = sizeof (USBD_CDC_CfgHSDesc);
 8003094:	2343      	movs	r3, #67	; 0x43
 8003096:	8003      	strh	r3, [r0, #0]
  return USBD_CDC_CfgHSDesc;
}
 8003098:	4800      	ldr	r0, [pc, #0]	; (800309c <USBD_CDC_GetHSCfgDesc+0x8>)
 800309a:	4770      	bx	lr
 800309c:	2000004c 	.word	0x2000004c

080030a0 <USBD_CDC_GetOtherSpeedCfgDesc>:
  * @param  length : pointer data length
  * @retval pointer to descriptor buffer
  */
static uint8_t  *USBD_CDC_GetOtherSpeedCfgDesc (uint16_t *length)
{
  *length = sizeof (USBD_CDC_OtherSpeedCfgDesc);
 80030a0:	2343      	movs	r3, #67	; 0x43
 80030a2:	8003      	strh	r3, [r0, #0]
  return USBD_CDC_OtherSpeedCfgDesc;
}
 80030a4:	4800      	ldr	r0, [pc, #0]	; (80030a8 <USBD_CDC_GetOtherSpeedCfgDesc+0x8>)
 80030a6:	4770      	bx	lr
 80030a8:	20000090 	.word	0x20000090

080030ac <USBD_CDC_GetDeviceQualifierDescriptor>:
* @param  length : pointer data length
* @retval pointer to descriptor buffer
*/
uint8_t  *USBD_CDC_GetDeviceQualifierDescriptor (uint16_t *length)
{
  *length = sizeof (USBD_CDC_DeviceQualifierDesc);
 80030ac:	230a      	movs	r3, #10
 80030ae:	8003      	strh	r3, [r0, #0]
  return USBD_CDC_DeviceQualifierDesc;
}
 80030b0:	4800      	ldr	r0, [pc, #0]	; (80030b4 <USBD_CDC_GetDeviceQualifierDescriptor+0x8>)
 80030b2:	4770      	bx	lr
 80030b4:	200000d4 	.word	0x200000d4

080030b8 <USBD_CDC_DataOut>:
{
 80030b8:	b538      	push	{r3, r4, r5, lr}
 80030ba:	4604      	mov	r4, r0
  USBD_CDC_HandleTypeDef   *hcdc = (USBD_CDC_HandleTypeDef*) pdev->pClassData;
 80030bc:	f8d0 5290 	ldr.w	r5, [r0, #656]	; 0x290
  hcdc->RxLength = USBD_LL_GetRxDataSize (pdev, epnum);
 80030c0:	f001 fa19 	bl	80044f6 <USBD_LL_GetRxDataSize>
 80030c4:	f8c5 020c 	str.w	r0, [r5, #524]	; 0x20c
  if(pdev->pClassData != NULL)
 80030c8:	f8d4 3290 	ldr.w	r3, [r4, #656]	; 0x290
 80030cc:	b14b      	cbz	r3, 80030e2 <USBD_CDC_DataOut+0x2a>
    ((USBD_CDC_ItfTypeDef *)pdev->pUserData)->Receive(hcdc->RxBuffer, &hcdc->RxLength);
 80030ce:	f8d4 3294 	ldr.w	r3, [r4, #660]	; 0x294
 80030d2:	68db      	ldr	r3, [r3, #12]
 80030d4:	f505 7103 	add.w	r1, r5, #524	; 0x20c
 80030d8:	f8d5 0204 	ldr.w	r0, [r5, #516]	; 0x204
 80030dc:	4798      	blx	r3
    return USBD_OK;
 80030de:	2000      	movs	r0, #0
}
 80030e0:	bd38      	pop	{r3, r4, r5, pc}
    return USBD_FAIL;
 80030e2:	2002      	movs	r0, #2
 80030e4:	e7fc      	b.n	80030e0 <USBD_CDC_DataOut+0x28>

080030e6 <USBD_CDC_DataIn>:
{
 80030e6:	b570      	push	{r4, r5, r6, lr}
  USBD_CDC_HandleTypeDef *hcdc = (USBD_CDC_HandleTypeDef*)pdev->pClassData;
 80030e8:	f8d0 2290 	ldr.w	r2, [r0, #656]	; 0x290
  PCD_HandleTypeDef *hpcd = pdev->pData;
 80030ec:	f8d0 5298 	ldr.w	r5, [r0, #664]	; 0x298
  if(pdev->pClassData != NULL)
 80030f0:	b1fa      	cbz	r2, 8003132 <USBD_CDC_DataIn+0x4c>
    if((pdev->ep_in[epnum].total_length > 0U) && ((pdev->ep_in[epnum].total_length % hpcd->IN_ep[epnum].maxpacket) == 0U))
 80030f2:	eb01 0481 	add.w	r4, r1, r1, lsl #2
 80030f6:	00a3      	lsls	r3, r4, #2
 80030f8:	4403      	add	r3, r0
 80030fa:	69db      	ldr	r3, [r3, #28]
 80030fc:	b14b      	cbz	r3, 8003112 <USBD_CDC_DataIn+0x2c>
 80030fe:	ebc1 06c1 	rsb	r6, r1, r1, lsl #3
 8003102:	00b4      	lsls	r4, r6, #2
 8003104:	4425      	add	r5, r4
 8003106:	6c6d      	ldr	r5, [r5, #68]	; 0x44
 8003108:	fbb3 f4f5 	udiv	r4, r3, r5
 800310c:	fb05 3314 	mls	r3, r5, r4, r3
 8003110:	b11b      	cbz	r3, 800311a <USBD_CDC_DataIn+0x34>
      hcdc->TxState = 0U;
 8003112:	2000      	movs	r0, #0
 8003114:	f8c2 0214 	str.w	r0, [r2, #532]	; 0x214
}
 8003118:	bd70      	pop	{r4, r5, r6, pc}
      pdev->ep_in[epnum].total_length = 0U;
 800311a:	eb01 0281 	add.w	r2, r1, r1, lsl #2
 800311e:	0093      	lsls	r3, r2, #2
 8003120:	4403      	add	r3, r0
 8003122:	2400      	movs	r4, #0
 8003124:	61dc      	str	r4, [r3, #28]
      USBD_LL_Transmit (pdev, epnum, NULL, 0U);
 8003126:	4623      	mov	r3, r4
 8003128:	4622      	mov	r2, r4
 800312a:	f001 fa59 	bl	80045e0 <USBD_LL_Transmit>
    return USBD_OK;
 800312e:	4620      	mov	r0, r4
      USBD_LL_Transmit (pdev, epnum, NULL, 0U);
 8003130:	e7f2      	b.n	8003118 <USBD_CDC_DataIn+0x32>
    return USBD_FAIL;
 8003132:	2002      	movs	r0, #2
 8003134:	e7f0      	b.n	8003118 <USBD_CDC_DataIn+0x32>

08003136 <USBD_CDC_Setup>:
{
 8003136:	b570      	push	{r4, r5, r6, lr}
 8003138:	b082      	sub	sp, #8
 800313a:	4605      	mov	r5, r0
 800313c:	460c      	mov	r4, r1
  USBD_CDC_HandleTypeDef   *hcdc = (USBD_CDC_HandleTypeDef*) pdev->pClassData;
 800313e:	f8d0 6290 	ldr.w	r6, [r0, #656]	; 0x290
  uint8_t ifalt = 0U;
 8003142:	2300      	movs	r3, #0
 8003144:	f88d 3007 	strb.w	r3, [sp, #7]
  uint16_t status_info = 0U;
 8003148:	f8ad 3004 	strh.w	r3, [sp, #4]
  switch (req->bmRequest & USB_REQ_TYPE_MASK)
 800314c:	780b      	ldrb	r3, [r1, #0]
 800314e:	f013 0260 	ands.w	r2, r3, #96	; 0x60
 8003152:	d027      	beq.n	80031a4 <USBD_CDC_Setup+0x6e>
 8003154:	2a20      	cmp	r2, #32
 8003156:	d156      	bne.n	8003206 <USBD_CDC_Setup+0xd0>
    if (req->wLength)
 8003158:	88ca      	ldrh	r2, [r1, #6]
 800315a:	b93a      	cbnz	r2, 800316c <USBD_CDC_Setup+0x36>
      ((USBD_CDC_ItfTypeDef *)pdev->pUserData)->Control(req->bRequest,
 800315c:	f8d0 3294 	ldr.w	r3, [r0, #660]	; 0x294
 8003160:	689b      	ldr	r3, [r3, #8]
 8003162:	2200      	movs	r2, #0
 8003164:	7848      	ldrb	r0, [r1, #1]
 8003166:	4798      	blx	r3
  uint8_t ret = USBD_OK;
 8003168:	2000      	movs	r0, #0
 800316a:	e04f      	b.n	800320c <USBD_CDC_Setup+0xd6>
      if (req->bmRequest & 0x80U)
 800316c:	f013 0f80 	tst.w	r3, #128	; 0x80
 8003170:	d00c      	beq.n	800318c <USBD_CDC_Setup+0x56>
        ((USBD_CDC_ItfTypeDef *)pdev->pUserData)->Control(req->bRequest,
 8003172:	f8d0 3294 	ldr.w	r3, [r0, #660]	; 0x294
 8003176:	689b      	ldr	r3, [r3, #8]
 8003178:	4631      	mov	r1, r6
 800317a:	7860      	ldrb	r0, [r4, #1]
 800317c:	4798      	blx	r3
          USBD_CtlSendData (pdev, (uint8_t *)(void *)hcdc->data, req->wLength);
 800317e:	88e2      	ldrh	r2, [r4, #6]
 8003180:	4631      	mov	r1, r6
 8003182:	4628      	mov	r0, r5
 8003184:	f000 fdbd 	bl	8003d02 <USBD_CtlSendData>
  uint8_t ret = USBD_OK;
 8003188:	2000      	movs	r0, #0
 800318a:	e03f      	b.n	800320c <USBD_CDC_Setup+0xd6>
        hcdc->CmdOpCode = req->bRequest;
 800318c:	784b      	ldrb	r3, [r1, #1]
 800318e:	f886 3200 	strb.w	r3, [r6, #512]	; 0x200
        hcdc->CmdLength = (uint8_t)req->wLength;
 8003192:	798b      	ldrb	r3, [r1, #6]
 8003194:	f886 3201 	strb.w	r3, [r6, #513]	; 0x201
        USBD_CtlPrepareRx (pdev, (uint8_t *)(void *)hcdc->data, req->wLength);
 8003198:	88ca      	ldrh	r2, [r1, #6]
 800319a:	4631      	mov	r1, r6
 800319c:	f000 fdc6 	bl	8003d2c <USBD_CtlPrepareRx>
  uint8_t ret = USBD_OK;
 80031a0:	2000      	movs	r0, #0
 80031a2:	e033      	b.n	800320c <USBD_CDC_Setup+0xd6>
    switch (req->bRequest)
 80031a4:	784b      	ldrb	r3, [r1, #1]
 80031a6:	2b0a      	cmp	r3, #10
 80031a8:	d014      	beq.n	80031d4 <USBD_CDC_Setup+0x9e>
 80031aa:	2b0b      	cmp	r3, #11
 80031ac:	d021      	beq.n	80031f2 <USBD_CDC_Setup+0xbc>
 80031ae:	b11b      	cbz	r3, 80031b8 <USBD_CDC_Setup+0x82>
      USBD_CtlError (pdev, req);
 80031b0:	f000 fa85 	bl	80036be <USBD_CtlError>
      ret = USBD_FAIL;
 80031b4:	2002      	movs	r0, #2
      break;
 80031b6:	e029      	b.n	800320c <USBD_CDC_Setup+0xd6>
      if (pdev->dev_state == USBD_STATE_CONFIGURED)
 80031b8:	f890 3274 	ldrb.w	r3, [r0, #628]	; 0x274
 80031bc:	2b03      	cmp	r3, #3
 80031be:	d105      	bne.n	80031cc <USBD_CDC_Setup+0x96>
        USBD_CtlSendData (pdev, (uint8_t *)(void *)&status_info, 2U);
 80031c0:	2202      	movs	r2, #2
 80031c2:	a901      	add	r1, sp, #4
 80031c4:	f000 fd9d 	bl	8003d02 <USBD_CtlSendData>
  uint8_t ret = USBD_OK;
 80031c8:	2000      	movs	r0, #0
 80031ca:	e01f      	b.n	800320c <USBD_CDC_Setup+0xd6>
        USBD_CtlError (pdev, req);
 80031cc:	f000 fa77 	bl	80036be <USBD_CtlError>
			  ret = USBD_FAIL;
 80031d0:	2002      	movs	r0, #2
 80031d2:	e01b      	b.n	800320c <USBD_CDC_Setup+0xd6>
      if (pdev->dev_state == USBD_STATE_CONFIGURED)
 80031d4:	f890 3274 	ldrb.w	r3, [r0, #628]	; 0x274
 80031d8:	2b03      	cmp	r3, #3
 80031da:	d106      	bne.n	80031ea <USBD_CDC_Setup+0xb4>
        USBD_CtlSendData (pdev, &ifalt, 1U);
 80031dc:	2201      	movs	r2, #1
 80031de:	f10d 0107 	add.w	r1, sp, #7
 80031e2:	f000 fd8e 	bl	8003d02 <USBD_CtlSendData>
  uint8_t ret = USBD_OK;
 80031e6:	2000      	movs	r0, #0
 80031e8:	e010      	b.n	800320c <USBD_CDC_Setup+0xd6>
        USBD_CtlError (pdev, req);
 80031ea:	f000 fa68 	bl	80036be <USBD_CtlError>
			  ret = USBD_FAIL;
 80031ee:	2002      	movs	r0, #2
 80031f0:	e00c      	b.n	800320c <USBD_CDC_Setup+0xd6>
      if (pdev->dev_state != USBD_STATE_CONFIGURED)
 80031f2:	f890 3274 	ldrb.w	r3, [r0, #628]	; 0x274
 80031f6:	2b03      	cmp	r3, #3
 80031f8:	d101      	bne.n	80031fe <USBD_CDC_Setup+0xc8>
  uint8_t ret = USBD_OK;
 80031fa:	2000      	movs	r0, #0
 80031fc:	e006      	b.n	800320c <USBD_CDC_Setup+0xd6>
        USBD_CtlError (pdev, req);
 80031fe:	f000 fa5e 	bl	80036be <USBD_CtlError>
			  ret = USBD_FAIL;
 8003202:	2002      	movs	r0, #2
 8003204:	e002      	b.n	800320c <USBD_CDC_Setup+0xd6>
    USBD_CtlError (pdev, req);
 8003206:	f000 fa5a 	bl	80036be <USBD_CtlError>
    ret = USBD_FAIL;
 800320a:	2002      	movs	r0, #2
}
 800320c:	b002      	add	sp, #8
 800320e:	bd70      	pop	{r4, r5, r6, pc}

08003210 <USBD_CDC_DeInit>:
{
 8003210:	b538      	push	{r3, r4, r5, lr}
 8003212:	4604      	mov	r4, r0
  USBD_LL_CloseEP(pdev, CDC_IN_EP);
 8003214:	2181      	movs	r1, #129	; 0x81
 8003216:	f001 f9c3 	bl	80045a0 <USBD_LL_CloseEP>
  pdev->ep_in[CDC_IN_EP & 0xFU].is_used = 0U;
 800321a:	2500      	movs	r5, #0
 800321c:	62e5      	str	r5, [r4, #44]	; 0x2c
  USBD_LL_CloseEP(pdev, CDC_OUT_EP);
 800321e:	2101      	movs	r1, #1
 8003220:	4620      	mov	r0, r4
 8003222:	f001 f9bd 	bl	80045a0 <USBD_LL_CloseEP>
  pdev->ep_out[CDC_OUT_EP & 0xFU].is_used = 0U;
 8003226:	f8c4 5158 	str.w	r5, [r4, #344]	; 0x158
  USBD_LL_CloseEP(pdev, CDC_CMD_EP);
 800322a:	2182      	movs	r1, #130	; 0x82
 800322c:	4620      	mov	r0, r4
 800322e:	f001 f9b7 	bl	80045a0 <USBD_LL_CloseEP>
  pdev->ep_in[CDC_CMD_EP & 0xFU].is_used = 0U;
 8003232:	6425      	str	r5, [r4, #64]	; 0x40
  if(pdev->pClassData != NULL)
 8003234:	f8d4 3290 	ldr.w	r3, [r4, #656]	; 0x290
 8003238:	b14b      	cbz	r3, 800324e <USBD_CDC_DeInit+0x3e>
    ((USBD_CDC_ItfTypeDef *)pdev->pUserData)->DeInit();
 800323a:	f8d4 3294 	ldr.w	r3, [r4, #660]	; 0x294
 800323e:	685b      	ldr	r3, [r3, #4]
 8003240:	4798      	blx	r3
    USBD_free(pdev->pClassData);
 8003242:	f8d4 0290 	ldr.w	r0, [r4, #656]	; 0x290
 8003246:	f001 facf 	bl	80047e8 <free>
    pdev->pClassData = NULL;
 800324a:	f8c4 5290 	str.w	r5, [r4, #656]	; 0x290
}
 800324e:	2000      	movs	r0, #0
 8003250:	bd38      	pop	{r3, r4, r5, pc}

08003252 <USBD_CDC_Init>:
{
 8003252:	b538      	push	{r3, r4, r5, lr}
 8003254:	4604      	mov	r4, r0
  if(pdev->dev_speed == USBD_SPEED_HIGH)
 8003256:	7c03      	ldrb	r3, [r0, #16]
 8003258:	bba3      	cbnz	r3, 80032c4 <USBD_CDC_Init+0x72>
    USBD_LL_OpenEP(pdev, CDC_IN_EP, USBD_EP_TYPE_BULK,
 800325a:	f44f 7300 	mov.w	r3, #512	; 0x200
 800325e:	2202      	movs	r2, #2
 8003260:	2181      	movs	r1, #129	; 0x81
 8003262:	f001 f992 	bl	800458a <USBD_LL_OpenEP>
    pdev->ep_in[CDC_IN_EP & 0xFU].is_used = 1U;
 8003266:	2501      	movs	r5, #1
 8003268:	62e5      	str	r5, [r4, #44]	; 0x2c
    USBD_LL_OpenEP(pdev, CDC_OUT_EP, USBD_EP_TYPE_BULK,
 800326a:	f44f 7300 	mov.w	r3, #512	; 0x200
 800326e:	2202      	movs	r2, #2
 8003270:	4629      	mov	r1, r5
 8003272:	4620      	mov	r0, r4
 8003274:	f001 f989 	bl	800458a <USBD_LL_OpenEP>
    pdev->ep_out[CDC_OUT_EP & 0xFU].is_used = 1U;
 8003278:	f8c4 5158 	str.w	r5, [r4, #344]	; 0x158
  USBD_LL_OpenEP(pdev, CDC_CMD_EP, USBD_EP_TYPE_INTR, CDC_CMD_PACKET_SIZE);
 800327c:	2308      	movs	r3, #8
 800327e:	2203      	movs	r2, #3
 8003280:	2182      	movs	r1, #130	; 0x82
 8003282:	4620      	mov	r0, r4
 8003284:	f001 f981 	bl	800458a <USBD_LL_OpenEP>
  pdev->ep_in[CDC_CMD_EP & 0xFU].is_used = 1U;
 8003288:	2301      	movs	r3, #1
 800328a:	6423      	str	r3, [r4, #64]	; 0x40
  pdev->pClassData = USBD_malloc(sizeof (USBD_CDC_HandleTypeDef));
 800328c:	f44f 7007 	mov.w	r0, #540	; 0x21c
 8003290:	f001 faa2 	bl	80047d8 <malloc>
 8003294:	4605      	mov	r5, r0
 8003296:	f8c4 0290 	str.w	r0, [r4, #656]	; 0x290
  if(pdev->pClassData == NULL)
 800329a:	b368      	cbz	r0, 80032f8 <USBD_CDC_Init+0xa6>
    ((USBD_CDC_ItfTypeDef *)pdev->pUserData)->Init();
 800329c:	f8d4 3294 	ldr.w	r3, [r4, #660]	; 0x294
 80032a0:	681b      	ldr	r3, [r3, #0]
 80032a2:	4798      	blx	r3
    hcdc->TxState = 0U;
 80032a4:	2300      	movs	r3, #0
 80032a6:	f8c5 3214 	str.w	r3, [r5, #532]	; 0x214
    hcdc->RxState = 0U;
 80032aa:	f8c5 3218 	str.w	r3, [r5, #536]	; 0x218
    if(pdev->dev_speed == USBD_SPEED_HIGH)
 80032ae:	7c23      	ldrb	r3, [r4, #16]
 80032b0:	b1c3      	cbz	r3, 80032e4 <USBD_CDC_Init+0x92>
      USBD_LL_PrepareReceive(pdev, CDC_OUT_EP, hcdc->RxBuffer,
 80032b2:	2340      	movs	r3, #64	; 0x40
 80032b4:	f8d5 2204 	ldr.w	r2, [r5, #516]	; 0x204
 80032b8:	2101      	movs	r1, #1
 80032ba:	4620      	mov	r0, r4
 80032bc:	f001 f998 	bl	80045f0 <USBD_LL_PrepareReceive>
  uint8_t ret = 0U;
 80032c0:	2000      	movs	r0, #0
}
 80032c2:	bd38      	pop	{r3, r4, r5, pc}
    USBD_LL_OpenEP(pdev, CDC_IN_EP, USBD_EP_TYPE_BULK,
 80032c4:	2340      	movs	r3, #64	; 0x40
 80032c6:	2202      	movs	r2, #2
 80032c8:	2181      	movs	r1, #129	; 0x81
 80032ca:	f001 f95e 	bl	800458a <USBD_LL_OpenEP>
    pdev->ep_in[CDC_IN_EP & 0xFU].is_used = 1U;
 80032ce:	2501      	movs	r5, #1
 80032d0:	62e5      	str	r5, [r4, #44]	; 0x2c
    USBD_LL_OpenEP(pdev, CDC_OUT_EP, USBD_EP_TYPE_BULK,
 80032d2:	2340      	movs	r3, #64	; 0x40
 80032d4:	2202      	movs	r2, #2
 80032d6:	4629      	mov	r1, r5
 80032d8:	4620      	mov	r0, r4
 80032da:	f001 f956 	bl	800458a <USBD_LL_OpenEP>
    pdev->ep_out[CDC_OUT_EP & 0xFU].is_used = 1U;
 80032de:	f8c4 5158 	str.w	r5, [r4, #344]	; 0x158
 80032e2:	e7cb      	b.n	800327c <USBD_CDC_Init+0x2a>
      USBD_LL_PrepareReceive(pdev, CDC_OUT_EP, hcdc->RxBuffer,
 80032e4:	f44f 7300 	mov.w	r3, #512	; 0x200
 80032e8:	f8d5 2204 	ldr.w	r2, [r5, #516]	; 0x204
 80032ec:	2101      	movs	r1, #1
 80032ee:	4620      	mov	r0, r4
 80032f0:	f001 f97e 	bl	80045f0 <USBD_LL_PrepareReceive>
  uint8_t ret = 0U;
 80032f4:	2000      	movs	r0, #0
 80032f6:	e7e4      	b.n	80032c2 <USBD_CDC_Init+0x70>
    ret = 1U;
 80032f8:	2001      	movs	r0, #1
 80032fa:	e7e2      	b.n	80032c2 <USBD_CDC_Init+0x70>

080032fc <USBD_CDC_RegisterInterface>:
uint8_t  USBD_CDC_RegisterInterface  (USBD_HandleTypeDef   *pdev,
                                      USBD_CDC_ItfTypeDef *fops)
{
  uint8_t  ret = USBD_FAIL;

  if(fops != NULL)
 80032fc:	b119      	cbz	r1, 8003306 <USBD_CDC_RegisterInterface+0xa>
  {
    pdev->pUserData= fops;
 80032fe:	f8c0 1294 	str.w	r1, [r0, #660]	; 0x294
    ret = USBD_OK;
 8003302:	2000      	movs	r0, #0
 8003304:	4770      	bx	lr
  uint8_t  ret = USBD_FAIL;
 8003306:	2002      	movs	r0, #2
  }

  return ret;
}
 8003308:	4770      	bx	lr

0800330a <USBD_CDC_SetTxBuffer>:
  */
uint8_t  USBD_CDC_SetTxBuffer  (USBD_HandleTypeDef   *pdev,
                                uint8_t  *pbuff,
                                uint16_t length)
{
  USBD_CDC_HandleTypeDef   *hcdc = (USBD_CDC_HandleTypeDef*) pdev->pClassData;
 800330a:	f8d0 3290 	ldr.w	r3, [r0, #656]	; 0x290

  hcdc->TxBuffer = pbuff;
 800330e:	f8c3 1208 	str.w	r1, [r3, #520]	; 0x208
  hcdc->TxLength = length;
 8003312:	f8c3 2210 	str.w	r2, [r3, #528]	; 0x210

  return USBD_OK;
}
 8003316:	2000      	movs	r0, #0
 8003318:	4770      	bx	lr

0800331a <USBD_CDC_SetRxBuffer>:
  * @retval status
  */
uint8_t  USBD_CDC_SetRxBuffer  (USBD_HandleTypeDef   *pdev,
                                   uint8_t  *pbuff)
{
  USBD_CDC_HandleTypeDef   *hcdc = (USBD_CDC_HandleTypeDef*) pdev->pClassData;
 800331a:	f8d0 3290 	ldr.w	r3, [r0, #656]	; 0x290

  hcdc->RxBuffer = pbuff;
 800331e:	f8c3 1204 	str.w	r1, [r3, #516]	; 0x204

  return USBD_OK;
}
 8003322:	2000      	movs	r0, #0
 8003324:	4770      	bx	lr

08003326 <USBD_CDC_TransmitPacket>:
  * @param  pdev: device instance
  * @retval status
  */
uint8_t  USBD_CDC_TransmitPacket(USBD_HandleTypeDef *pdev)
{
  USBD_CDC_HandleTypeDef   *hcdc = (USBD_CDC_HandleTypeDef*) pdev->pClassData;
 8003326:	f8d0 2290 	ldr.w	r2, [r0, #656]	; 0x290

  if(pdev->pClassData != NULL)
 800332a:	b1a2      	cbz	r2, 8003356 <USBD_CDC_TransmitPacket+0x30>
{
 800332c:	b508      	push	{r3, lr}
  {
    if(hcdc->TxState == 0U)
 800332e:	f8d2 3214 	ldr.w	r3, [r2, #532]	; 0x214
 8003332:	b10b      	cbz	r3, 8003338 <USBD_CDC_TransmitPacket+0x12>

      return USBD_OK;
    }
    else
    {
      return USBD_BUSY;
 8003334:	2001      	movs	r0, #1
  }
  else
  {
    return USBD_FAIL;
  }
}
 8003336:	bd08      	pop	{r3, pc}
      hcdc->TxState = 1U;
 8003338:	2301      	movs	r3, #1
 800333a:	f8c2 3214 	str.w	r3, [r2, #532]	; 0x214
      pdev->ep_in[CDC_IN_EP & 0xFU].total_length = hcdc->TxLength;
 800333e:	f8d2 3210 	ldr.w	r3, [r2, #528]	; 0x210
 8003342:	6303      	str	r3, [r0, #48]	; 0x30
      USBD_LL_Transmit(pdev, CDC_IN_EP, hcdc->TxBuffer,
 8003344:	f8b2 3210 	ldrh.w	r3, [r2, #528]	; 0x210
 8003348:	f8d2 2208 	ldr.w	r2, [r2, #520]	; 0x208
 800334c:	2181      	movs	r1, #129	; 0x81
 800334e:	f001 f947 	bl	80045e0 <USBD_LL_Transmit>
      return USBD_OK;
 8003352:	2000      	movs	r0, #0
 8003354:	e7ef      	b.n	8003336 <USBD_CDC_TransmitPacket+0x10>
    return USBD_FAIL;
 8003356:	2002      	movs	r0, #2
}
 8003358:	4770      	bx	lr

0800335a <USBD_CDC_ReceivePacket>:
  * @param  pdev: device instance
  * @retval status
  */
uint8_t  USBD_CDC_ReceivePacket(USBD_HandleTypeDef *pdev)
{
  USBD_CDC_HandleTypeDef   *hcdc = (USBD_CDC_HandleTypeDef*) pdev->pClassData;
 800335a:	f8d0 2290 	ldr.w	r2, [r0, #656]	; 0x290

  /* Suspend or Resume USB Out process */
  if(pdev->pClassData != NULL)
 800335e:	b19a      	cbz	r2, 8003388 <USBD_CDC_ReceivePacket+0x2e>
{
 8003360:	b508      	push	{r3, lr}
  {
    if(pdev->dev_speed == USBD_SPEED_HIGH  )
 8003362:	7c03      	ldrb	r3, [r0, #16]
 8003364:	b13b      	cbz	r3, 8003376 <USBD_CDC_ReceivePacket+0x1c>
                             CDC_DATA_HS_OUT_PACKET_SIZE);
    }
    else
    {
      /* Prepare Out endpoint to receive next packet */
      USBD_LL_PrepareReceive(pdev,
 8003366:	2340      	movs	r3, #64	; 0x40
 8003368:	f8d2 2204 	ldr.w	r2, [r2, #516]	; 0x204
 800336c:	2101      	movs	r1, #1
 800336e:	f001 f93f 	bl	80045f0 <USBD_LL_PrepareReceive>
                             CDC_OUT_EP,
                             hcdc->RxBuffer,
                             CDC_DATA_FS_OUT_PACKET_SIZE);
    }
    return USBD_OK;
 8003372:	2000      	movs	r0, #0
  }
  else
  {
    return USBD_FAIL;
  }
}
 8003374:	bd08      	pop	{r3, pc}
      USBD_LL_PrepareReceive(pdev,
 8003376:	f44f 7300 	mov.w	r3, #512	; 0x200
 800337a:	f8d2 2204 	ldr.w	r2, [r2, #516]	; 0x204
 800337e:	2101      	movs	r1, #1
 8003380:	f001 f936 	bl	80045f0 <USBD_LL_PrepareReceive>
    return USBD_OK;
 8003384:	2000      	movs	r0, #0
 8003386:	e7f5      	b.n	8003374 <USBD_CDC_ReceivePacket+0x1a>
    return USBD_FAIL;
 8003388:	2002      	movs	r0, #2
}
 800338a:	4770      	bx	lr

0800338c <USBD_Init>:
* @retval None
*/
USBD_StatusTypeDef USBD_Init(USBD_HandleTypeDef *pdev, USBD_DescriptorsTypeDef *pdesc, uint8_t id)
{
  /* Check whether the USB Host handle is valid */
  if(pdev == NULL)
 800338c:	b198      	cbz	r0, 80033b6 <USBD_Init+0x2a>
{
 800338e:	b508      	push	{r3, lr}
 8003390:	4603      	mov	r3, r0
#endif
    return USBD_FAIL;
  }

  /* Unlink previous class*/
  if(pdev->pClass != NULL)
 8003392:	f8d0 028c 	ldr.w	r0, [r0, #652]	; 0x28c
 8003396:	b110      	cbz	r0, 800339e <USBD_Init+0x12>
  {
    pdev->pClass = NULL;
 8003398:	2000      	movs	r0, #0
 800339a:	f8c3 028c 	str.w	r0, [r3, #652]	; 0x28c
  }

  /* Assign USBD Descriptors */
  if(pdesc != NULL)
 800339e:	b109      	cbz	r1, 80033a4 <USBD_Init+0x18>
  {
    pdev->pDesc = pdesc;
 80033a0:	f8c3 1288 	str.w	r1, [r3, #648]	; 0x288
 80033a4:	4618      	mov	r0, r3
  }

  /* Set Device initial State */
  pdev->dev_state  = USBD_STATE_DEFAULT;
 80033a6:	2301      	movs	r3, #1
 80033a8:	f880 3274 	strb.w	r3, [r0, #628]	; 0x274
  pdev->id = id;
 80033ac:	7002      	strb	r2, [r0, #0]
  /* Initialize low level driver */
  USBD_LL_Init(pdev);
 80033ae:	f001 f857 	bl	8004460 <USBD_LL_Init>

  return USBD_OK;
 80033b2:	2000      	movs	r0, #0
}
 80033b4:	bd08      	pop	{r3, pc}
    return USBD_FAIL;
 80033b6:	2002      	movs	r0, #2
}
 80033b8:	4770      	bx	lr

080033ba <USBD_RegisterClass>:
  * @retval USBD Status
  */
USBD_StatusTypeDef  USBD_RegisterClass(USBD_HandleTypeDef *pdev, USBD_ClassTypeDef *pclass)
{
  USBD_StatusTypeDef   status = USBD_OK;
  if(pclass != 0)
 80033ba:	b119      	cbz	r1, 80033c4 <USBD_RegisterClass+0xa>
  {
    /* link the class to the USB Device handle */
    pdev->pClass = pclass;
 80033bc:	f8c0 128c 	str.w	r1, [r0, #652]	; 0x28c
    status = USBD_OK;
 80033c0:	2000      	movs	r0, #0
 80033c2:	4770      	bx	lr
  else
  {
#if (USBD_DEBUG_LEVEL > 1U)
    USBD_ErrLog("Invalid Class handle");
#endif
    status = USBD_FAIL;
 80033c4:	2002      	movs	r0, #2
  }

  return status;
}
 80033c6:	4770      	bx	lr

080033c8 <USBD_Start>:
  *         Start the USB Device Core.
  * @param  pdev: Device Handle
  * @retval USBD Status
  */
USBD_StatusTypeDef  USBD_Start  (USBD_HandleTypeDef *pdev)
{
 80033c8:	b508      	push	{r3, lr}

  /* Start the low level driver  */
  USBD_LL_Start(pdev);
 80033ca:	f001 f8d6 	bl	800457a <USBD_LL_Start>

  return USBD_OK;
}
 80033ce:	2000      	movs	r0, #0
 80033d0:	bd08      	pop	{r3, pc}

080033d2 <USBD_SetClassConfig>:
* @param  cfgidx: configuration index
* @retval status
*/

USBD_StatusTypeDef USBD_SetClassConfig(USBD_HandleTypeDef  *pdev, uint8_t cfgidx)
{
 80033d2:	b508      	push	{r3, lr}
  USBD_StatusTypeDef   ret = USBD_FAIL;

  if(pdev->pClass != NULL)
 80033d4:	f8d0 328c 	ldr.w	r3, [r0, #652]	; 0x28c
 80033d8:	b133      	cbz	r3, 80033e8 <USBD_SetClassConfig+0x16>
  {
    /* Set configuration  and Start the Class*/
    if(pdev->pClass->Init(pdev, cfgidx) == 0U)
 80033da:	681b      	ldr	r3, [r3, #0]
 80033dc:	4798      	blx	r3
 80033de:	b908      	cbnz	r0, 80033e4 <USBD_SetClassConfig+0x12>
    {
      ret = USBD_OK;
 80033e0:	2000      	movs	r0, #0
    }
  }

  return ret;
}
 80033e2:	bd08      	pop	{r3, pc}
  USBD_StatusTypeDef   ret = USBD_FAIL;
 80033e4:	2002      	movs	r0, #2
 80033e6:	e7fc      	b.n	80033e2 <USBD_SetClassConfig+0x10>
 80033e8:	2002      	movs	r0, #2
 80033ea:	e7fa      	b.n	80033e2 <USBD_SetClassConfig+0x10>

080033ec <USBD_ClrClassConfig>:
* @param  pdev: device instance
* @param  cfgidx: configuration index
* @retval status: USBD_StatusTypeDef
*/
USBD_StatusTypeDef USBD_ClrClassConfig(USBD_HandleTypeDef  *pdev, uint8_t cfgidx)
{
 80033ec:	b508      	push	{r3, lr}
  /* Clear configuration  and De-initialize the Class process*/
  pdev->pClass->DeInit(pdev, cfgidx);
 80033ee:	f8d0 328c 	ldr.w	r3, [r0, #652]	; 0x28c
 80033f2:	685b      	ldr	r3, [r3, #4]
 80033f4:	4798      	blx	r3
  return USBD_OK;
}
 80033f6:	2000      	movs	r0, #0
 80033f8:	bd08      	pop	{r3, pc}

080033fa <USBD_LL_SetupStage>:
*         Handle the setup stage
* @param  pdev: device instance
* @retval status
*/
USBD_StatusTypeDef USBD_LL_SetupStage(USBD_HandleTypeDef *pdev, uint8_t *psetup)
{
 80033fa:	b538      	push	{r3, r4, r5, lr}
 80033fc:	4604      	mov	r4, r0
  USBD_ParseSetupRequest(&pdev->request, psetup);
 80033fe:	f500 7520 	add.w	r5, r0, #640	; 0x280
 8003402:	4628      	mov	r0, r5
 8003404:	f000 f947 	bl	8003696 <USBD_ParseSetupRequest>

  pdev->ep0_state = USBD_EP0_SETUP;
 8003408:	2301      	movs	r3, #1
 800340a:	f8c4 326c 	str.w	r3, [r4, #620]	; 0x26c

  pdev->ep0_data_len = pdev->request.wLength;
 800340e:	f8b4 3286 	ldrh.w	r3, [r4, #646]	; 0x286
 8003412:	f8c4 3270 	str.w	r3, [r4, #624]	; 0x270

  switch (pdev->request.bmRequest & 0x1FU)
 8003416:	f894 1280 	ldrb.w	r1, [r4, #640]	; 0x280
 800341a:	f001 031f 	and.w	r3, r1, #31
 800341e:	2b01      	cmp	r3, #1
 8003420:	d00e      	beq.n	8003440 <USBD_LL_SetupStage+0x46>
 8003422:	b13b      	cbz	r3, 8003434 <USBD_LL_SetupStage+0x3a>
 8003424:	2b02      	cmp	r3, #2
 8003426:	d010      	beq.n	800344a <USBD_LL_SetupStage+0x50>
  case USB_REQ_RECIPIENT_ENDPOINT:
    USBD_StdEPReq(pdev, &pdev->request);
    break;

  default:
    USBD_LL_StallEP(pdev, (pdev->request.bmRequest & 0x80U));
 8003428:	f001 0180 	and.w	r1, r1, #128	; 0x80
 800342c:	4620      	mov	r0, r4
 800342e:	f001 f8bf 	bl	80045b0 <USBD_LL_StallEP>
    break;
 8003432:	e003      	b.n	800343c <USBD_LL_SetupStage+0x42>
    USBD_StdDevReq (pdev, &pdev->request);
 8003434:	4629      	mov	r1, r5
 8003436:	4620      	mov	r0, r4
 8003438:	f000 fac5 	bl	80039c6 <USBD_StdDevReq>
  }

  return USBD_OK;
}
 800343c:	2000      	movs	r0, #0
 800343e:	bd38      	pop	{r3, r4, r5, pc}
    USBD_StdItfReq(pdev, &pdev->request);
 8003440:	4629      	mov	r1, r5
 8003442:	4620      	mov	r0, r4
 8003444:	f000 faf3 	bl	8003a2e <USBD_StdItfReq>
    break;
 8003448:	e7f8      	b.n	800343c <USBD_LL_SetupStage+0x42>
    USBD_StdEPReq(pdev, &pdev->request);
 800344a:	4629      	mov	r1, r5
 800344c:	4620      	mov	r0, r4
 800344e:	f000 fb1e 	bl	8003a8e <USBD_StdEPReq>
    break;
 8003452:	e7f3      	b.n	800343c <USBD_LL_SetupStage+0x42>

08003454 <USBD_LL_DataOutStage>:
* @param  epnum: endpoint index
* @retval status
*/
USBD_StatusTypeDef USBD_LL_DataOutStage(USBD_HandleTypeDef *pdev,
                                        uint8_t epnum, uint8_t *pdata)
{
 8003454:	b538      	push	{r3, r4, r5, lr}
 8003456:	4604      	mov	r4, r0
  USBD_EndpointTypeDef    *pep;

  if(epnum == 0U)
 8003458:	bba1      	cbnz	r1, 80034c4 <USBD_LL_DataOutStage+0x70>
 800345a:	4610      	mov	r0, r2
  {
    pep = &pdev->ep_out[0];

    if ( pdev->ep0_state == USBD_EP0_DATA_OUT)
 800345c:	f8d4 326c 	ldr.w	r3, [r4, #620]	; 0x26c
 8003460:	2b03      	cmp	r3, #3
 8003462:	d003      	beq.n	800346c <USBD_LL_DataOutStage+0x18>
        USBD_CtlSendStatus(pdev);
      }
    }
    else
    {
      if (pdev->ep0_state == USBD_EP0_STATUS_OUT)
 8003464:	2b05      	cmp	r3, #5
 8003466:	d024      	beq.n	80034b2 <USBD_LL_DataOutStage+0x5e>
  {
    /* should never be in this condition */
    return USBD_FAIL;
  }

  return USBD_OK;
 8003468:	2000      	movs	r0, #0
 800346a:	e037      	b.n	80034dc <USBD_LL_DataOutStage+0x88>
      if(pep->rem_length > pep->maxpacket)
 800346c:	f8d4 314c 	ldr.w	r3, [r4, #332]	; 0x14c
 8003470:	f8d4 2150 	ldr.w	r2, [r4, #336]	; 0x150
 8003474:	4293      	cmp	r3, r2
 8003476:	d90d      	bls.n	8003494 <USBD_LL_DataOutStage+0x40>
        pep->rem_length -=  pep->maxpacket;
 8003478:	1a9b      	subs	r3, r3, r2
 800347a:	f8c4 314c 	str.w	r3, [r4, #332]	; 0x14c
        USBD_CtlContinueRx (pdev,
 800347e:	429a      	cmp	r2, r3
 8003480:	d906      	bls.n	8003490 <USBD_LL_DataOutStage+0x3c>
 8003482:	b29a      	uxth	r2, r3
 8003484:	4601      	mov	r1, r0
 8003486:	4620      	mov	r0, r4
 8003488:	f000 fc5f 	bl	8003d4a <USBD_CtlContinueRx>
  return USBD_OK;
 800348c:	2000      	movs	r0, #0
 800348e:	e025      	b.n	80034dc <USBD_LL_DataOutStage+0x88>
        USBD_CtlContinueRx (pdev,
 8003490:	b292      	uxth	r2, r2
 8003492:	e7f7      	b.n	8003484 <USBD_LL_DataOutStage+0x30>
        if((pdev->pClass->EP0_RxReady != NULL)&&
 8003494:	f8d4 328c 	ldr.w	r3, [r4, #652]	; 0x28c
 8003498:	691b      	ldr	r3, [r3, #16]
 800349a:	b12b      	cbz	r3, 80034a8 <USBD_LL_DataOutStage+0x54>
           (pdev->dev_state == USBD_STATE_CONFIGURED))
 800349c:	f894 2274 	ldrb.w	r2, [r4, #628]	; 0x274
        if((pdev->pClass->EP0_RxReady != NULL)&&
 80034a0:	2a03      	cmp	r2, #3
 80034a2:	d101      	bne.n	80034a8 <USBD_LL_DataOutStage+0x54>
          pdev->pClass->EP0_RxReady(pdev);
 80034a4:	4620      	mov	r0, r4
 80034a6:	4798      	blx	r3
        USBD_CtlSendStatus(pdev);
 80034a8:	4620      	mov	r0, r4
 80034aa:	f000 fc56 	bl	8003d5a <USBD_CtlSendStatus>
  return USBD_OK;
 80034ae:	2000      	movs	r0, #0
 80034b0:	e014      	b.n	80034dc <USBD_LL_DataOutStage+0x88>
        pdev->ep0_state = USBD_EP0_IDLE;
 80034b2:	2500      	movs	r5, #0
 80034b4:	f8c4 526c 	str.w	r5, [r4, #620]	; 0x26c
        USBD_LL_StallEP(pdev, 0U);
 80034b8:	4629      	mov	r1, r5
 80034ba:	4620      	mov	r0, r4
 80034bc:	f001 f878 	bl	80045b0 <USBD_LL_StallEP>
  return USBD_OK;
 80034c0:	4628      	mov	r0, r5
 80034c2:	e00b      	b.n	80034dc <USBD_LL_DataOutStage+0x88>
 80034c4:	460a      	mov	r2, r1
  else if((pdev->pClass->DataOut != NULL) &&
 80034c6:	f8d0 328c 	ldr.w	r3, [r0, #652]	; 0x28c
 80034ca:	699b      	ldr	r3, [r3, #24]
 80034cc:	b13b      	cbz	r3, 80034de <USBD_LL_DataOutStage+0x8a>
          (pdev->dev_state == USBD_STATE_CONFIGURED))
 80034ce:	f890 1274 	ldrb.w	r1, [r0, #628]	; 0x274
  else if((pdev->pClass->DataOut != NULL) &&
 80034d2:	2903      	cmp	r1, #3
 80034d4:	d105      	bne.n	80034e2 <USBD_LL_DataOutStage+0x8e>
    pdev->pClass->DataOut(pdev, epnum);
 80034d6:	4611      	mov	r1, r2
 80034d8:	4798      	blx	r3
  return USBD_OK;
 80034da:	2000      	movs	r0, #0
}
 80034dc:	bd38      	pop	{r3, r4, r5, pc}
    return USBD_FAIL;
 80034de:	2002      	movs	r0, #2
 80034e0:	e7fc      	b.n	80034dc <USBD_LL_DataOutStage+0x88>
 80034e2:	2002      	movs	r0, #2
 80034e4:	e7fa      	b.n	80034dc <USBD_LL_DataOutStage+0x88>

080034e6 <USBD_LL_DataInStage>:
* @param  epnum: endpoint index
* @retval status
*/
USBD_StatusTypeDef USBD_LL_DataInStage(USBD_HandleTypeDef *pdev, uint8_t epnum,
                                       uint8_t *pdata)
{
 80034e6:	b510      	push	{r4, lr}
 80034e8:	4604      	mov	r4, r0
  USBD_EndpointTypeDef *pep;

  if(epnum == 0U)
 80034ea:	2900      	cmp	r1, #0
 80034ec:	d155      	bne.n	800359a <USBD_LL_DataInStage+0xb4>
 80034ee:	4610      	mov	r0, r2
  {
    pep = &pdev->ep_in[0];

    if ( pdev->ep0_state == USBD_EP0_DATA_IN)
 80034f0:	f8d4 326c 	ldr.w	r3, [r4, #620]	; 0x26c
 80034f4:	2b02      	cmp	r3, #2
 80034f6:	d009      	beq.n	800350c <USBD_LL_DataInStage+0x26>
        }
      }
    }
    else
    {
      if ((pdev->ep0_state == USBD_EP0_STATUS_IN) ||
 80034f8:	2b00      	cmp	r3, #0
 80034fa:	bf18      	it	ne
 80034fc:	2b04      	cmpne	r3, #4
 80034fe:	d043      	beq.n	8003588 <USBD_LL_DataInStage+0xa2>
      {
        USBD_LL_StallEP(pdev, 0x80U);
      }
    }

    if (pdev->dev_test_mode == 1U)
 8003500:	f894 3278 	ldrb.w	r3, [r4, #632]	; 0x278
 8003504:	2b01      	cmp	r3, #1
 8003506:	d044      	beq.n	8003592 <USBD_LL_DataInStage+0xac>
  {
    /* should never be in this condition */
    return USBD_FAIL;
  }

  return USBD_OK;
 8003508:	2000      	movs	r0, #0
 800350a:	e052      	b.n	80035b2 <USBD_LL_DataInStage+0xcc>
      if(pep->rem_length > pep->maxpacket)
 800350c:	6a23      	ldr	r3, [r4, #32]
 800350e:	6a62      	ldr	r2, [r4, #36]	; 0x24
 8003510:	4293      	cmp	r3, r2
 8003512:	d81d      	bhi.n	8003550 <USBD_LL_DataInStage+0x6a>
        if((pep->total_length % pep->maxpacket == 0U) &&
 8003514:	69e1      	ldr	r1, [r4, #28]
 8003516:	fbb1 f3f2 	udiv	r3, r1, r2
 800351a:	fb02 1313 	mls	r3, r2, r3, r1
 800351e:	b92b      	cbnz	r3, 800352c <USBD_LL_DataInStage+0x46>
 8003520:	428a      	cmp	r2, r1
 8003522:	d803      	bhi.n	800352c <USBD_LL_DataInStage+0x46>
           (pep->total_length < pdev->ep0_data_len))
 8003524:	f8d4 3270 	ldr.w	r3, [r4, #624]	; 0x270
           (pep->total_length >= pep->maxpacket) &&
 8003528:	4299      	cmp	r1, r3
 800352a:	d31f      	bcc.n	800356c <USBD_LL_DataInStage+0x86>
          if((pdev->pClass->EP0_TxSent != NULL)&&
 800352c:	f8d4 328c 	ldr.w	r3, [r4, #652]	; 0x28c
 8003530:	68db      	ldr	r3, [r3, #12]
 8003532:	b12b      	cbz	r3, 8003540 <USBD_LL_DataInStage+0x5a>
             (pdev->dev_state == USBD_STATE_CONFIGURED))
 8003534:	f894 2274 	ldrb.w	r2, [r4, #628]	; 0x274
          if((pdev->pClass->EP0_TxSent != NULL)&&
 8003538:	2a03      	cmp	r2, #3
 800353a:	d101      	bne.n	8003540 <USBD_LL_DataInStage+0x5a>
            pdev->pClass->EP0_TxSent(pdev);
 800353c:	4620      	mov	r0, r4
 800353e:	4798      	blx	r3
          USBD_LL_StallEP(pdev, 0x80U);
 8003540:	2180      	movs	r1, #128	; 0x80
 8003542:	4620      	mov	r0, r4
 8003544:	f001 f834 	bl	80045b0 <USBD_LL_StallEP>
          USBD_CtlReceiveStatus(pdev);
 8003548:	4620      	mov	r0, r4
 800354a:	f000 fc11 	bl	8003d70 <USBD_CtlReceiveStatus>
 800354e:	e7d7      	b.n	8003500 <USBD_LL_DataInStage+0x1a>
        pep->rem_length -= pep->maxpacket;
 8003550:	1a9a      	subs	r2, r3, r2
 8003552:	6222      	str	r2, [r4, #32]
        USBD_CtlContinueSendData (pdev, pdata, (uint16_t)pep->rem_length);
 8003554:	b292      	uxth	r2, r2
 8003556:	4601      	mov	r1, r0
 8003558:	4620      	mov	r0, r4
 800355a:	f000 fbdf 	bl	8003d1c <USBD_CtlContinueSendData>
        USBD_LL_PrepareReceive (pdev, 0U, NULL, 0U);
 800355e:	2300      	movs	r3, #0
 8003560:	461a      	mov	r2, r3
 8003562:	4619      	mov	r1, r3
 8003564:	4620      	mov	r0, r4
 8003566:	f001 f843 	bl	80045f0 <USBD_LL_PrepareReceive>
 800356a:	e7c9      	b.n	8003500 <USBD_LL_DataInStage+0x1a>
          USBD_CtlContinueSendData(pdev, NULL, 0U);
 800356c:	2200      	movs	r2, #0
 800356e:	4611      	mov	r1, r2
 8003570:	4620      	mov	r0, r4
 8003572:	f000 fbd3 	bl	8003d1c <USBD_CtlContinueSendData>
          pdev->ep0_data_len = 0U;
 8003576:	2100      	movs	r1, #0
 8003578:	f8c4 1270 	str.w	r1, [r4, #624]	; 0x270
          USBD_LL_PrepareReceive (pdev, 0U, NULL, 0U);
 800357c:	460b      	mov	r3, r1
 800357e:	460a      	mov	r2, r1
 8003580:	4620      	mov	r0, r4
 8003582:	f001 f835 	bl	80045f0 <USBD_LL_PrepareReceive>
 8003586:	e7bb      	b.n	8003500 <USBD_LL_DataInStage+0x1a>
        USBD_LL_StallEP(pdev, 0x80U);
 8003588:	2180      	movs	r1, #128	; 0x80
 800358a:	4620      	mov	r0, r4
 800358c:	f001 f810 	bl	80045b0 <USBD_LL_StallEP>
 8003590:	e7b6      	b.n	8003500 <USBD_LL_DataInStage+0x1a>
      pdev->dev_test_mode = 0U;
 8003592:	2000      	movs	r0, #0
 8003594:	f884 0278 	strb.w	r0, [r4, #632]	; 0x278
 8003598:	e00b      	b.n	80035b2 <USBD_LL_DataInStage+0xcc>
 800359a:	460a      	mov	r2, r1
  else if((pdev->pClass->DataIn != NULL) &&
 800359c:	f8d0 328c 	ldr.w	r3, [r0, #652]	; 0x28c
 80035a0:	695b      	ldr	r3, [r3, #20]
 80035a2:	b13b      	cbz	r3, 80035b4 <USBD_LL_DataInStage+0xce>
          (pdev->dev_state == USBD_STATE_CONFIGURED))
 80035a4:	f890 1274 	ldrb.w	r1, [r0, #628]	; 0x274
  else if((pdev->pClass->DataIn != NULL) &&
 80035a8:	2903      	cmp	r1, #3
 80035aa:	d105      	bne.n	80035b8 <USBD_LL_DataInStage+0xd2>
    pdev->pClass->DataIn(pdev, epnum);
 80035ac:	4611      	mov	r1, r2
 80035ae:	4798      	blx	r3
  return USBD_OK;
 80035b0:	2000      	movs	r0, #0
}
 80035b2:	bd10      	pop	{r4, pc}
    return USBD_FAIL;
 80035b4:	2002      	movs	r0, #2
 80035b6:	e7fc      	b.n	80035b2 <USBD_LL_DataInStage+0xcc>
 80035b8:	2002      	movs	r0, #2
 80035ba:	e7fa      	b.n	80035b2 <USBD_LL_DataInStage+0xcc>

080035bc <USBD_LL_Reset>:
* @param  pdev: device instance
* @retval status
*/

USBD_StatusTypeDef USBD_LL_Reset(USBD_HandleTypeDef  *pdev)
{
 80035bc:	b570      	push	{r4, r5, r6, lr}
 80035be:	4604      	mov	r4, r0
  /* Open EP0 OUT */
  USBD_LL_OpenEP(pdev, 0x00U, USBD_EP_TYPE_CTRL, USB_MAX_EP0_SIZE);
 80035c0:	2340      	movs	r3, #64	; 0x40
 80035c2:	2200      	movs	r2, #0
 80035c4:	4611      	mov	r1, r2
 80035c6:	f000 ffe0 	bl	800458a <USBD_LL_OpenEP>
  pdev->ep_out[0x00U & 0xFU].is_used = 1U;
 80035ca:	2501      	movs	r5, #1
 80035cc:	f8c4 5144 	str.w	r5, [r4, #324]	; 0x144

  pdev->ep_out[0].maxpacket = USB_MAX_EP0_SIZE;
 80035d0:	2640      	movs	r6, #64	; 0x40
 80035d2:	f8c4 6150 	str.w	r6, [r4, #336]	; 0x150

  /* Open EP0 IN */
  USBD_LL_OpenEP(pdev, 0x80U, USBD_EP_TYPE_CTRL, USB_MAX_EP0_SIZE);
 80035d6:	4633      	mov	r3, r6
 80035d8:	2200      	movs	r2, #0
 80035da:	2180      	movs	r1, #128	; 0x80
 80035dc:	4620      	mov	r0, r4
 80035de:	f000 ffd4 	bl	800458a <USBD_LL_OpenEP>
  pdev->ep_in[0x80U & 0xFU].is_used = 1U;
 80035e2:	61a5      	str	r5, [r4, #24]

  pdev->ep_in[0].maxpacket = USB_MAX_EP0_SIZE;
 80035e4:	6266      	str	r6, [r4, #36]	; 0x24
  /* Upon Reset call user call back */
  pdev->dev_state = USBD_STATE_DEFAULT;
 80035e6:	f884 5274 	strb.w	r5, [r4, #628]	; 0x274
  pdev->ep0_state = USBD_EP0_IDLE;
 80035ea:	2300      	movs	r3, #0
 80035ec:	f8c4 326c 	str.w	r3, [r4, #620]	; 0x26c
  pdev->dev_config= 0U;
 80035f0:	6063      	str	r3, [r4, #4]
  pdev->dev_remote_wakeup = 0U;
 80035f2:	f8c4 327c 	str.w	r3, [r4, #636]	; 0x27c

  if (pdev->pClassData)
 80035f6:	f8d4 3290 	ldr.w	r3, [r4, #656]	; 0x290
 80035fa:	b12b      	cbz	r3, 8003608 <USBD_LL_Reset+0x4c>
  {
    pdev->pClass->DeInit(pdev, (uint8_t)pdev->dev_config);
 80035fc:	f8d4 328c 	ldr.w	r3, [r4, #652]	; 0x28c
 8003600:	685b      	ldr	r3, [r3, #4]
 8003602:	2100      	movs	r1, #0
 8003604:	4620      	mov	r0, r4
 8003606:	4798      	blx	r3
  }

  return USBD_OK;
}
 8003608:	2000      	movs	r0, #0
 800360a:	bd70      	pop	{r4, r5, r6, pc}

0800360c <USBD_LL_SetSpeed>:
* @param  pdev: device instance
* @retval status
*/
USBD_StatusTypeDef USBD_LL_SetSpeed(USBD_HandleTypeDef  *pdev, USBD_SpeedTypeDef speed)
{
  pdev->dev_speed = speed;
 800360c:	7401      	strb	r1, [r0, #16]
  return USBD_OK;
}
 800360e:	2000      	movs	r0, #0
 8003610:	4770      	bx	lr

08003612 <USBD_LL_Suspend>:
* @retval status
*/

USBD_StatusTypeDef USBD_LL_Suspend(USBD_HandleTypeDef  *pdev)
{
  pdev->dev_old_state =  pdev->dev_state;
 8003612:	f890 3274 	ldrb.w	r3, [r0, #628]	; 0x274
 8003616:	f880 3275 	strb.w	r3, [r0, #629]	; 0x275
  pdev->dev_state  = USBD_STATE_SUSPENDED;
 800361a:	2304      	movs	r3, #4
 800361c:	f880 3274 	strb.w	r3, [r0, #628]	; 0x274
  return USBD_OK;
}
 8003620:	2000      	movs	r0, #0
 8003622:	4770      	bx	lr

08003624 <USBD_LL_Resume>:
* @retval status
*/

USBD_StatusTypeDef USBD_LL_Resume(USBD_HandleTypeDef  *pdev)
{
  pdev->dev_state = pdev->dev_old_state;
 8003624:	f890 3275 	ldrb.w	r3, [r0, #629]	; 0x275
 8003628:	f880 3274 	strb.w	r3, [r0, #628]	; 0x274
  return USBD_OK;
}
 800362c:	2000      	movs	r0, #0
 800362e:	4770      	bx	lr

08003630 <USBD_LL_SOF>:
* @param  pdev: device instance
* @retval status
*/

USBD_StatusTypeDef USBD_LL_SOF(USBD_HandleTypeDef  *pdev)
{
 8003630:	b508      	push	{r3, lr}
  if(pdev->dev_state == USBD_STATE_CONFIGURED)
 8003632:	f890 3274 	ldrb.w	r3, [r0, #628]	; 0x274
 8003636:	2b03      	cmp	r3, #3
 8003638:	d001      	beq.n	800363e <USBD_LL_SOF+0xe>
    {
      pdev->pClass->SOF(pdev);
    }
  }
  return USBD_OK;
}
 800363a:	2000      	movs	r0, #0
 800363c:	bd08      	pop	{r3, pc}
    if(pdev->pClass->SOF != NULL)
 800363e:	f8d0 328c 	ldr.w	r3, [r0, #652]	; 0x28c
 8003642:	69db      	ldr	r3, [r3, #28]
 8003644:	2b00      	cmp	r3, #0
 8003646:	d0f8      	beq.n	800363a <USBD_LL_SOF+0xa>
      pdev->pClass->SOF(pdev);
 8003648:	4798      	blx	r3
 800364a:	e7f6      	b.n	800363a <USBD_LL_SOF+0xa>

0800364c <USBD_LL_IsoINIncomplete>:
  /* Prevent unused arguments compilation warning */
  UNUSED(pdev);
  UNUSED(epnum);

  return USBD_OK;
}
 800364c:	2000      	movs	r0, #0
 800364e:	4770      	bx	lr

08003650 <USBD_LL_IsoOUTIncomplete>:
  /* Prevent unused arguments compilation warning */
  UNUSED(pdev);
  UNUSED(epnum);

  return USBD_OK;
}
 8003650:	2000      	movs	r0, #0
 8003652:	4770      	bx	lr

08003654 <USBD_LL_DevConnected>:
{
  /* Prevent unused argument compilation warning */
  UNUSED(pdev);

  return USBD_OK;
}
 8003654:	2000      	movs	r0, #0
 8003656:	4770      	bx	lr

08003658 <USBD_LL_DevDisconnected>:
*         Handle device disconnection event
* @param  pdev: device instance
* @retval status
*/
USBD_StatusTypeDef USBD_LL_DevDisconnected(USBD_HandleTypeDef  *pdev)
{
 8003658:	b508      	push	{r3, lr}
  /* Free Class Resources */
  pdev->dev_state = USBD_STATE_DEFAULT;
 800365a:	2201      	movs	r2, #1
 800365c:	f880 2274 	strb.w	r2, [r0, #628]	; 0x274
  pdev->pClass->DeInit(pdev, (uint8_t)pdev->dev_config);
 8003660:	f8d0 228c 	ldr.w	r2, [r0, #652]	; 0x28c
 8003664:	6852      	ldr	r2, [r2, #4]
 8003666:	7901      	ldrb	r1, [r0, #4]
 8003668:	4790      	blx	r2

  return USBD_OK;
}
 800366a:	2000      	movs	r0, #0
 800366c:	bd08      	pop	{r3, pc}

0800366e <USBD_GetLen>:
   * @param  buf : pointer to the ascii string buffer
  * @retval string length
  */
static uint8_t USBD_GetLen(uint8_t *buf)
{
    uint8_t  len = 0U;
 800366e:	2300      	movs	r3, #0

    while (*buf != '\0')
 8003670:	e002      	b.n	8003678 <USBD_GetLen+0xa>
    {
        len++;
 8003672:	3301      	adds	r3, #1
 8003674:	b2db      	uxtb	r3, r3
        buf++;
 8003676:	3001      	adds	r0, #1
    while (*buf != '\0')
 8003678:	7802      	ldrb	r2, [r0, #0]
 800367a:	2a00      	cmp	r2, #0
 800367c:	d1f9      	bne.n	8003672 <USBD_GetLen+0x4>
    }

    return len;
}
 800367e:	4618      	mov	r0, r3
 8003680:	4770      	bx	lr

08003682 <USBD_SetFeature>:
{
 8003682:	b508      	push	{r3, lr}
  if (req->wValue == USB_FEATURE_REMOTE_WAKEUP)
 8003684:	884b      	ldrh	r3, [r1, #2]
 8003686:	2b01      	cmp	r3, #1
 8003688:	d000      	beq.n	800368c <USBD_SetFeature+0xa>
}
 800368a:	bd08      	pop	{r3, pc}
    pdev->dev_remote_wakeup = 1U;
 800368c:	f8c0 327c 	str.w	r3, [r0, #636]	; 0x27c
    USBD_CtlSendStatus(pdev);
 8003690:	f000 fb63 	bl	8003d5a <USBD_CtlSendStatus>
}
 8003694:	e7f9      	b.n	800368a <USBD_SetFeature+0x8>

08003696 <USBD_ParseSetupRequest>:
  req->bmRequest     = *(uint8_t *)  (pdata);
 8003696:	780b      	ldrb	r3, [r1, #0]
 8003698:	7003      	strb	r3, [r0, #0]
  req->bRequest      = *(uint8_t *)  (pdata +  1);
 800369a:	784b      	ldrb	r3, [r1, #1]
 800369c:	7043      	strb	r3, [r0, #1]
  req->wValue        = SWAPBYTE      (pdata +  2);
 800369e:	788b      	ldrb	r3, [r1, #2]
 80036a0:	78ca      	ldrb	r2, [r1, #3]
 80036a2:	eb03 2302 	add.w	r3, r3, r2, lsl #8
 80036a6:	8043      	strh	r3, [r0, #2]
  req->wIndex        = SWAPBYTE      (pdata +  4);
 80036a8:	790b      	ldrb	r3, [r1, #4]
 80036aa:	794a      	ldrb	r2, [r1, #5]
 80036ac:	eb03 2302 	add.w	r3, r3, r2, lsl #8
 80036b0:	8083      	strh	r3, [r0, #4]
  req->wLength       = SWAPBYTE      (pdata +  6);
 80036b2:	798b      	ldrb	r3, [r1, #6]
 80036b4:	79ca      	ldrb	r2, [r1, #7]
 80036b6:	eb03 2302 	add.w	r3, r3, r2, lsl #8
 80036ba:	80c3      	strh	r3, [r0, #6]
}
 80036bc:	4770      	bx	lr

080036be <USBD_CtlError>:
{
 80036be:	b510      	push	{r4, lr}
 80036c0:	4604      	mov	r4, r0
  USBD_LL_StallEP(pdev , 0x80U);
 80036c2:	2180      	movs	r1, #128	; 0x80
 80036c4:	f000 ff74 	bl	80045b0 <USBD_LL_StallEP>
  USBD_LL_StallEP(pdev , 0U);
 80036c8:	2100      	movs	r1, #0
 80036ca:	4620      	mov	r0, r4
 80036cc:	f000 ff70 	bl	80045b0 <USBD_LL_StallEP>
}
 80036d0:	bd10      	pop	{r4, pc}

080036d2 <USBD_GetDescriptor>:
{
 80036d2:	b530      	push	{r4, r5, lr}
 80036d4:	b083      	sub	sp, #12
 80036d6:	4605      	mov	r5, r0
 80036d8:	460c      	mov	r4, r1
  switch (req->wValue >> 8)
 80036da:	884a      	ldrh	r2, [r1, #2]
 80036dc:	0a13      	lsrs	r3, r2, #8
 80036de:	3b01      	subs	r3, #1
 80036e0:	2b0e      	cmp	r3, #14
 80036e2:	f200 8091 	bhi.w	8003808 <USBD_GetDescriptor+0x136>
 80036e6:	e8df f003 	tbb	[pc, r3]
 80036ea:	231b      	.short	0x231b
 80036ec:	738f8f37 	.word	0x738f8f37
 80036f0:	8f8f8f80 	.word	0x8f8f8f80
 80036f4:	8f8f8f8f 	.word	0x8f8f8f8f
 80036f8:	08          	.byte	0x08
 80036f9:	00          	.byte	0x00
    pbuf = pdev->pDesc->GetBOSDescriptor(pdev->dev_speed, &len);
 80036fa:	f8d0 3288 	ldr.w	r3, [r0, #648]	; 0x288
 80036fe:	69db      	ldr	r3, [r3, #28]
 8003700:	f10d 0106 	add.w	r1, sp, #6
 8003704:	7c00      	ldrb	r0, [r0, #16]
 8003706:	4798      	blx	r3
  if((len != 0U) && (req->wLength != 0U))
 8003708:	f8bd 2006 	ldrh.w	r2, [sp, #6]
 800370c:	b112      	cbz	r2, 8003714 <USBD_GetDescriptor+0x42>
 800370e:	88e3      	ldrh	r3, [r4, #6]
 8003710:	2b00      	cmp	r3, #0
 8003712:	d17d      	bne.n	8003810 <USBD_GetDescriptor+0x13e>
  if(req->wLength == 0U)
 8003714:	88e3      	ldrh	r3, [r4, #6]
 8003716:	2b00      	cmp	r3, #0
 8003718:	f000 8084 	beq.w	8003824 <USBD_GetDescriptor+0x152>
}
 800371c:	b003      	add	sp, #12
 800371e:	bd30      	pop	{r4, r5, pc}
    pbuf = pdev->pDesc->GetDeviceDescriptor(pdev->dev_speed, &len);
 8003720:	f8d0 3288 	ldr.w	r3, [r0, #648]	; 0x288
 8003724:	681b      	ldr	r3, [r3, #0]
 8003726:	f10d 0106 	add.w	r1, sp, #6
 800372a:	7c00      	ldrb	r0, [r0, #16]
 800372c:	4798      	blx	r3
    break;
 800372e:	e7eb      	b.n	8003708 <USBD_GetDescriptor+0x36>
    if(pdev->dev_speed == USBD_SPEED_HIGH )
 8003730:	7c03      	ldrb	r3, [r0, #16]
 8003732:	b943      	cbnz	r3, 8003746 <USBD_GetDescriptor+0x74>
      pbuf   = (uint8_t *)pdev->pClass->GetHSConfigDescriptor(&len);
 8003734:	f8d0 328c 	ldr.w	r3, [r0, #652]	; 0x28c
 8003738:	6a9b      	ldr	r3, [r3, #40]	; 0x28
 800373a:	f10d 0006 	add.w	r0, sp, #6
 800373e:	4798      	blx	r3
      pbuf[1] = USB_DESC_TYPE_CONFIGURATION;
 8003740:	2302      	movs	r3, #2
 8003742:	7043      	strb	r3, [r0, #1]
 8003744:	e7e0      	b.n	8003708 <USBD_GetDescriptor+0x36>
      pbuf   = (uint8_t *)pdev->pClass->GetFSConfigDescriptor(&len);
 8003746:	f8d0 328c 	ldr.w	r3, [r0, #652]	; 0x28c
 800374a:	6adb      	ldr	r3, [r3, #44]	; 0x2c
 800374c:	f10d 0006 	add.w	r0, sp, #6
 8003750:	4798      	blx	r3
      pbuf[1] = USB_DESC_TYPE_CONFIGURATION;
 8003752:	2302      	movs	r3, #2
 8003754:	7043      	strb	r3, [r0, #1]
 8003756:	e7d7      	b.n	8003708 <USBD_GetDescriptor+0x36>
    switch ((uint8_t)(req->wValue))
 8003758:	b2d2      	uxtb	r2, r2
 800375a:	2a05      	cmp	r2, #5
 800375c:	d834      	bhi.n	80037c8 <USBD_GetDescriptor+0xf6>
 800375e:	e8df f002 	tbb	[pc, r2]
 8003762:	0b03      	.short	0x0b03
 8003764:	2b231b13 	.word	0x2b231b13
     pbuf = pdev->pDesc->GetLangIDStrDescriptor(pdev->dev_speed, &len);
 8003768:	f8d0 3288 	ldr.w	r3, [r0, #648]	; 0x288
 800376c:	685b      	ldr	r3, [r3, #4]
 800376e:	f10d 0106 	add.w	r1, sp, #6
 8003772:	7c00      	ldrb	r0, [r0, #16]
 8003774:	4798      	blx	r3
      break;
 8003776:	e7c7      	b.n	8003708 <USBD_GetDescriptor+0x36>
      pbuf = pdev->pDesc->GetManufacturerStrDescriptor(pdev->dev_speed, &len);
 8003778:	f8d0 3288 	ldr.w	r3, [r0, #648]	; 0x288
 800377c:	689b      	ldr	r3, [r3, #8]
 800377e:	f10d 0106 	add.w	r1, sp, #6
 8003782:	7c00      	ldrb	r0, [r0, #16]
 8003784:	4798      	blx	r3
      break;
 8003786:	e7bf      	b.n	8003708 <USBD_GetDescriptor+0x36>
      pbuf = pdev->pDesc->GetProductStrDescriptor(pdev->dev_speed, &len);
 8003788:	f8d0 3288 	ldr.w	r3, [r0, #648]	; 0x288
 800378c:	68db      	ldr	r3, [r3, #12]
 800378e:	f10d 0106 	add.w	r1, sp, #6
 8003792:	7c00      	ldrb	r0, [r0, #16]
 8003794:	4798      	blx	r3
      break;
 8003796:	e7b7      	b.n	8003708 <USBD_GetDescriptor+0x36>
      pbuf = pdev->pDesc->GetSerialStrDescriptor(pdev->dev_speed, &len);
 8003798:	f8d0 3288 	ldr.w	r3, [r0, #648]	; 0x288
 800379c:	691b      	ldr	r3, [r3, #16]
 800379e:	f10d 0106 	add.w	r1, sp, #6
 80037a2:	7c00      	ldrb	r0, [r0, #16]
 80037a4:	4798      	blx	r3
      break;
 80037a6:	e7af      	b.n	8003708 <USBD_GetDescriptor+0x36>
      pbuf = pdev->pDesc->GetConfigurationStrDescriptor(pdev->dev_speed, &len);
 80037a8:	f8d0 3288 	ldr.w	r3, [r0, #648]	; 0x288
 80037ac:	695b      	ldr	r3, [r3, #20]
 80037ae:	f10d 0106 	add.w	r1, sp, #6
 80037b2:	7c00      	ldrb	r0, [r0, #16]
 80037b4:	4798      	blx	r3
      break;
 80037b6:	e7a7      	b.n	8003708 <USBD_GetDescriptor+0x36>
      pbuf = pdev->pDesc->GetInterfaceStrDescriptor(pdev->dev_speed, &len);
 80037b8:	f8d0 3288 	ldr.w	r3, [r0, #648]	; 0x288
 80037bc:	699b      	ldr	r3, [r3, #24]
 80037be:	f10d 0106 	add.w	r1, sp, #6
 80037c2:	7c00      	ldrb	r0, [r0, #16]
 80037c4:	4798      	blx	r3
      break;
 80037c6:	e79f      	b.n	8003708 <USBD_GetDescriptor+0x36>
       USBD_CtlError(pdev , req);
 80037c8:	4621      	mov	r1, r4
 80037ca:	f7ff ff78 	bl	80036be <USBD_CtlError>
      return;
 80037ce:	e7a5      	b.n	800371c <USBD_GetDescriptor+0x4a>
    if(pdev->dev_speed == USBD_SPEED_HIGH)
 80037d0:	7c03      	ldrb	r3, [r0, #16]
 80037d2:	b933      	cbnz	r3, 80037e2 <USBD_GetDescriptor+0x110>
      pbuf = (uint8_t *)pdev->pClass->GetDeviceQualifierDescriptor(&len);
 80037d4:	f8d0 328c 	ldr.w	r3, [r0, #652]	; 0x28c
 80037d8:	6b5b      	ldr	r3, [r3, #52]	; 0x34
 80037da:	f10d 0006 	add.w	r0, sp, #6
 80037de:	4798      	blx	r3
      break;
 80037e0:	e792      	b.n	8003708 <USBD_GetDescriptor+0x36>
      USBD_CtlError(pdev , req);
 80037e2:	4621      	mov	r1, r4
 80037e4:	f7ff ff6b 	bl	80036be <USBD_CtlError>
      return;
 80037e8:	e798      	b.n	800371c <USBD_GetDescriptor+0x4a>
    if(pdev->dev_speed == USBD_SPEED_HIGH  )
 80037ea:	7c03      	ldrb	r3, [r0, #16]
 80037ec:	b943      	cbnz	r3, 8003800 <USBD_GetDescriptor+0x12e>
      pbuf   = (uint8_t *)pdev->pClass->GetOtherSpeedConfigDescriptor(&len);
 80037ee:	f8d0 328c 	ldr.w	r3, [r0, #652]	; 0x28c
 80037f2:	6b1b      	ldr	r3, [r3, #48]	; 0x30
 80037f4:	f10d 0006 	add.w	r0, sp, #6
 80037f8:	4798      	blx	r3
      pbuf[1] = USB_DESC_TYPE_OTHER_SPEED_CONFIGURATION;
 80037fa:	2307      	movs	r3, #7
 80037fc:	7043      	strb	r3, [r0, #1]
      break;
 80037fe:	e783      	b.n	8003708 <USBD_GetDescriptor+0x36>
      USBD_CtlError(pdev , req);
 8003800:	4621      	mov	r1, r4
 8003802:	f7ff ff5c 	bl	80036be <USBD_CtlError>
      return;
 8003806:	e789      	b.n	800371c <USBD_GetDescriptor+0x4a>
     USBD_CtlError(pdev , req);
 8003808:	4621      	mov	r1, r4
 800380a:	f7ff ff58 	bl	80036be <USBD_CtlError>
    return;
 800380e:	e785      	b.n	800371c <USBD_GetDescriptor+0x4a>
    len = MIN(len, req->wLength);
 8003810:	429a      	cmp	r2, r3
 8003812:	bf28      	it	cs
 8003814:	461a      	movcs	r2, r3
 8003816:	f8ad 2006 	strh.w	r2, [sp, #6]
    USBD_CtlSendData (pdev, pbuf, len);
 800381a:	4601      	mov	r1, r0
 800381c:	4628      	mov	r0, r5
 800381e:	f000 fa70 	bl	8003d02 <USBD_CtlSendData>
 8003822:	e777      	b.n	8003714 <USBD_GetDescriptor+0x42>
   USBD_CtlSendStatus(pdev);
 8003824:	4628      	mov	r0, r5
 8003826:	f000 fa98 	bl	8003d5a <USBD_CtlSendStatus>
 800382a:	e777      	b.n	800371c <USBD_GetDescriptor+0x4a>

0800382c <USBD_SetAddress>:
{
 800382c:	b538      	push	{r3, r4, r5, lr}
 800382e:	4604      	mov	r4, r0
  if ((req->wIndex == 0U) && (req->wLength == 0U) && (req->wValue < 128U))
 8003830:	888b      	ldrh	r3, [r1, #4]
 8003832:	b9f3      	cbnz	r3, 8003872 <USBD_SetAddress+0x46>
 8003834:	88cb      	ldrh	r3, [r1, #6]
 8003836:	b9e3      	cbnz	r3, 8003872 <USBD_SetAddress+0x46>
 8003838:	884b      	ldrh	r3, [r1, #2]
 800383a:	2b7f      	cmp	r3, #127	; 0x7f
 800383c:	d819      	bhi.n	8003872 <USBD_SetAddress+0x46>
    dev_addr = (uint8_t)(req->wValue) & 0x7FU;
 800383e:	f003 057f 	and.w	r5, r3, #127	; 0x7f
    if (pdev->dev_state == USBD_STATE_CONFIGURED)
 8003842:	f890 3274 	ldrb.w	r3, [r0, #628]	; 0x274
 8003846:	2b03      	cmp	r3, #3
 8003848:	d00c      	beq.n	8003864 <USBD_SetAddress+0x38>
      pdev->dev_address = dev_addr;
 800384a:	f880 5276 	strb.w	r5, [r0, #630]	; 0x276
      USBD_LL_SetUSBAddress(pdev, dev_addr);
 800384e:	4629      	mov	r1, r5
 8003850:	f000 febe 	bl	80045d0 <USBD_LL_SetUSBAddress>
      USBD_CtlSendStatus(pdev);
 8003854:	4620      	mov	r0, r4
 8003856:	f000 fa80 	bl	8003d5a <USBD_CtlSendStatus>
      if (dev_addr != 0U)
 800385a:	b135      	cbz	r5, 800386a <USBD_SetAddress+0x3e>
        pdev->dev_state = USBD_STATE_ADDRESSED;
 800385c:	2302      	movs	r3, #2
 800385e:	f884 3274 	strb.w	r3, [r4, #628]	; 0x274
 8003862:	e009      	b.n	8003878 <USBD_SetAddress+0x4c>
      USBD_CtlError(pdev , req);
 8003864:	f7ff ff2b 	bl	80036be <USBD_CtlError>
 8003868:	e006      	b.n	8003878 <USBD_SetAddress+0x4c>
        pdev->dev_state = USBD_STATE_DEFAULT;
 800386a:	2301      	movs	r3, #1
 800386c:	f884 3274 	strb.w	r3, [r4, #628]	; 0x274
 8003870:	e002      	b.n	8003878 <USBD_SetAddress+0x4c>
    USBD_CtlError(pdev, req);
 8003872:	4620      	mov	r0, r4
 8003874:	f7ff ff23 	bl	80036be <USBD_CtlError>
}
 8003878:	bd38      	pop	{r3, r4, r5, pc}
	...

0800387c <USBD_SetConfig>:
{
 800387c:	b538      	push	{r3, r4, r5, lr}
 800387e:	4604      	mov	r4, r0
 8003880:	460d      	mov	r5, r1
  cfgidx = (uint8_t)(req->wValue);
 8003882:	7889      	ldrb	r1, [r1, #2]
 8003884:	4b28      	ldr	r3, [pc, #160]	; (8003928 <USBD_SetConfig+0xac>)
 8003886:	7019      	strb	r1, [r3, #0]
  if (cfgidx > USBD_MAX_NUM_CONFIGURATION)
 8003888:	2901      	cmp	r1, #1
 800388a:	d80e      	bhi.n	80038aa <USBD_SetConfig+0x2e>
    switch (pdev->dev_state)
 800388c:	f890 3274 	ldrb.w	r3, [r0, #628]	; 0x274
 8003890:	2b02      	cmp	r3, #2
 8003892:	d00e      	beq.n	80038b2 <USBD_SetConfig+0x36>
 8003894:	2b03      	cmp	r3, #3
 8003896:	d021      	beq.n	80038dc <USBD_SetConfig+0x60>
      USBD_CtlError(pdev, req);
 8003898:	4629      	mov	r1, r5
 800389a:	f7ff ff10 	bl	80036be <USBD_CtlError>
      USBD_ClrClassConfig(pdev, cfgidx);
 800389e:	4b22      	ldr	r3, [pc, #136]	; (8003928 <USBD_SetConfig+0xac>)
 80038a0:	7819      	ldrb	r1, [r3, #0]
 80038a2:	4620      	mov	r0, r4
 80038a4:	f7ff fda2 	bl	80033ec <USBD_ClrClassConfig>
      break;
 80038a8:	e002      	b.n	80038b0 <USBD_SetConfig+0x34>
    USBD_CtlError(pdev, req);
 80038aa:	4629      	mov	r1, r5
 80038ac:	f7ff ff07 	bl	80036be <USBD_CtlError>
}
 80038b0:	bd38      	pop	{r3, r4, r5, pc}
      if (cfgidx)
 80038b2:	b181      	cbz	r1, 80038d6 <USBD_SetConfig+0x5a>
        pdev->dev_config = cfgidx;
 80038b4:	6041      	str	r1, [r0, #4]
        pdev->dev_state = USBD_STATE_CONFIGURED;
 80038b6:	2303      	movs	r3, #3
 80038b8:	f880 3274 	strb.w	r3, [r0, #628]	; 0x274
        if(USBD_SetClassConfig(pdev, cfgidx) == USBD_FAIL)
 80038bc:	f7ff fd89 	bl	80033d2 <USBD_SetClassConfig>
 80038c0:	2802      	cmp	r0, #2
 80038c2:	d003      	beq.n	80038cc <USBD_SetConfig+0x50>
        USBD_CtlSendStatus(pdev);
 80038c4:	4620      	mov	r0, r4
 80038c6:	f000 fa48 	bl	8003d5a <USBD_CtlSendStatus>
 80038ca:	e7f1      	b.n	80038b0 <USBD_SetConfig+0x34>
          USBD_CtlError(pdev, req);
 80038cc:	4629      	mov	r1, r5
 80038ce:	4620      	mov	r0, r4
 80038d0:	f7ff fef5 	bl	80036be <USBD_CtlError>
          return;
 80038d4:	e7ec      	b.n	80038b0 <USBD_SetConfig+0x34>
        USBD_CtlSendStatus(pdev);
 80038d6:	f000 fa40 	bl	8003d5a <USBD_CtlSendStatus>
 80038da:	e7e9      	b.n	80038b0 <USBD_SetConfig+0x34>
      if (cfgidx == 0U)
 80038dc:	b189      	cbz	r1, 8003902 <USBD_SetConfig+0x86>
      else if (cfgidx != pdev->dev_config)
 80038de:	6843      	ldr	r3, [r0, #4]
 80038e0:	4299      	cmp	r1, r3
 80038e2:	d01d      	beq.n	8003920 <USBD_SetConfig+0xa4>
        USBD_ClrClassConfig(pdev, (uint8_t)pdev->dev_config);
 80038e4:	b2d9      	uxtb	r1, r3
 80038e6:	f7ff fd81 	bl	80033ec <USBD_ClrClassConfig>
        pdev->dev_config = cfgidx;
 80038ea:	4b0f      	ldr	r3, [pc, #60]	; (8003928 <USBD_SetConfig+0xac>)
 80038ec:	7819      	ldrb	r1, [r3, #0]
 80038ee:	6061      	str	r1, [r4, #4]
        if(USBD_SetClassConfig(pdev, cfgidx) == USBD_FAIL)
 80038f0:	4620      	mov	r0, r4
 80038f2:	f7ff fd6e 	bl	80033d2 <USBD_SetClassConfig>
 80038f6:	2802      	cmp	r0, #2
 80038f8:	d00d      	beq.n	8003916 <USBD_SetConfig+0x9a>
        USBD_CtlSendStatus(pdev);
 80038fa:	4620      	mov	r0, r4
 80038fc:	f000 fa2d 	bl	8003d5a <USBD_CtlSendStatus>
 8003900:	e7d6      	b.n	80038b0 <USBD_SetConfig+0x34>
        pdev->dev_state = USBD_STATE_ADDRESSED;
 8003902:	2302      	movs	r3, #2
 8003904:	f880 3274 	strb.w	r3, [r0, #628]	; 0x274
        pdev->dev_config = cfgidx;
 8003908:	6041      	str	r1, [r0, #4]
        USBD_ClrClassConfig(pdev, cfgidx);
 800390a:	f7ff fd6f 	bl	80033ec <USBD_ClrClassConfig>
        USBD_CtlSendStatus(pdev);
 800390e:	4620      	mov	r0, r4
 8003910:	f000 fa23 	bl	8003d5a <USBD_CtlSendStatus>
 8003914:	e7cc      	b.n	80038b0 <USBD_SetConfig+0x34>
          USBD_CtlError(pdev, req);
 8003916:	4629      	mov	r1, r5
 8003918:	4620      	mov	r0, r4
 800391a:	f7ff fed0 	bl	80036be <USBD_CtlError>
          return;
 800391e:	e7c7      	b.n	80038b0 <USBD_SetConfig+0x34>
        USBD_CtlSendStatus(pdev);
 8003920:	f000 fa1b 	bl	8003d5a <USBD_CtlSendStatus>
 8003924:	e7c4      	b.n	80038b0 <USBD_SetConfig+0x34>
 8003926:	bf00      	nop
 8003928:	2000020c 	.word	0x2000020c

0800392c <USBD_GetConfig>:
{
 800392c:	b508      	push	{r3, lr}
  if (req->wLength != 1U)
 800392e:	88cb      	ldrh	r3, [r1, #6]
 8003930:	2b01      	cmp	r3, #1
 8003932:	d10b      	bne.n	800394c <USBD_GetConfig+0x20>
    switch (pdev->dev_state)
 8003934:	f890 3274 	ldrb.w	r3, [r0, #628]	; 0x274
 8003938:	b19b      	cbz	r3, 8003962 <USBD_GetConfig+0x36>
 800393a:	2b02      	cmp	r3, #2
 800393c:	d909      	bls.n	8003952 <USBD_GetConfig+0x26>
 800393e:	2b03      	cmp	r3, #3
 8003940:	d10f      	bne.n	8003962 <USBD_GetConfig+0x36>
      USBD_CtlSendData (pdev, (uint8_t *)(void *)&pdev->dev_config, 1U);
 8003942:	2201      	movs	r2, #1
 8003944:	1d01      	adds	r1, r0, #4
 8003946:	f000 f9dc 	bl	8003d02 <USBD_CtlSendData>
      break;
 800394a:	e001      	b.n	8003950 <USBD_GetConfig+0x24>
    USBD_CtlError(pdev , req);
 800394c:	f7ff feb7 	bl	80036be <USBD_CtlError>
}
 8003950:	bd08      	pop	{r3, pc}
      pdev->dev_default_config = 0U;
 8003952:	4601      	mov	r1, r0
 8003954:	2300      	movs	r3, #0
 8003956:	f841 3f08 	str.w	r3, [r1, #8]!
      USBD_CtlSendData (pdev, (uint8_t *)(void *)&pdev->dev_default_config, 1U);
 800395a:	2201      	movs	r2, #1
 800395c:	f000 f9d1 	bl	8003d02 <USBD_CtlSendData>
      break;
 8003960:	e7f6      	b.n	8003950 <USBD_GetConfig+0x24>
      USBD_CtlError(pdev , req);
 8003962:	f7ff feac 	bl	80036be <USBD_CtlError>
}
 8003966:	e7f3      	b.n	8003950 <USBD_GetConfig+0x24>

08003968 <USBD_GetStatus>:
{
 8003968:	b508      	push	{r3, lr}
  switch (pdev->dev_state)
 800396a:	f890 3274 	ldrb.w	r3, [r0, #628]	; 0x274
 800396e:	3b01      	subs	r3, #1
 8003970:	2b02      	cmp	r3, #2
 8003972:	d812      	bhi.n	800399a <USBD_GetStatus+0x32>
    if(req->wLength != 0x2U)
 8003974:	88cb      	ldrh	r3, [r1, #6]
 8003976:	2b02      	cmp	r3, #2
 8003978:	d10c      	bne.n	8003994 <USBD_GetStatus+0x2c>
    pdev->dev_config_status = USB_CONFIG_SELF_POWERED;
 800397a:	2301      	movs	r3, #1
 800397c:	60c3      	str	r3, [r0, #12]
    if (pdev->dev_remote_wakeup)
 800397e:	f8d0 327c 	ldr.w	r3, [r0, #636]	; 0x27c
 8003982:	b10b      	cbz	r3, 8003988 <USBD_GetStatus+0x20>
      pdev->dev_config_status |= USB_CONFIG_REMOTE_WAKEUP;
 8003984:	2303      	movs	r3, #3
 8003986:	60c3      	str	r3, [r0, #12]
    USBD_CtlSendData (pdev, (uint8_t *)(void *)&pdev->dev_config_status, 2U);
 8003988:	2202      	movs	r2, #2
 800398a:	f100 010c 	add.w	r1, r0, #12
 800398e:	f000 f9b8 	bl	8003d02 <USBD_CtlSendData>
}
 8003992:	bd08      	pop	{r3, pc}
      USBD_CtlError(pdev, req);
 8003994:	f7ff fe93 	bl	80036be <USBD_CtlError>
      break;
 8003998:	e7fb      	b.n	8003992 <USBD_GetStatus+0x2a>
    USBD_CtlError(pdev , req);
 800399a:	f7ff fe90 	bl	80036be <USBD_CtlError>
}
 800399e:	e7f8      	b.n	8003992 <USBD_GetStatus+0x2a>

080039a0 <USBD_ClrFeature>:
{
 80039a0:	b508      	push	{r3, lr}
  switch (pdev->dev_state)
 80039a2:	f890 3274 	ldrb.w	r3, [r0, #628]	; 0x274
 80039a6:	3b01      	subs	r3, #1
 80039a8:	2b02      	cmp	r3, #2
 80039aa:	d809      	bhi.n	80039c0 <USBD_ClrFeature+0x20>
    if (req->wValue == USB_FEATURE_REMOTE_WAKEUP)
 80039ac:	884b      	ldrh	r3, [r1, #2]
 80039ae:	2b01      	cmp	r3, #1
 80039b0:	d000      	beq.n	80039b4 <USBD_ClrFeature+0x14>
}
 80039b2:	bd08      	pop	{r3, pc}
      pdev->dev_remote_wakeup = 0U;
 80039b4:	2300      	movs	r3, #0
 80039b6:	f8c0 327c 	str.w	r3, [r0, #636]	; 0x27c
      USBD_CtlSendStatus(pdev);
 80039ba:	f000 f9ce 	bl	8003d5a <USBD_CtlSendStatus>
 80039be:	e7f8      	b.n	80039b2 <USBD_ClrFeature+0x12>
     USBD_CtlError(pdev , req);
 80039c0:	f7ff fe7d 	bl	80036be <USBD_CtlError>
}
 80039c4:	e7f5      	b.n	80039b2 <USBD_ClrFeature+0x12>

080039c6 <USBD_StdDevReq>:
{
 80039c6:	b508      	push	{r3, lr}
  switch (req->bmRequest & USB_REQ_TYPE_MASK)
 80039c8:	780b      	ldrb	r3, [r1, #0]
 80039ca:	f003 0360 	and.w	r3, r3, #96	; 0x60
 80039ce:	2b20      	cmp	r3, #32
 80039d0:	d005      	beq.n	80039de <USBD_StdDevReq+0x18>
 80039d2:	2b40      	cmp	r3, #64	; 0x40
 80039d4:	d003      	beq.n	80039de <USBD_StdDevReq+0x18>
 80039d6:	b143      	cbz	r3, 80039ea <USBD_StdDevReq+0x24>
    USBD_CtlError(pdev, req);
 80039d8:	f7ff fe71 	bl	80036be <USBD_CtlError>
    break;
 80039dc:	e003      	b.n	80039e6 <USBD_StdDevReq+0x20>
    pdev->pClass->Setup(pdev, req);
 80039de:	f8d0 328c 	ldr.w	r3, [r0, #652]	; 0x28c
 80039e2:	689b      	ldr	r3, [r3, #8]
 80039e4:	4798      	blx	r3
}
 80039e6:	2000      	movs	r0, #0
 80039e8:	bd08      	pop	{r3, pc}
    switch (req->bRequest)
 80039ea:	784b      	ldrb	r3, [r1, #1]
 80039ec:	2b09      	cmp	r3, #9
 80039ee:	d81b      	bhi.n	8003a28 <USBD_StdDevReq+0x62>
 80039f0:	e8df f003 	tbb	[pc, r3]
 80039f4:	141a1711 	.word	0x141a1711
 80039f8:	1a05081a 	.word	0x1a05081a
 80039fc:	0b0e      	.short	0x0b0e
      USBD_GetDescriptor (pdev, req);
 80039fe:	f7ff fe68 	bl	80036d2 <USBD_GetDescriptor>
      break;
 8003a02:	e7f0      	b.n	80039e6 <USBD_StdDevReq+0x20>
      USBD_SetAddress (pdev, req);
 8003a04:	f7ff ff12 	bl	800382c <USBD_SetAddress>
      break;
 8003a08:	e7ed      	b.n	80039e6 <USBD_StdDevReq+0x20>
      USBD_SetConfig (pdev, req);
 8003a0a:	f7ff ff37 	bl	800387c <USBD_SetConfig>
      break;
 8003a0e:	e7ea      	b.n	80039e6 <USBD_StdDevReq+0x20>
      USBD_GetConfig (pdev, req);
 8003a10:	f7ff ff8c 	bl	800392c <USBD_GetConfig>
      break;
 8003a14:	e7e7      	b.n	80039e6 <USBD_StdDevReq+0x20>
      USBD_GetStatus (pdev, req);
 8003a16:	f7ff ffa7 	bl	8003968 <USBD_GetStatus>
      break;
 8003a1a:	e7e4      	b.n	80039e6 <USBD_StdDevReq+0x20>
      USBD_SetFeature (pdev, req);
 8003a1c:	f7ff fe31 	bl	8003682 <USBD_SetFeature>
      break;
 8003a20:	e7e1      	b.n	80039e6 <USBD_StdDevReq+0x20>
      USBD_ClrFeature (pdev, req);
 8003a22:	f7ff ffbd 	bl	80039a0 <USBD_ClrFeature>
      break;
 8003a26:	e7de      	b.n	80039e6 <USBD_StdDevReq+0x20>
      USBD_CtlError(pdev, req);
 8003a28:	f7ff fe49 	bl	80036be <USBD_CtlError>
      break;
 8003a2c:	e7db      	b.n	80039e6 <USBD_StdDevReq+0x20>

08003a2e <USBD_StdItfReq>:
{
 8003a2e:	b538      	push	{r3, r4, r5, lr}
 8003a30:	4605      	mov	r5, r0
 8003a32:	460c      	mov	r4, r1
  switch (req->bmRequest & USB_REQ_TYPE_MASK)
 8003a34:	780b      	ldrb	r3, [r1, #0]
 8003a36:	f003 0360 	and.w	r3, r3, #96	; 0x60
 8003a3a:	2b20      	cmp	r3, #32
 8003a3c:	d006      	beq.n	8003a4c <USBD_StdItfReq+0x1e>
 8003a3e:	2b40      	cmp	r3, #64	; 0x40
 8003a40:	d004      	beq.n	8003a4c <USBD_StdItfReq+0x1e>
 8003a42:	b11b      	cbz	r3, 8003a4c <USBD_StdItfReq+0x1e>
    USBD_CtlError(pdev, req);
 8003a44:	f7ff fe3b 	bl	80036be <USBD_CtlError>
}
 8003a48:	2000      	movs	r0, #0
 8003a4a:	bd38      	pop	{r3, r4, r5, pc}
    switch (pdev->dev_state)
 8003a4c:	f895 3274 	ldrb.w	r3, [r5, #628]	; 0x274
 8003a50:	3b01      	subs	r3, #1
 8003a52:	2b02      	cmp	r3, #2
 8003a54:	d816      	bhi.n	8003a84 <USBD_StdItfReq+0x56>
      if (LOBYTE(req->wIndex) <= USBD_MAX_NUM_INTERFACES)
 8003a56:	7923      	ldrb	r3, [r4, #4]
 8003a58:	2b01      	cmp	r3, #1
 8003a5a:	d80e      	bhi.n	8003a7a <USBD_StdItfReq+0x4c>
        ret = (USBD_StatusTypeDef)pdev->pClass->Setup (pdev, req);
 8003a5c:	f8d5 328c 	ldr.w	r3, [r5, #652]	; 0x28c
 8003a60:	689b      	ldr	r3, [r3, #8]
 8003a62:	4621      	mov	r1, r4
 8003a64:	4628      	mov	r0, r5
 8003a66:	4798      	blx	r3
        if ((req->wLength == 0U) && (ret == USBD_OK))
 8003a68:	88e3      	ldrh	r3, [r4, #6]
 8003a6a:	2b00      	cmp	r3, #0
 8003a6c:	d1ec      	bne.n	8003a48 <USBD_StdItfReq+0x1a>
 8003a6e:	2800      	cmp	r0, #0
 8003a70:	d1ea      	bne.n	8003a48 <USBD_StdItfReq+0x1a>
          USBD_CtlSendStatus(pdev);
 8003a72:	4628      	mov	r0, r5
 8003a74:	f000 f971 	bl	8003d5a <USBD_CtlSendStatus>
 8003a78:	e7e6      	b.n	8003a48 <USBD_StdItfReq+0x1a>
        USBD_CtlError(pdev, req);
 8003a7a:	4621      	mov	r1, r4
 8003a7c:	4628      	mov	r0, r5
 8003a7e:	f7ff fe1e 	bl	80036be <USBD_CtlError>
 8003a82:	e7e1      	b.n	8003a48 <USBD_StdItfReq+0x1a>
      USBD_CtlError(pdev, req);
 8003a84:	4621      	mov	r1, r4
 8003a86:	4628      	mov	r0, r5
 8003a88:	f7ff fe19 	bl	80036be <USBD_CtlError>
      break;
 8003a8c:	e7dc      	b.n	8003a48 <USBD_StdItfReq+0x1a>

08003a8e <USBD_StdEPReq>:
{
 8003a8e:	b538      	push	{r3, r4, r5, lr}
 8003a90:	4604      	mov	r4, r0
  ep_addr  = LOBYTE(req->wIndex);
 8003a92:	888a      	ldrh	r2, [r1, #4]
  switch (req->bmRequest & USB_REQ_TYPE_MASK)
 8003a94:	780b      	ldrb	r3, [r1, #0]
 8003a96:	f003 0360 	and.w	r3, r3, #96	; 0x60
 8003a9a:	2b20      	cmp	r3, #32
 8003a9c:	d008      	beq.n	8003ab0 <USBD_StdEPReq+0x22>
 8003a9e:	b2d0      	uxtb	r0, r2
 8003aa0:	2b40      	cmp	r3, #64	; 0x40
 8003aa2:	d005      	beq.n	8003ab0 <USBD_StdEPReq+0x22>
 8003aa4:	b15b      	cbz	r3, 8003abe <USBD_StdEPReq+0x30>
    USBD_CtlError(pdev, req);
 8003aa6:	4620      	mov	r0, r4
 8003aa8:	f7ff fe09 	bl	80036be <USBD_CtlError>
  return ret;
 8003aac:	2000      	movs	r0, #0
    break;
 8003aae:	e005      	b.n	8003abc <USBD_StdEPReq+0x2e>
    pdev->pClass->Setup (pdev, req);
 8003ab0:	f8d4 328c 	ldr.w	r3, [r4, #652]	; 0x28c
 8003ab4:	689b      	ldr	r3, [r3, #8]
 8003ab6:	4620      	mov	r0, r4
 8003ab8:	4798      	blx	r3
  return ret;
 8003aba:	2000      	movs	r0, #0
}
 8003abc:	bd38      	pop	{r3, r4, r5, pc}
    if ((req->bmRequest & 0x60U) == 0x20U)
 8003abe:	2b20      	cmp	r3, #32
 8003ac0:	d105      	bne.n	8003ace <USBD_StdEPReq+0x40>
      ret = (USBD_StatusTypeDef)pdev->pClass->Setup (pdev, req);
 8003ac2:	f8d4 328c 	ldr.w	r3, [r4, #652]	; 0x28c
 8003ac6:	689b      	ldr	r3, [r3, #8]
 8003ac8:	4620      	mov	r0, r4
 8003aca:	4798      	blx	r3
      return ret;
 8003acc:	e7f6      	b.n	8003abc <USBD_StdEPReq+0x2e>
    switch (req->bRequest)
 8003ace:	784b      	ldrb	r3, [r1, #1]
 8003ad0:	2b01      	cmp	r3, #1
 8003ad2:	d03c      	beq.n	8003b4e <USBD_StdEPReq+0xc0>
 8003ad4:	2b00      	cmp	r3, #0
 8003ad6:	d06d      	beq.n	8003bb4 <USBD_StdEPReq+0x126>
 8003ad8:	2b03      	cmp	r3, #3
 8003ada:	f040 80ef 	bne.w	8003cbc <USBD_StdEPReq+0x22e>
      switch (pdev->dev_state)
 8003ade:	f894 3274 	ldrb.w	r3, [r4, #628]	; 0x274
 8003ae2:	2b02      	cmp	r3, #2
 8003ae4:	d006      	beq.n	8003af4 <USBD_StdEPReq+0x66>
 8003ae6:	2b03      	cmp	r3, #3
 8003ae8:	d01b      	beq.n	8003b22 <USBD_StdEPReq+0x94>
        USBD_CtlError(pdev, req);
 8003aea:	4620      	mov	r0, r4
 8003aec:	f7ff fde7 	bl	80036be <USBD_CtlError>
  return ret;
 8003af0:	2000      	movs	r0, #0
        break;
 8003af2:	e7e3      	b.n	8003abc <USBD_StdEPReq+0x2e>
        if ((ep_addr != 0x00U) && (ep_addr != 0x80U))
 8003af4:	f1b0 0380 	subs.w	r3, r0, #128	; 0x80
 8003af8:	bf18      	it	ne
 8003afa:	2301      	movne	r3, #1
 8003afc:	2800      	cmp	r0, #0
 8003afe:	bf08      	it	eq
 8003b00:	2300      	moveq	r3, #0
 8003b02:	b14b      	cbz	r3, 8003b18 <USBD_StdEPReq+0x8a>
          USBD_LL_StallEP(pdev, ep_addr);
 8003b04:	4601      	mov	r1, r0
 8003b06:	4620      	mov	r0, r4
 8003b08:	f000 fd52 	bl	80045b0 <USBD_LL_StallEP>
          USBD_LL_StallEP(pdev, 0x80U);
 8003b0c:	2180      	movs	r1, #128	; 0x80
 8003b0e:	4620      	mov	r0, r4
 8003b10:	f000 fd4e 	bl	80045b0 <USBD_LL_StallEP>
  return ret;
 8003b14:	2000      	movs	r0, #0
 8003b16:	e7d1      	b.n	8003abc <USBD_StdEPReq+0x2e>
          USBD_CtlError(pdev, req);
 8003b18:	4620      	mov	r0, r4
 8003b1a:	f7ff fdd0 	bl	80036be <USBD_CtlError>
  return ret;
 8003b1e:	2000      	movs	r0, #0
 8003b20:	e7cc      	b.n	8003abc <USBD_StdEPReq+0x2e>
        if (req->wValue == USB_FEATURE_EP_HALT)
 8003b22:	884b      	ldrh	r3, [r1, #2]
 8003b24:	b94b      	cbnz	r3, 8003b3a <USBD_StdEPReq+0xac>
          if ((ep_addr != 0x00U) && (ep_addr != 0x80U) && (req->wLength == 0x00U))
 8003b26:	f1b0 0380 	subs.w	r3, r0, #128	; 0x80
 8003b2a:	bf18      	it	ne
 8003b2c:	2301      	movne	r3, #1
 8003b2e:	2800      	cmp	r0, #0
 8003b30:	bf08      	it	eq
 8003b32:	2300      	moveq	r3, #0
 8003b34:	b10b      	cbz	r3, 8003b3a <USBD_StdEPReq+0xac>
 8003b36:	88cb      	ldrh	r3, [r1, #6]
 8003b38:	b123      	cbz	r3, 8003b44 <USBD_StdEPReq+0xb6>
        USBD_CtlSendStatus(pdev);
 8003b3a:	4620      	mov	r0, r4
 8003b3c:	f000 f90d 	bl	8003d5a <USBD_CtlSendStatus>
  return ret;
 8003b40:	2000      	movs	r0, #0
        break;
 8003b42:	e7bb      	b.n	8003abc <USBD_StdEPReq+0x2e>
            USBD_LL_StallEP(pdev, ep_addr);
 8003b44:	4601      	mov	r1, r0
 8003b46:	4620      	mov	r0, r4
 8003b48:	f000 fd32 	bl	80045b0 <USBD_LL_StallEP>
 8003b4c:	e7f5      	b.n	8003b3a <USBD_StdEPReq+0xac>
      switch (pdev->dev_state)
 8003b4e:	f894 3274 	ldrb.w	r3, [r4, #628]	; 0x274
 8003b52:	2b02      	cmp	r3, #2
 8003b54:	d006      	beq.n	8003b64 <USBD_StdEPReq+0xd6>
 8003b56:	2b03      	cmp	r3, #3
 8003b58:	d01b      	beq.n	8003b92 <USBD_StdEPReq+0x104>
        USBD_CtlError(pdev, req);
 8003b5a:	4620      	mov	r0, r4
 8003b5c:	f7ff fdaf 	bl	80036be <USBD_CtlError>
  return ret;
 8003b60:	2000      	movs	r0, #0
        break;
 8003b62:	e7ab      	b.n	8003abc <USBD_StdEPReq+0x2e>
        if ((ep_addr != 0x00U) && (ep_addr != 0x80U))
 8003b64:	f1b0 0380 	subs.w	r3, r0, #128	; 0x80
 8003b68:	bf18      	it	ne
 8003b6a:	2301      	movne	r3, #1
 8003b6c:	2800      	cmp	r0, #0
 8003b6e:	bf08      	it	eq
 8003b70:	2300      	moveq	r3, #0
 8003b72:	b14b      	cbz	r3, 8003b88 <USBD_StdEPReq+0xfa>
          USBD_LL_StallEP(pdev, ep_addr);
 8003b74:	4601      	mov	r1, r0
 8003b76:	4620      	mov	r0, r4
 8003b78:	f000 fd1a 	bl	80045b0 <USBD_LL_StallEP>
          USBD_LL_StallEP(pdev, 0x80U);
 8003b7c:	2180      	movs	r1, #128	; 0x80
 8003b7e:	4620      	mov	r0, r4
 8003b80:	f000 fd16 	bl	80045b0 <USBD_LL_StallEP>
  return ret;
 8003b84:	2000      	movs	r0, #0
 8003b86:	e799      	b.n	8003abc <USBD_StdEPReq+0x2e>
          USBD_CtlError(pdev, req);
 8003b88:	4620      	mov	r0, r4
 8003b8a:	f7ff fd98 	bl	80036be <USBD_CtlError>
  return ret;
 8003b8e:	2000      	movs	r0, #0
 8003b90:	e794      	b.n	8003abc <USBD_StdEPReq+0x2e>
        if (req->wValue == USB_FEATURE_EP_HALT)
 8003b92:	884b      	ldrh	r3, [r1, #2]
 8003b94:	2b00      	cmp	r3, #0
 8003b96:	f040 8096 	bne.w	8003cc6 <USBD_StdEPReq+0x238>
          if ((ep_addr & 0x7FU) != 0x00U)
 8003b9a:	f010 0f7f 	tst.w	r0, #127	; 0x7f
 8003b9e:	d104      	bne.n	8003baa <USBD_StdEPReq+0x11c>
          USBD_CtlSendStatus(pdev);
 8003ba0:	4620      	mov	r0, r4
 8003ba2:	f000 f8da 	bl	8003d5a <USBD_CtlSendStatus>
  return ret;
 8003ba6:	2000      	movs	r0, #0
 8003ba8:	e788      	b.n	8003abc <USBD_StdEPReq+0x2e>
            USBD_LL_ClearStallEP(pdev, ep_addr);
 8003baa:	4601      	mov	r1, r0
 8003bac:	4620      	mov	r0, r4
 8003bae:	f000 fd07 	bl	80045c0 <USBD_LL_ClearStallEP>
 8003bb2:	e7f5      	b.n	8003ba0 <USBD_StdEPReq+0x112>
      switch (pdev->dev_state)
 8003bb4:	f894 3274 	ldrb.w	r3, [r4, #628]	; 0x274
 8003bb8:	2b02      	cmp	r3, #2
 8003bba:	d006      	beq.n	8003bca <USBD_StdEPReq+0x13c>
 8003bbc:	2b03      	cmp	r3, #3
 8003bbe:	d02e      	beq.n	8003c1e <USBD_StdEPReq+0x190>
        USBD_CtlError(pdev, req);
 8003bc0:	4620      	mov	r0, r4
 8003bc2:	f7ff fd7c 	bl	80036be <USBD_CtlError>
  return ret;
 8003bc6:	2000      	movs	r0, #0
        break;
 8003bc8:	e778      	b.n	8003abc <USBD_StdEPReq+0x2e>
        if ((ep_addr != 0x00U) && (ep_addr != 0x80U))
 8003bca:	f1b0 0380 	subs.w	r3, r0, #128	; 0x80
 8003bce:	bf18      	it	ne
 8003bd0:	2301      	movne	r3, #1
 8003bd2:	2800      	cmp	r0, #0
 8003bd4:	bf08      	it	eq
 8003bd6:	2300      	moveq	r3, #0
 8003bd8:	b993      	cbnz	r3, 8003c00 <USBD_StdEPReq+0x172>
        pep = ((ep_addr & 0x80U) == 0x80U) ? &pdev->ep_in[ep_addr & 0x7FU]:\
 8003bda:	f012 0f80 	tst.w	r2, #128	; 0x80
 8003bde:	d114      	bne.n	8003c0a <USBD_StdEPReq+0x17c>
          &pdev->ep_out[ep_addr & 0x7FU];
 8003be0:	f000 007f 	and.w	r0, r0, #127	; 0x7f
        pep = ((ep_addr & 0x80U) == 0x80U) ? &pdev->ep_in[ep_addr & 0x7FU]:\
 8003be4:	eb00 0080 	add.w	r0, r0, r0, lsl #2
 8003be8:	0083      	lsls	r3, r0, #2
 8003bea:	f503 73a0 	add.w	r3, r3, #320	; 0x140
 8003bee:	18e1      	adds	r1, r4, r3
          pep->status = 0x0000U;
 8003bf0:	2500      	movs	r5, #0
 8003bf2:	600d      	str	r5, [r1, #0]
          USBD_CtlSendData (pdev, (uint8_t *)(void *)&pep->status, 2U);
 8003bf4:	2202      	movs	r2, #2
 8003bf6:	4620      	mov	r0, r4
 8003bf8:	f000 f883 	bl	8003d02 <USBD_CtlSendData>
  return ret;
 8003bfc:	4628      	mov	r0, r5
          break;
 8003bfe:	e75d      	b.n	8003abc <USBD_StdEPReq+0x2e>
          USBD_CtlError(pdev, req);
 8003c00:	4620      	mov	r0, r4
 8003c02:	f7ff fd5c 	bl	80036be <USBD_CtlError>
  return ret;
 8003c06:	2000      	movs	r0, #0
          break;
 8003c08:	e758      	b.n	8003abc <USBD_StdEPReq+0x2e>
        pep = ((ep_addr & 0x80U) == 0x80U) ? &pdev->ep_in[ep_addr & 0x7FU]:\
 8003c0a:	f000 007f 	and.w	r0, r0, #127	; 0x7f
 8003c0e:	eb00 0080 	add.w	r0, r0, r0, lsl #2
 8003c12:	0083      	lsls	r3, r0, #2
 8003c14:	f103 0110 	add.w	r1, r3, #16
 8003c18:	4421      	add	r1, r4
 8003c1a:	3104      	adds	r1, #4
 8003c1c:	e7e8      	b.n	8003bf0 <USBD_StdEPReq+0x162>
        if((ep_addr & 0x80U) == 0x80U)
 8003c1e:	b252      	sxtb	r2, r2
 8003c20:	2a00      	cmp	r2, #0
 8003c22:	db23      	blt.n	8003c6c <USBD_StdEPReq+0x1de>
          if (pdev->ep_out[ep_addr & 0xFU].is_used == 0U)
 8003c24:	f000 030f 	and.w	r3, r0, #15
 8003c28:	eb03 0383 	add.w	r3, r3, r3, lsl #2
 8003c2c:	009d      	lsls	r5, r3, #2
 8003c2e:	4425      	add	r5, r4
 8003c30:	f8d5 3144 	ldr.w	r3, [r5, #324]	; 0x144
 8003c34:	b343      	cbz	r3, 8003c88 <USBD_StdEPReq+0x1fa>
        pep = ((ep_addr & 0x80U) == 0x80U) ? &pdev->ep_in[ep_addr & 0x7FU]:\
 8003c36:	2a00      	cmp	r2, #0
 8003c38:	db2b      	blt.n	8003c92 <USBD_StdEPReq+0x204>
          &pdev->ep_out[ep_addr & 0x7FU];
 8003c3a:	f000 027f 	and.w	r2, r0, #127	; 0x7f
        pep = ((ep_addr & 0x80U) == 0x80U) ? &pdev->ep_in[ep_addr & 0x7FU]:\
 8003c3e:	eb02 0282 	add.w	r2, r2, r2, lsl #2
 8003c42:	0093      	lsls	r3, r2, #2
 8003c44:	f503 73a0 	add.w	r3, r3, #320	; 0x140
 8003c48:	18e5      	adds	r5, r4, r3
          if ((ep_addr == 0x00U) || (ep_addr == 0x80U))
 8003c4a:	2880      	cmp	r0, #128	; 0x80
 8003c4c:	bf14      	ite	ne
 8003c4e:	2300      	movne	r3, #0
 8003c50:	2301      	moveq	r3, #1
 8003c52:	2800      	cmp	r0, #0
 8003c54:	bf08      	it	eq
 8003c56:	2301      	moveq	r3, #1
 8003c58:	b32b      	cbz	r3, 8003ca6 <USBD_StdEPReq+0x218>
            pep->status = 0x0000U;
 8003c5a:	2300      	movs	r3, #0
 8003c5c:	602b      	str	r3, [r5, #0]
          USBD_CtlSendData (pdev, (uint8_t *)(void *)&pep->status, 2U);
 8003c5e:	2202      	movs	r2, #2
 8003c60:	4629      	mov	r1, r5
 8003c62:	4620      	mov	r0, r4
 8003c64:	f000 f84d 	bl	8003d02 <USBD_CtlSendData>
  return ret;
 8003c68:	2000      	movs	r0, #0
          break;
 8003c6a:	e727      	b.n	8003abc <USBD_StdEPReq+0x2e>
          if (pdev->ep_in[ep_addr & 0xFU].is_used == 0U)
 8003c6c:	f000 030f 	and.w	r3, r0, #15
 8003c70:	eb03 0383 	add.w	r3, r3, r3, lsl #2
 8003c74:	009d      	lsls	r5, r3, #2
 8003c76:	4425      	add	r5, r4
 8003c78:	69ab      	ldr	r3, [r5, #24]
 8003c7a:	2b00      	cmp	r3, #0
 8003c7c:	d1db      	bne.n	8003c36 <USBD_StdEPReq+0x1a8>
            USBD_CtlError(pdev, req);
 8003c7e:	4620      	mov	r0, r4
 8003c80:	f7ff fd1d 	bl	80036be <USBD_CtlError>
  return ret;
 8003c84:	2000      	movs	r0, #0
            break;
 8003c86:	e719      	b.n	8003abc <USBD_StdEPReq+0x2e>
            USBD_CtlError(pdev, req);
 8003c88:	4620      	mov	r0, r4
 8003c8a:	f7ff fd18 	bl	80036be <USBD_CtlError>
  return ret;
 8003c8e:	2000      	movs	r0, #0
            break;
 8003c90:	e714      	b.n	8003abc <USBD_StdEPReq+0x2e>
        pep = ((ep_addr & 0x80U) == 0x80U) ? &pdev->ep_in[ep_addr & 0x7FU]:\
 8003c92:	f000 027f 	and.w	r2, r0, #127	; 0x7f
 8003c96:	eb02 0282 	add.w	r2, r2, r2, lsl #2
 8003c9a:	0093      	lsls	r3, r2, #2
 8003c9c:	f103 0510 	add.w	r5, r3, #16
 8003ca0:	4425      	add	r5, r4
 8003ca2:	3504      	adds	r5, #4
 8003ca4:	e7d1      	b.n	8003c4a <USBD_StdEPReq+0x1bc>
          else if(USBD_LL_IsStallEP(pdev, ep_addr))
 8003ca6:	4601      	mov	r1, r0
 8003ca8:	4620      	mov	r0, r4
 8003caa:	f000 fc0d 	bl	80044c8 <USBD_LL_IsStallEP>
 8003cae:	b110      	cbz	r0, 8003cb6 <USBD_StdEPReq+0x228>
            pep->status = 0x0001U;
 8003cb0:	2301      	movs	r3, #1
 8003cb2:	602b      	str	r3, [r5, #0]
 8003cb4:	e7d3      	b.n	8003c5e <USBD_StdEPReq+0x1d0>
            pep->status = 0x0000U;
 8003cb6:	2300      	movs	r3, #0
 8003cb8:	602b      	str	r3, [r5, #0]
 8003cba:	e7d0      	b.n	8003c5e <USBD_StdEPReq+0x1d0>
      USBD_CtlError(pdev, req);
 8003cbc:	4620      	mov	r0, r4
 8003cbe:	f7ff fcfe 	bl	80036be <USBD_CtlError>
  return ret;
 8003cc2:	2000      	movs	r0, #0
      break;
 8003cc4:	e6fa      	b.n	8003abc <USBD_StdEPReq+0x2e>
  return ret;
 8003cc6:	2000      	movs	r0, #0
 8003cc8:	e6f8      	b.n	8003abc <USBD_StdEPReq+0x2e>

08003cca <USBD_GetString>:
  if (desc != NULL)
 8003cca:	b1c8      	cbz	r0, 8003d00 <USBD_GetString+0x36>
{
 8003ccc:	b570      	push	{r4, r5, r6, lr}
 8003cce:	460d      	mov	r5, r1
 8003cd0:	4616      	mov	r6, r2
 8003cd2:	4604      	mov	r4, r0
    *len = (uint16_t)USBD_GetLen(desc) * 2U + 2U;
 8003cd4:	f7ff fccb 	bl	800366e <USBD_GetLen>
 8003cd8:	3001      	adds	r0, #1
 8003cda:	0040      	lsls	r0, r0, #1
 8003cdc:	8030      	strh	r0, [r6, #0]
    unicode[idx++] = *(uint8_t *)(void *)len;
 8003cde:	7028      	strb	r0, [r5, #0]
    unicode[idx++] = USB_DESC_TYPE_STRING;
 8003ce0:	2303      	movs	r3, #3
 8003ce2:	706b      	strb	r3, [r5, #1]
 8003ce4:	2302      	movs	r3, #2
    while (*desc != '\0')
 8003ce6:	e007      	b.n	8003cf8 <USBD_GetString+0x2e>
      unicode[idx++] = *desc++;
 8003ce8:	3401      	adds	r4, #1
 8003cea:	1c5a      	adds	r2, r3, #1
 8003cec:	b2d2      	uxtb	r2, r2
 8003cee:	54e9      	strb	r1, [r5, r3]
      unicode[idx++] =  0U;
 8003cf0:	3302      	adds	r3, #2
 8003cf2:	b2db      	uxtb	r3, r3
 8003cf4:	2100      	movs	r1, #0
 8003cf6:	54a9      	strb	r1, [r5, r2]
    while (*desc != '\0')
 8003cf8:	7821      	ldrb	r1, [r4, #0]
 8003cfa:	2900      	cmp	r1, #0
 8003cfc:	d1f4      	bne.n	8003ce8 <USBD_GetString+0x1e>
}
 8003cfe:	bd70      	pop	{r4, r5, r6, pc}
 8003d00:	4770      	bx	lr

08003d02 <USBD_CtlSendData>:
* @param  len: length of data to be sent
* @retval status
*/
USBD_StatusTypeDef USBD_CtlSendData (USBD_HandleTypeDef *pdev, uint8_t *pbuf,
                                     uint16_t len)
{
 8003d02:	b510      	push	{r4, lr}
 8003d04:	4613      	mov	r3, r2
  /* Set EP0 State */
  pdev->ep0_state = USBD_EP0_DATA_IN;
 8003d06:	2202      	movs	r2, #2
 8003d08:	f8c0 226c 	str.w	r2, [r0, #620]	; 0x26c
  pdev->ep_in[0].total_length = len;
 8003d0c:	61c3      	str	r3, [r0, #28]
  pdev->ep_in[0].rem_length   = len;
 8003d0e:	6203      	str	r3, [r0, #32]

 /* Start the transfer */
  USBD_LL_Transmit (pdev, 0x00U, pbuf, len);
 8003d10:	460a      	mov	r2, r1
 8003d12:	2100      	movs	r1, #0
 8003d14:	f000 fc64 	bl	80045e0 <USBD_LL_Transmit>

  return USBD_OK;
}
 8003d18:	2000      	movs	r0, #0
 8003d1a:	bd10      	pop	{r4, pc}

08003d1c <USBD_CtlContinueSendData>:
* @param  len: length of data to be sent
* @retval status
*/
USBD_StatusTypeDef USBD_CtlContinueSendData (USBD_HandleTypeDef *pdev,
                                             uint8_t *pbuf, uint16_t len)
{
 8003d1c:	b508      	push	{r3, lr}
 /* Start the next transfer */
  USBD_LL_Transmit (pdev, 0x00U, pbuf, len);
 8003d1e:	4613      	mov	r3, r2
 8003d20:	460a      	mov	r2, r1
 8003d22:	2100      	movs	r1, #0
 8003d24:	f000 fc5c 	bl	80045e0 <USBD_LL_Transmit>

  return USBD_OK;
}
 8003d28:	2000      	movs	r0, #0
 8003d2a:	bd08      	pop	{r3, pc}

08003d2c <USBD_CtlPrepareRx>:
* @param  len: length of data to be received
* @retval status
*/
USBD_StatusTypeDef USBD_CtlPrepareRx (USBD_HandleTypeDef *pdev, uint8_t *pbuf,
                                      uint16_t len)
{
 8003d2c:	b510      	push	{r4, lr}
 8003d2e:	4613      	mov	r3, r2
  /* Set EP0 State */
  pdev->ep0_state = USBD_EP0_DATA_OUT;
 8003d30:	2203      	movs	r2, #3
 8003d32:	f8c0 226c 	str.w	r2, [r0, #620]	; 0x26c
  pdev->ep_out[0].total_length = len;
 8003d36:	f8c0 3148 	str.w	r3, [r0, #328]	; 0x148
  pdev->ep_out[0].rem_length   = len;
 8003d3a:	f8c0 314c 	str.w	r3, [r0, #332]	; 0x14c

  /* Start the transfer */
  USBD_LL_PrepareReceive (pdev, 0U, pbuf, len);
 8003d3e:	460a      	mov	r2, r1
 8003d40:	2100      	movs	r1, #0
 8003d42:	f000 fc55 	bl	80045f0 <USBD_LL_PrepareReceive>

  return USBD_OK;
}
 8003d46:	2000      	movs	r0, #0
 8003d48:	bd10      	pop	{r4, pc}

08003d4a <USBD_CtlContinueRx>:
* @param  len: length of data to be received
* @retval status
*/
USBD_StatusTypeDef USBD_CtlContinueRx (USBD_HandleTypeDef *pdev, uint8_t *pbuf,
                                       uint16_t len)
{
 8003d4a:	b508      	push	{r3, lr}
  USBD_LL_PrepareReceive(pdev, 0U, pbuf, len);
 8003d4c:	4613      	mov	r3, r2
 8003d4e:	460a      	mov	r2, r1
 8003d50:	2100      	movs	r1, #0
 8003d52:	f000 fc4d 	bl	80045f0 <USBD_LL_PrepareReceive>

  return USBD_OK;
}
 8003d56:	2000      	movs	r0, #0
 8003d58:	bd08      	pop	{r3, pc}

08003d5a <USBD_CtlSendStatus>:
*         send zero lzngth packet on the ctl pipe
* @param  pdev: device instance
* @retval status
*/
USBD_StatusTypeDef USBD_CtlSendStatus (USBD_HandleTypeDef *pdev)
{
 8003d5a:	b508      	push	{r3, lr}
  /* Set EP0 State */
  pdev->ep0_state = USBD_EP0_STATUS_IN;
 8003d5c:	2304      	movs	r3, #4
 8003d5e:	f8c0 326c 	str.w	r3, [r0, #620]	; 0x26c

  /* Start the transfer */
  USBD_LL_Transmit(pdev, 0x00U, NULL, 0U);
 8003d62:	2300      	movs	r3, #0
 8003d64:	461a      	mov	r2, r3
 8003d66:	4619      	mov	r1, r3
 8003d68:	f000 fc3a 	bl	80045e0 <USBD_LL_Transmit>

  return USBD_OK;
}
 8003d6c:	2000      	movs	r0, #0
 8003d6e:	bd08      	pop	{r3, pc}

08003d70 <USBD_CtlReceiveStatus>:
*         receive zero lzngth packet on the ctl pipe
* @param  pdev: device instance
* @retval status
*/
USBD_StatusTypeDef USBD_CtlReceiveStatus (USBD_HandleTypeDef *pdev)
{
 8003d70:	b508      	push	{r3, lr}
  /* Set EP0 State */
  pdev->ep0_state = USBD_EP0_STATUS_OUT;
 8003d72:	2305      	movs	r3, #5
 8003d74:	f8c0 326c 	str.w	r3, [r0, #620]	; 0x26c

 /* Start the transfer */
  USBD_LL_PrepareReceive (pdev, 0U, NULL, 0U);
 8003d78:	2300      	movs	r3, #0
 8003d7a:	461a      	mov	r2, r3
 8003d7c:	4619      	mov	r1, r3
 8003d7e:	f000 fc37 	bl	80045f0 <USBD_LL_PrepareReceive>

  return USBD_OK;
}
 8003d82:	2000      	movs	r0, #0
 8003d84:	bd08      	pop	{r3, pc}
	...

08003d88 <MX_GPIO_Init>:
  * @brief GPIO Initialization Function
  * @param None
  * @retval None
  */
static void MX_GPIO_Init(void)
{
 8003d88:	b5f0      	push	{r4, r5, r6, r7, lr}
 8003d8a:	b08d      	sub	sp, #52	; 0x34
  GPIO_InitTypeDef GPIO_InitStruct = {0};
 8003d8c:	2400      	movs	r4, #0
 8003d8e:	9407      	str	r4, [sp, #28]
 8003d90:	9408      	str	r4, [sp, #32]
 8003d92:	9409      	str	r4, [sp, #36]	; 0x24
 8003d94:	940a      	str	r4, [sp, #40]	; 0x28
 8003d96:	940b      	str	r4, [sp, #44]	; 0x2c

  /* GPIO Ports Clock Enable */
  __HAL_RCC_GPIOC_CLK_ENABLE();
 8003d98:	4b35      	ldr	r3, [pc, #212]	; (8003e70 <MX_GPIO_Init+0xe8>)
 8003d9a:	6b1a      	ldr	r2, [r3, #48]	; 0x30
 8003d9c:	f042 0204 	orr.w	r2, r2, #4
 8003da0:	631a      	str	r2, [r3, #48]	; 0x30
 8003da2:	6b1a      	ldr	r2, [r3, #48]	; 0x30
 8003da4:	f002 0204 	and.w	r2, r2, #4
 8003da8:	9201      	str	r2, [sp, #4]
 8003daa:	9a01      	ldr	r2, [sp, #4]
  __HAL_RCC_GPIOH_CLK_ENABLE();
 8003dac:	6b1a      	ldr	r2, [r3, #48]	; 0x30
 8003dae:	f042 0280 	orr.w	r2, r2, #128	; 0x80
 8003db2:	631a      	str	r2, [r3, #48]	; 0x30
 8003db4:	6b1a      	ldr	r2, [r3, #48]	; 0x30
 8003db6:	f002 0280 	and.w	r2, r2, #128	; 0x80
 8003dba:	9202      	str	r2, [sp, #8]
 8003dbc:	9a02      	ldr	r2, [sp, #8]
  __HAL_RCC_GPIOB_CLK_ENABLE();
 8003dbe:	6b1a      	ldr	r2, [r3, #48]	; 0x30
 8003dc0:	f042 0202 	orr.w	r2, r2, #2
 8003dc4:	631a      	str	r2, [r3, #48]	; 0x30
 8003dc6:	6b1a      	ldr	r2, [r3, #48]	; 0x30
 8003dc8:	f002 0202 	and.w	r2, r2, #2
 8003dcc:	9203      	str	r2, [sp, #12]
 8003dce:	9a03      	ldr	r2, [sp, #12]
  __HAL_RCC_GPIOD_CLK_ENABLE();
 8003dd0:	6b1a      	ldr	r2, [r3, #48]	; 0x30
 8003dd2:	f042 0208 	orr.w	r2, r2, #8
 8003dd6:	631a      	str	r2, [r3, #48]	; 0x30
 8003dd8:	6b1a      	ldr	r2, [r3, #48]	; 0x30
 8003dda:	f002 0208 	and.w	r2, r2, #8
 8003dde:	9204      	str	r2, [sp, #16]
 8003de0:	9a04      	ldr	r2, [sp, #16]
  __HAL_RCC_GPIOG_CLK_ENABLE();
 8003de2:	6b1a      	ldr	r2, [r3, #48]	; 0x30
 8003de4:	f042 0240 	orr.w	r2, r2, #64	; 0x40
 8003de8:	631a      	str	r2, [r3, #48]	; 0x30
 8003dea:	6b1a      	ldr	r2, [r3, #48]	; 0x30
 8003dec:	f002 0240 	and.w	r2, r2, #64	; 0x40
 8003df0:	9205      	str	r2, [sp, #20]
 8003df2:	9a05      	ldr	r2, [sp, #20]
  __HAL_RCC_GPIOA_CLK_ENABLE();
 8003df4:	6b1a      	ldr	r2, [r3, #48]	; 0x30
 8003df6:	f042 0201 	orr.w	r2, r2, #1
 8003dfa:	631a      	str	r2, [r3, #48]	; 0x30
 8003dfc:	6b1b      	ldr	r3, [r3, #48]	; 0x30
 8003dfe:	f003 0301 	and.w	r3, r3, #1
 8003e02:	9306      	str	r3, [sp, #24]
 8003e04:	9b06      	ldr	r3, [sp, #24]

  /*Configure GPIO pin Output Level */
  HAL_GPIO_WritePin(GPIOB, LD1_Pin|LD3_Pin|LD2_Pin, GPIO_PIN_RESET);
 8003e06:	4f1b      	ldr	r7, [pc, #108]	; (8003e74 <MX_GPIO_Init+0xec>)
 8003e08:	4622      	mov	r2, r4
 8003e0a:	f244 0181 	movw	r1, #16513	; 0x4081
 8003e0e:	4638      	mov	r0, r7
 8003e10:	f7fc fd80 	bl	8000914 <HAL_GPIO_WritePin>

  /*Configure GPIO pin Output Level */
  HAL_GPIO_WritePin(USB_PowerSwitchOn_GPIO_Port, USB_PowerSwitchOn_Pin, GPIO_PIN_RESET);
 8003e14:	4d18      	ldr	r5, [pc, #96]	; (8003e78 <MX_GPIO_Init+0xf0>)
 8003e16:	4622      	mov	r2, r4
 8003e18:	2140      	movs	r1, #64	; 0x40
 8003e1a:	4628      	mov	r0, r5
 8003e1c:	f7fc fd7a 	bl	8000914 <HAL_GPIO_WritePin>

  /*Configure GPIO pin : USER_Btn_Pin */
  GPIO_InitStruct.Pin = USER_Btn_Pin;
 8003e20:	f44f 5300 	mov.w	r3, #8192	; 0x2000
 8003e24:	9307      	str	r3, [sp, #28]
  GPIO_InitStruct.Mode = GPIO_MODE_IT_RISING;
 8003e26:	4b15      	ldr	r3, [pc, #84]	; (8003e7c <MX_GPIO_Init+0xf4>)
 8003e28:	9308      	str	r3, [sp, #32]
  GPIO_InitStruct.Pull = GPIO_NOPULL;
 8003e2a:	9409      	str	r4, [sp, #36]	; 0x24
  HAL_GPIO_Init(USER_Btn_GPIO_Port, &GPIO_InitStruct);
 8003e2c:	a907      	add	r1, sp, #28
 8003e2e:	4814      	ldr	r0, [pc, #80]	; (8003e80 <MX_GPIO_Init+0xf8>)
 8003e30:	f7fc fc8c 	bl	800074c <HAL_GPIO_Init>

  /*Configure GPIO pins : LD1_Pin LD3_Pin LD2_Pin */
  GPIO_InitStruct.Pin = LD1_Pin|LD3_Pin|LD2_Pin;
 8003e34:	f244 0381 	movw	r3, #16513	; 0x4081
 8003e38:	9307      	str	r3, [sp, #28]
  GPIO_InitStruct.Mode = GPIO_MODE_OUTPUT_PP;
 8003e3a:	2601      	movs	r6, #1
 8003e3c:	9608      	str	r6, [sp, #32]
  GPIO_InitStruct.Pull = GPIO_NOPULL;
 8003e3e:	9409      	str	r4, [sp, #36]	; 0x24
  GPIO_InitStruct.Speed = GPIO_SPEED_FREQ_LOW;
 8003e40:	940a      	str	r4, [sp, #40]	; 0x28
  HAL_GPIO_Init(GPIOB, &GPIO_InitStruct);
 8003e42:	a907      	add	r1, sp, #28
 8003e44:	4638      	mov	r0, r7
 8003e46:	f7fc fc81 	bl	800074c <HAL_GPIO_Init>

  /*Configure GPIO pin : USB_PowerSwitchOn_Pin */
  GPIO_InitStruct.Pin = USB_PowerSwitchOn_Pin;
 8003e4a:	2340      	movs	r3, #64	; 0x40
 8003e4c:	9307      	str	r3, [sp, #28]
  GPIO_InitStruct.Mode = GPIO_MODE_OUTPUT_PP;
 8003e4e:	9608      	str	r6, [sp, #32]
  GPIO_InitStruct.Pull = GPIO_NOPULL;
 8003e50:	9409      	str	r4, [sp, #36]	; 0x24
  GPIO_InitStruct.Speed = GPIO_SPEED_FREQ_LOW;
 8003e52:	940a      	str	r4, [sp, #40]	; 0x28
  HAL_GPIO_Init(USB_PowerSwitchOn_GPIO_Port, &GPIO_InitStruct);
 8003e54:	a907      	add	r1, sp, #28
 8003e56:	4628      	mov	r0, r5
 8003e58:	f7fc fc78 	bl	800074c <HAL_GPIO_Init>

  /*Configure GPIO pin : USB_OverCurrent_Pin */
  GPIO_InitStruct.Pin = USB_OverCurrent_Pin;
 8003e5c:	2380      	movs	r3, #128	; 0x80
 8003e5e:	9307      	str	r3, [sp, #28]
  GPIO_InitStruct.Mode = GPIO_MODE_INPUT;
 8003e60:	9408      	str	r4, [sp, #32]
  GPIO_InitStruct.Pull = GPIO_NOPULL;
 8003e62:	9409      	str	r4, [sp, #36]	; 0x24
  HAL_GPIO_Init(USB_OverCurrent_GPIO_Port, &GPIO_InitStruct);
 8003e64:	a907      	add	r1, sp, #28
 8003e66:	4628      	mov	r0, r5
 8003e68:	f7fc fc70 	bl	800074c <HAL_GPIO_Init>

}
 8003e6c:	b00d      	add	sp, #52	; 0x34
 8003e6e:	bdf0      	pop	{r4, r5, r6, r7, pc}
 8003e70:	40023800 	.word	0x40023800
 8003e74:	40020400 	.word	0x40020400
 8003e78:	40021800 	.word	0x40021800
 8003e7c:	10110000 	.word	0x10110000
 8003e80:	40020800 	.word	0x40020800

08003e84 <MX_USART3_UART_Init>:
{
 8003e84:	b508      	push	{r3, lr}
  huart3.Instance = USART3;
 8003e86:	4809      	ldr	r0, [pc, #36]	; (8003eac <MX_USART3_UART_Init+0x28>)
 8003e88:	4b09      	ldr	r3, [pc, #36]	; (8003eb0 <MX_USART3_UART_Init+0x2c>)
 8003e8a:	6003      	str	r3, [r0, #0]
  huart3.Init.BaudRate = 115200;
 8003e8c:	f44f 33e1 	mov.w	r3, #115200	; 0x1c200
 8003e90:	6043      	str	r3, [r0, #4]
  huart3.Init.WordLength = UART_WORDLENGTH_8B;
 8003e92:	2300      	movs	r3, #0
 8003e94:	6083      	str	r3, [r0, #8]
  huart3.Init.StopBits = UART_STOPBITS_1;
 8003e96:	60c3      	str	r3, [r0, #12]
  huart3.Init.Parity = UART_PARITY_NONE;
 8003e98:	6103      	str	r3, [r0, #16]
  huart3.Init.Mode = UART_MODE_TX_RX;
 8003e9a:	220c      	movs	r2, #12
 8003e9c:	6142      	str	r2, [r0, #20]
  huart3.Init.HwFlowCtl = UART_HWCONTROL_NONE;
 8003e9e:	6183      	str	r3, [r0, #24]
  huart3.Init.OverSampling = UART_OVERSAMPLING_16;
 8003ea0:	61c3      	str	r3, [r0, #28]
  huart3.Init.OneBitSampling = UART_ONE_BIT_SAMPLE_DISABLE;
 8003ea2:	6203      	str	r3, [r0, #32]
  huart3.AdvancedInit.AdvFeatureInit = UART_ADVFEATURE_NO_INIT;
 8003ea4:	6243      	str	r3, [r0, #36]	; 0x24
  if (HAL_UART_Init(&huart3) != HAL_OK)
 8003ea6:	f7fe fb68 	bl	800257a <HAL_UART_Init>
}
 8003eaa:	bd08      	pop	{r3, pc}
 8003eac:	2000022c 	.word	0x2000022c
 8003eb0:	40004800 	.word	0x40004800

08003eb4 <receive_buffer_put_byte>:
	size_t new_write_i = (rec_buf_write_i + 1) % RECEIVE_BUFFER_LEN;
 8003eb4:	4a07      	ldr	r2, [pc, #28]	; (8003ed4 <receive_buffer_put_byte+0x20>)
 8003eb6:	6811      	ldr	r1, [r2, #0]
 8003eb8:	1c4b      	adds	r3, r1, #1
 8003eba:	b2db      	uxtb	r3, r3
	if (new_write_i == rec_buf_read_i)
 8003ebc:	6852      	ldr	r2, [r2, #4]
 8003ebe:	429a      	cmp	r2, r3
 8003ec0:	d005      	beq.n	8003ece <receive_buffer_put_byte+0x1a>
	receive_buffer[rec_buf_write_i] = c;
 8003ec2:	4a05      	ldr	r2, [pc, #20]	; (8003ed8 <receive_buffer_put_byte+0x24>)
 8003ec4:	5450      	strb	r0, [r2, r1]
	rec_buf_write_i = new_write_i;
 8003ec6:	4a03      	ldr	r2, [pc, #12]	; (8003ed4 <receive_buffer_put_byte+0x20>)
 8003ec8:	6013      	str	r3, [r2, #0]
	return true;
 8003eca:	2001      	movs	r0, #1
 8003ecc:	4770      	bx	lr
		return false;
 8003ece:	2000      	movs	r0, #0
}
 8003ed0:	4770      	bx	lr
 8003ed2:	bf00      	nop
 8003ed4:	20000210 	.word	0x20000210
 8003ed8:	200002ac 	.word	0x200002ac

08003edc <receive_buffer_peek>:
{
 8003edc:	b410      	push	{r4}
	size_t read_i = rec_buf_read_i;
 8003ede:	4a08      	ldr	r2, [pc, #32]	; (8003f00 <receive_buffer_peek+0x24>)
 8003ee0:	6853      	ldr	r3, [r2, #4]
	size_t write_i = rec_buf_write_i;
 8003ee2:	6814      	ldr	r4, [r2, #0]
	size_t len = 0;
 8003ee4:	2000      	movs	r0, #0
		if (read_i == write_i)
 8003ee6:	42a3      	cmp	r3, r4
 8003ee8:	d007      	beq.n	8003efa <receive_buffer_peek+0x1e>
		receive_buffer_peek_data[len] = receive_buffer[read_i];
 8003eea:	4a06      	ldr	r2, [pc, #24]	; (8003f04 <receive_buffer_peek+0x28>)
 8003eec:	5cd1      	ldrb	r1, [r2, r3]
 8003eee:	4a06      	ldr	r2, [pc, #24]	; (8003f08 <receive_buffer_peek+0x2c>)
 8003ef0:	5411      	strb	r1, [r2, r0]
		read_i = (read_i + 1) % RECEIVE_BUFFER_LEN;
 8003ef2:	3301      	adds	r3, #1
 8003ef4:	b2db      	uxtb	r3, r3
	for (;; ++len)
 8003ef6:	3001      	adds	r0, #1
		if (read_i == write_i)
 8003ef8:	e7f5      	b.n	8003ee6 <receive_buffer_peek+0xa>
}
 8003efa:	f85d 4b04 	ldr.w	r4, [sp], #4
 8003efe:	4770      	bx	lr
 8003f00:	20000210 	.word	0x20000210
 8003f04:	200002ac 	.word	0x200002ac
 8003f08:	200003ac 	.word	0x200003ac

08003f0c <receive_buffer_erase>:
	for (size_t i = 0; i < len; ++i)
 8003f0c:	2200      	movs	r2, #0
 8003f0e:	4282      	cmp	r2, r0
 8003f10:	d20a      	bcs.n	8003f28 <receive_buffer_erase+0x1c>
		if (rec_buf_read_i == rec_buf_write_i)
 8003f12:	4907      	ldr	r1, [pc, #28]	; (8003f30 <receive_buffer_erase+0x24>)
 8003f14:	684b      	ldr	r3, [r1, #4]
 8003f16:	6809      	ldr	r1, [r1, #0]
 8003f18:	428b      	cmp	r3, r1
 8003f1a:	d007      	beq.n	8003f2c <receive_buffer_erase+0x20>
		rec_buf_read_i = (rec_buf_read_i + 1) % RECEIVE_BUFFER_LEN;
 8003f1c:	3301      	adds	r3, #1
 8003f1e:	b2db      	uxtb	r3, r3
 8003f20:	4903      	ldr	r1, [pc, #12]	; (8003f30 <receive_buffer_erase+0x24>)
 8003f22:	604b      	str	r3, [r1, #4]
	for (size_t i = 0; i < len; ++i)
 8003f24:	3201      	adds	r2, #1
 8003f26:	e7f2      	b.n	8003f0e <receive_buffer_erase+0x2>
	return true;
 8003f28:	2001      	movs	r0, #1
 8003f2a:	4770      	bx	lr
			return false;
 8003f2c:	2000      	movs	r0, #0
}
 8003f2e:	4770      	bx	lr
 8003f30:	20000210 	.word	0x20000210

08003f34 <SystemClock_Config>:
{
 8003f34:	b530      	push	{r4, r5, lr}
 8003f36:	b0b5      	sub	sp, #212	; 0xd4
  RCC_OscInitTypeDef RCC_OscInitStruct = {0};
 8003f38:	2230      	movs	r2, #48	; 0x30
 8003f3a:	2100      	movs	r1, #0
 8003f3c:	a828      	add	r0, sp, #160	; 0xa0
 8003f3e:	f000 fc5b 	bl	80047f8 <memset>
  RCC_ClkInitTypeDef RCC_ClkInitStruct = {0};
 8003f42:	2400      	movs	r4, #0
 8003f44:	9423      	str	r4, [sp, #140]	; 0x8c
 8003f46:	9424      	str	r4, [sp, #144]	; 0x90
 8003f48:	9425      	str	r4, [sp, #148]	; 0x94
 8003f4a:	9426      	str	r4, [sp, #152]	; 0x98
 8003f4c:	9427      	str	r4, [sp, #156]	; 0x9c
  RCC_PeriphCLKInitTypeDef PeriphClkInitStruct = {0};
 8003f4e:	2280      	movs	r2, #128	; 0x80
 8003f50:	4621      	mov	r1, r4
 8003f52:	a803      	add	r0, sp, #12
 8003f54:	f000 fc50 	bl	80047f8 <memset>
  HAL_PWR_EnableBkUpAccess();
 8003f58:	f7fd fab8 	bl	80014cc <HAL_PWR_EnableBkUpAccess>
  __HAL_RCC_PWR_CLK_ENABLE();
 8003f5c:	4b20      	ldr	r3, [pc, #128]	; (8003fe0 <SystemClock_Config+0xac>)
 8003f5e:	6c1a      	ldr	r2, [r3, #64]	; 0x40
 8003f60:	f042 5280 	orr.w	r2, r2, #268435456	; 0x10000000
 8003f64:	641a      	str	r2, [r3, #64]	; 0x40
 8003f66:	6c1b      	ldr	r3, [r3, #64]	; 0x40
 8003f68:	f003 5380 	and.w	r3, r3, #268435456	; 0x10000000
 8003f6c:	9301      	str	r3, [sp, #4]
 8003f6e:	9b01      	ldr	r3, [sp, #4]
  __HAL_PWR_VOLTAGESCALING_CONFIG(PWR_REGULATOR_VOLTAGE_SCALE1);
 8003f70:	4b1c      	ldr	r3, [pc, #112]	; (8003fe4 <SystemClock_Config+0xb0>)
 8003f72:	681a      	ldr	r2, [r3, #0]
 8003f74:	f442 4240 	orr.w	r2, r2, #49152	; 0xc000
 8003f78:	601a      	str	r2, [r3, #0]
 8003f7a:	681b      	ldr	r3, [r3, #0]
 8003f7c:	f403 4340 	and.w	r3, r3, #49152	; 0xc000
 8003f80:	9302      	str	r3, [sp, #8]
 8003f82:	9b02      	ldr	r3, [sp, #8]
  RCC_OscInitStruct.OscillatorType = RCC_OSCILLATORTYPE_HSE;
 8003f84:	2301      	movs	r3, #1
 8003f86:	9328      	str	r3, [sp, #160]	; 0xa0
  RCC_OscInitStruct.HSEState = RCC_HSE_BYPASS;
 8003f88:	f44f 23a0 	mov.w	r3, #327680	; 0x50000
 8003f8c:	9329      	str	r3, [sp, #164]	; 0xa4
  RCC_OscInitStruct.PLL.PLLState = RCC_PLL_ON;
 8003f8e:	2502      	movs	r5, #2
 8003f90:	952e      	str	r5, [sp, #184]	; 0xb8
  RCC_OscInitStruct.PLL.PLLSource = RCC_PLLSOURCE_HSE;
 8003f92:	f44f 0380 	mov.w	r3, #4194304	; 0x400000
 8003f96:	932f      	str	r3, [sp, #188]	; 0xbc
  RCC_OscInitStruct.PLL.PLLM = 4;
 8003f98:	2304      	movs	r3, #4
 8003f9a:	9330      	str	r3, [sp, #192]	; 0xc0
  RCC_OscInitStruct.PLL.PLLN = 216;
 8003f9c:	23d8      	movs	r3, #216	; 0xd8
 8003f9e:	9331      	str	r3, [sp, #196]	; 0xc4
  RCC_OscInitStruct.PLL.PLLP = RCC_PLLP_DIV2;
 8003fa0:	9532      	str	r5, [sp, #200]	; 0xc8
  RCC_OscInitStruct.PLL.PLLQ = 9;
 8003fa2:	2309      	movs	r3, #9
 8003fa4:	9333      	str	r3, [sp, #204]	; 0xcc
  if (HAL_RCC_OscConfig(&RCC_OscInitStruct) != HAL_OK)
 8003fa6:	a828      	add	r0, sp, #160	; 0xa0
 8003fa8:	f7fd fad6 	bl	8001558 <HAL_RCC_OscConfig>
  if (HAL_PWREx_EnableOverDrive() != HAL_OK)
 8003fac:	f7fd fa96 	bl	80014dc <HAL_PWREx_EnableOverDrive>
  RCC_ClkInitStruct.ClockType = RCC_CLOCKTYPE_HCLK|RCC_CLOCKTYPE_SYSCLK
 8003fb0:	230f      	movs	r3, #15
 8003fb2:	9323      	str	r3, [sp, #140]	; 0x8c
  RCC_ClkInitStruct.SYSCLKSource = RCC_SYSCLKSOURCE_PLLCLK;
 8003fb4:	9524      	str	r5, [sp, #144]	; 0x90
  RCC_ClkInitStruct.AHBCLKDivider = RCC_SYSCLK_DIV1;
 8003fb6:	9425      	str	r4, [sp, #148]	; 0x94
  RCC_ClkInitStruct.APB1CLKDivider = RCC_HCLK_DIV4;
 8003fb8:	f44f 53a0 	mov.w	r3, #5120	; 0x1400
 8003fbc:	9326      	str	r3, [sp, #152]	; 0x98
  RCC_ClkInitStruct.APB2CLKDivider = RCC_HCLK_DIV2;
 8003fbe:	f44f 5380 	mov.w	r3, #4096	; 0x1000
 8003fc2:	9327      	str	r3, [sp, #156]	; 0x9c
  if (HAL_RCC_ClockConfig(&RCC_ClkInitStruct, FLASH_LATENCY_7) != HAL_OK)
 8003fc4:	2107      	movs	r1, #7
 8003fc6:	a823      	add	r0, sp, #140	; 0x8c
 8003fc8:	f7fd fd1c 	bl	8001a04 <HAL_RCC_ClockConfig>
  PeriphClkInitStruct.PeriphClockSelection = RCC_PERIPHCLK_USART3|RCC_PERIPHCLK_CLK48;
 8003fcc:	4b06      	ldr	r3, [pc, #24]	; (8003fe8 <SystemClock_Config+0xb4>)
 8003fce:	9303      	str	r3, [sp, #12]
  PeriphClkInitStruct.Usart3ClockSelection = RCC_USART3CLKSOURCE_PCLK1;
 8003fd0:	9414      	str	r4, [sp, #80]	; 0x50
  PeriphClkInitStruct.Clk48ClockSelection = RCC_CLK48SOURCE_PLL;
 8003fd2:	9420      	str	r4, [sp, #128]	; 0x80
  if (HAL_RCCEx_PeriphCLKConfig(&PeriphClkInitStruct) != HAL_OK)
 8003fd4:	a803      	add	r0, sp, #12
 8003fd6:	f7fd fded 	bl	8001bb4 <HAL_RCCEx_PeriphCLKConfig>
}
 8003fda:	b035      	add	sp, #212	; 0xd4
 8003fdc:	bd30      	pop	{r4, r5, pc}
 8003fde:	bf00      	nop
 8003fe0:	40023800 	.word	0x40023800
 8003fe4:	40007000 	.word	0x40007000
 8003fe8:	00200100 	.word	0x00200100

08003fec <main>:
{
 8003fec:	b530      	push	{r4, r5, lr}
 8003fee:	b0b3      	sub	sp, #204	; 0xcc
  HAL_Init();
 8003ff0:	f7fc fb12 	bl	8000618 <HAL_Init>
  SystemClock_Config();
 8003ff4:	f7ff ff9e 	bl	8003f34 <SystemClock_Config>
  MX_GPIO_Init();
 8003ff8:	f7ff fec6 	bl	8003d88 <MX_GPIO_Init>
  MX_USART3_UART_Init();
 8003ffc:	f7ff ff42 	bl	8003e84 <MX_USART3_UART_Init>
  MX_USB_DEVICE_Init();
 8004000:	f000 f8f4 	bl	80041ec <MX_USB_DEVICE_Init>
	uint16_t count=0;
 8004004:	2500      	movs	r5, #0
 8004006:	e00e      	b.n	8004026 <main+0x3a>
			  receive_buffer_erase(2);
 8004008:	2002      	movs	r0, #2
 800400a:	f7ff ff7f 	bl	8003f0c <receive_buffer_erase>
 800400e:	e00a      	b.n	8004026 <main+0x3a>
		  } else if ((len >= 5) && (strncmp((char*)receive_buffer_peek_data, "PRINT", 5) == 0))
 8004010:	2c04      	cmp	r4, #4
 8004012:	d905      	bls.n	8004020 <main+0x34>
 8004014:	2205      	movs	r2, #5
 8004016:	491b      	ldr	r1, [pc, #108]	; (8004084 <main+0x98>)
 8004018:	481b      	ldr	r0, [pc, #108]	; (8004088 <main+0x9c>)
 800401a:	f000 fccd 	bl	80049b8 <strncmp>
 800401e:	b1e8      	cbz	r0, 800405c <main+0x70>
			  receive_buffer_erase(1);
 8004020:	2001      	movs	r0, #1
 8004022:	f7ff ff73 	bl	8003f0c <receive_buffer_erase>
	  size_t len = receive_buffer_peek();
 8004026:	f7ff ff59 	bl	8003edc <receive_buffer_peek>
	  if (len != 0)
 800402a:	4604      	mov	r4, r0
 800402c:	2800      	cmp	r0, #0
 800402e:	d0fa      	beq.n	8004026 <main+0x3a>
		  if ((len >= 2) && (strncmp((char*)receive_buffer_peek_data, "ON", 2) == 0))
 8004030:	2801      	cmp	r0, #1
 8004032:	d906      	bls.n	8004042 <main+0x56>
 8004034:	2202      	movs	r2, #2
 8004036:	4915      	ldr	r1, [pc, #84]	; (800408c <main+0xa0>)
 8004038:	4813      	ldr	r0, [pc, #76]	; (8004088 <main+0x9c>)
 800403a:	f000 fcbd 	bl	80049b8 <strncmp>
 800403e:	2800      	cmp	r0, #0
 8004040:	d0e2      	beq.n	8004008 <main+0x1c>
		  } else if ((len >= 3) && (strncmp((char*)receive_buffer_peek_data, "OFF", 3) == 0))
 8004042:	2c02      	cmp	r4, #2
 8004044:	d9e4      	bls.n	8004010 <main+0x24>
 8004046:	2203      	movs	r2, #3
 8004048:	4911      	ldr	r1, [pc, #68]	; (8004090 <main+0xa4>)
 800404a:	480f      	ldr	r0, [pc, #60]	; (8004088 <main+0x9c>)
 800404c:	f000 fcb4 	bl	80049b8 <strncmp>
 8004050:	2800      	cmp	r0, #0
 8004052:	d1dd      	bne.n	8004010 <main+0x24>
			  receive_buffer_erase(3);
 8004054:	2003      	movs	r0, #3
 8004056:	f7ff ff59 	bl	8003f0c <receive_buffer_erase>
 800405a:	e7e4      	b.n	8004026 <main+0x3a>
			sprintf(cmdbuf,"id=%d, test sending the text.............:",count++);
 800405c:	1c6c      	adds	r4, r5, #1
 800405e:	b2a4      	uxth	r4, r4
 8004060:	462a      	mov	r2, r5
 8004062:	490c      	ldr	r1, [pc, #48]	; (8004094 <main+0xa8>)
 8004064:	4668      	mov	r0, sp
 8004066:	f000 fc87 	bl	8004978 <siprintf>
			MX_USB_SEND_DATA((uint8_t *)cmdbuf,strlen(cmdbuf));
 800406a:	4668      	mov	r0, sp
 800406c:	f7fc f8d8 	bl	8000220 <strlen>
 8004070:	b281      	uxth	r1, r0
 8004072:	4668      	mov	r0, sp
 8004074:	f000 f8e4 	bl	8004240 <MX_USB_SEND_DATA>
			receive_buffer_erase(5);
 8004078:	2005      	movs	r0, #5
 800407a:	f7ff ff47 	bl	8003f0c <receive_buffer_erase>
			sprintf(cmdbuf,"id=%d, test sending the text.............:",count++);
 800407e:	4625      	mov	r5, r4
			receive_buffer_erase(5);
 8004080:	e7d1      	b.n	8004026 <main+0x3a>
 8004082:	bf00      	nop
 8004084:	08005070 	.word	0x08005070
 8004088:	200003ac 	.word	0x200003ac
 800408c:	08005068 	.word	0x08005068
 8004090:	0800506c 	.word	0x0800506c
 8004094:	08005078 	.word	0x08005078

08004098 <Error_Handler>:
//  HAL_GPIO_WritePin(GPIOB, LD3_Pin, GPIO_PIN_SET);
//  while(1){
//	  // loop forever (halt)
//  }
  /* USER CODE END Error_Handler_Debug */
}
 8004098:	4770      	bx	lr
	...

0800409c <HAL_MspInit>:
/* USER CODE END 0 */
/**
  * Initializes the Global MSP.
  */
void HAL_MspInit(void)
{
 800409c:	b082      	sub	sp, #8
  /* USER CODE BEGIN MspInit 0 */

  /* USER CODE END MspInit 0 */

  __HAL_RCC_PWR_CLK_ENABLE();
 800409e:	4b0a      	ldr	r3, [pc, #40]	; (80040c8 <HAL_MspInit+0x2c>)
 80040a0:	6c1a      	ldr	r2, [r3, #64]	; 0x40
 80040a2:	f042 5280 	orr.w	r2, r2, #268435456	; 0x10000000
 80040a6:	641a      	str	r2, [r3, #64]	; 0x40
 80040a8:	6c1a      	ldr	r2, [r3, #64]	; 0x40
 80040aa:	f002 5280 	and.w	r2, r2, #268435456	; 0x10000000
 80040ae:	9200      	str	r2, [sp, #0]
 80040b0:	9a00      	ldr	r2, [sp, #0]
  __HAL_RCC_SYSCFG_CLK_ENABLE();
 80040b2:	6c5a      	ldr	r2, [r3, #68]	; 0x44
 80040b4:	f442 4280 	orr.w	r2, r2, #16384	; 0x4000
 80040b8:	645a      	str	r2, [r3, #68]	; 0x44
 80040ba:	6c5b      	ldr	r3, [r3, #68]	; 0x44
 80040bc:	f403 4380 	and.w	r3, r3, #16384	; 0x4000
 80040c0:	9301      	str	r3, [sp, #4]
 80040c2:	9b01      	ldr	r3, [sp, #4]
  /* System interrupt init*/

  /* USER CODE BEGIN MspInit 1 */

  /* USER CODE END MspInit 1 */
}
 80040c4:	b002      	add	sp, #8
 80040c6:	4770      	bx	lr
 80040c8:	40023800 	.word	0x40023800

080040cc <HAL_UART_MspInit>:
* This function configures the hardware resources used in this example
* @param huart: UART handle pointer
* @retval None
*/
void HAL_UART_MspInit(UART_HandleTypeDef* huart)
{
 80040cc:	b500      	push	{lr}
 80040ce:	b089      	sub	sp, #36	; 0x24
  GPIO_InitTypeDef GPIO_InitStruct = {0};
 80040d0:	2300      	movs	r3, #0
 80040d2:	9303      	str	r3, [sp, #12]
 80040d4:	9304      	str	r3, [sp, #16]
 80040d6:	9305      	str	r3, [sp, #20]
 80040d8:	9306      	str	r3, [sp, #24]
 80040da:	9307      	str	r3, [sp, #28]
  if(huart->Instance==USART3)
 80040dc:	6802      	ldr	r2, [r0, #0]
 80040de:	4b14      	ldr	r3, [pc, #80]	; (8004130 <HAL_UART_MspInit+0x64>)
 80040e0:	429a      	cmp	r2, r3
 80040e2:	d002      	beq.n	80040ea <HAL_UART_MspInit+0x1e>
  /* USER CODE BEGIN USART3_MspInit 1 */

  /* USER CODE END USART3_MspInit 1 */
  }

}
 80040e4:	b009      	add	sp, #36	; 0x24
 80040e6:	f85d fb04 	ldr.w	pc, [sp], #4
    __HAL_RCC_USART3_CLK_ENABLE();
 80040ea:	f503 33f8 	add.w	r3, r3, #126976	; 0x1f000
 80040ee:	6c1a      	ldr	r2, [r3, #64]	; 0x40
 80040f0:	f442 2280 	orr.w	r2, r2, #262144	; 0x40000
 80040f4:	641a      	str	r2, [r3, #64]	; 0x40
 80040f6:	6c1a      	ldr	r2, [r3, #64]	; 0x40
 80040f8:	f402 2280 	and.w	r2, r2, #262144	; 0x40000
 80040fc:	9201      	str	r2, [sp, #4]
 80040fe:	9a01      	ldr	r2, [sp, #4]
    __HAL_RCC_GPIOD_CLK_ENABLE();
 8004100:	6b1a      	ldr	r2, [r3, #48]	; 0x30
 8004102:	f042 0208 	orr.w	r2, r2, #8
 8004106:	631a      	str	r2, [r3, #48]	; 0x30
 8004108:	6b1b      	ldr	r3, [r3, #48]	; 0x30
 800410a:	f003 0308 	and.w	r3, r3, #8
 800410e:	9302      	str	r3, [sp, #8]
 8004110:	9b02      	ldr	r3, [sp, #8]
    GPIO_InitStruct.Pin = STLK_RX_Pin|STLK_TX_Pin;
 8004112:	f44f 7340 	mov.w	r3, #768	; 0x300
 8004116:	9303      	str	r3, [sp, #12]
    GPIO_InitStruct.Mode = GPIO_MODE_AF_PP;
 8004118:	2302      	movs	r3, #2
 800411a:	9304      	str	r3, [sp, #16]
    GPIO_InitStruct.Speed = GPIO_SPEED_FREQ_VERY_HIGH;
 800411c:	2303      	movs	r3, #3
 800411e:	9306      	str	r3, [sp, #24]
    GPIO_InitStruct.Alternate = GPIO_AF7_USART3;
 8004120:	2307      	movs	r3, #7
 8004122:	9307      	str	r3, [sp, #28]
    HAL_GPIO_Init(GPIOD, &GPIO_InitStruct);
 8004124:	a903      	add	r1, sp, #12
 8004126:	4803      	ldr	r0, [pc, #12]	; (8004134 <HAL_UART_MspInit+0x68>)
 8004128:	f7fc fb10 	bl	800074c <HAL_GPIO_Init>
}
 800412c:	e7da      	b.n	80040e4 <HAL_UART_MspInit+0x18>
 800412e:	bf00      	nop
 8004130:	40004800 	.word	0x40004800
 8004134:	40020c00 	.word	0x40020c00

08004138 <NMI_Handler>:

  /* USER CODE END NonMaskableInt_IRQn 0 */
  /* USER CODE BEGIN NonMaskableInt_IRQn 1 */

  /* USER CODE END NonMaskableInt_IRQn 1 */
}
 8004138:	4770      	bx	lr

0800413a <HardFault_Handler>:

/**
  * @brief This function handles Hard fault interrupt.
  */
void HardFault_Handler(void)
{
 800413a:	e7fe      	b.n	800413a <HardFault_Handler>

0800413c <MemManage_Handler>:

/**
  * @brief This function handles Memory management fault.
  */
void MemManage_Handler(void)
{
 800413c:	e7fe      	b.n	800413c <MemManage_Handler>

0800413e <BusFault_Handler>:

/**
  * @brief This function handles Pre-fetch fault, memory access fault.
  */
void BusFault_Handler(void)
{
 800413e:	e7fe      	b.n	800413e <BusFault_Handler>

08004140 <UsageFault_Handler>:

/**
  * @brief This function handles Undefined instruction or illegal state.
  */
void UsageFault_Handler(void)
{
 8004140:	e7fe      	b.n	8004140 <UsageFault_Handler>

08004142 <SVC_Handler>:

  /* USER CODE END SVCall_IRQn 0 */
  /* USER CODE BEGIN SVCall_IRQn 1 */

  /* USER CODE END SVCall_IRQn 1 */
}
 8004142:	4770      	bx	lr

08004144 <DebugMon_Handler>:

  /* USER CODE END DebugMonitor_IRQn 0 */
  /* USER CODE BEGIN DebugMonitor_IRQn 1 */

  /* USER CODE END DebugMonitor_IRQn 1 */
}
 8004144:	4770      	bx	lr

08004146 <PendSV_Handler>:

  /* USER CODE END PendSV_IRQn 0 */
  /* USER CODE BEGIN PendSV_IRQn 1 */

  /* USER CODE END PendSV_IRQn 1 */
}
 8004146:	4770      	bx	lr

08004148 <SysTick_Handler>:

/**
  * @brief This function handles System tick timer.
  */
void SysTick_Handler(void)
{
 8004148:	b508      	push	{r3, lr}
  /* USER CODE BEGIN SysTick_IRQn 0 */

  /* USER CODE END SysTick_IRQn 0 */
  HAL_IncTick();
 800414a:	f7fc fa71 	bl	8000630 <HAL_IncTick>
  /* USER CODE BEGIN SysTick_IRQn 1 */

  /* USER CODE END SysTick_IRQn 1 */
}
 800414e:	bd08      	pop	{r3, pc}

08004150 <OTG_FS_IRQHandler>:

/**
  * @brief This function handles USB On The Go FS global interrupt.
  */
void OTG_FS_IRQHandler(void)
{
 8004150:	b508      	push	{r3, lr}
  /* USER CODE BEGIN OTG_FS_IRQn 0 */

  /* USER CODE END OTG_FS_IRQn 0 */
  HAL_PCD_IRQHandler(&hpcd_USB_OTG_FS);
 8004152:	4802      	ldr	r0, [pc, #8]	; (800415c <OTG_FS_IRQHandler+0xc>)
 8004154:	f7fc fda6 	bl	8000ca4 <HAL_PCD_IRQHandler>
  /* USER CODE BEGIN OTG_FS_IRQn 1 */

  /* USER CODE END OTG_FS_IRQn 1 */
}
 8004158:	bd08      	pop	{r3, pc}
 800415a:	bf00      	nop
 800415c:	20001748 	.word	0x20001748

08004160 <_sbrk>:
	}
	return len;
}

caddr_t _sbrk(int incr)
{
 8004160:	b508      	push	{r3, lr}
 8004162:	4603      	mov	r3, r0
	extern char end asm("end");
	static char *heap_end;
	char *prev_heap_end;

	if (heap_end == 0)
 8004164:	4a0b      	ldr	r2, [pc, #44]	; (8004194 <_sbrk+0x34>)
 8004166:	6812      	ldr	r2, [r2, #0]
 8004168:	b142      	cbz	r2, 800417c <_sbrk+0x1c>
		heap_end = &end;

	prev_heap_end = heap_end;
 800416a:	4a0a      	ldr	r2, [pc, #40]	; (8004194 <_sbrk+0x34>)
 800416c:	6810      	ldr	r0, [r2, #0]
	if (heap_end + incr > stack_ptr)
 800416e:	4403      	add	r3, r0
 8004170:	466a      	mov	r2, sp
 8004172:	4293      	cmp	r3, r2
 8004174:	d806      	bhi.n	8004184 <_sbrk+0x24>
//		abort();
		errno = ENOMEM;
		return (caddr_t) -1;
	}

	heap_end += incr;
 8004176:	4a07      	ldr	r2, [pc, #28]	; (8004194 <_sbrk+0x34>)
 8004178:	6013      	str	r3, [r2, #0]

	return (caddr_t) prev_heap_end;
}
 800417a:	bd08      	pop	{r3, pc}
		heap_end = &end;
 800417c:	4a05      	ldr	r2, [pc, #20]	; (8004194 <_sbrk+0x34>)
 800417e:	4906      	ldr	r1, [pc, #24]	; (8004198 <_sbrk+0x38>)
 8004180:	6011      	str	r1, [r2, #0]
 8004182:	e7f2      	b.n	800416a <_sbrk+0xa>
		errno = ENOMEM;
 8004184:	f000 fafe 	bl	8004784 <__errno>
 8004188:	230c      	movs	r3, #12
 800418a:	6003      	str	r3, [r0, #0]
		return (caddr_t) -1;
 800418c:	f04f 30ff 	mov.w	r0, #4294967295
 8004190:	e7f3      	b.n	800417a <_sbrk+0x1a>
 8004192:	bf00      	nop
 8004194:	20000218 	.word	0x20000218
 8004198:	20001d50 	.word	0x20001d50

0800419c <SystemInit>:
  *         SystemFrequency variable.
  * @param  None
  * @retval None
  */
void SystemInit(void)
{
 800419c:	b410      	push	{r4}
  /* FPU settings ------------------------------------------------------------*/
  #if (__FPU_PRESENT == 1) && (__FPU_USED == 1)
    SCB->CPACR |= ((3UL << 10*2)|(3UL << 11*2));  /* set CP10 and CP11 Full Access */
 800419e:	4a0f      	ldr	r2, [pc, #60]	; (80041dc <SystemInit+0x40>)
 80041a0:	f8d2 3088 	ldr.w	r3, [r2, #136]	; 0x88
 80041a4:	f443 0370 	orr.w	r3, r3, #15728640	; 0xf00000
 80041a8:	f8c2 3088 	str.w	r3, [r2, #136]	; 0x88
  #endif
  /* Reset the RCC clock configuration to the default reset state ------------*/
  /* Set HSION bit */
  RCC->CR |= (uint32_t)0x00000001;
 80041ac:	4b0c      	ldr	r3, [pc, #48]	; (80041e0 <SystemInit+0x44>)
 80041ae:	6819      	ldr	r1, [r3, #0]
 80041b0:	f041 0101 	orr.w	r1, r1, #1
 80041b4:	6019      	str	r1, [r3, #0]

  /* Reset CFGR register */
  RCC->CFGR = 0x00000000;
 80041b6:	2000      	movs	r0, #0
 80041b8:	6098      	str	r0, [r3, #8]

  /* Reset HSEON, CSSON and PLLON bits */
  RCC->CR &= (uint32_t)0xFEF6FFFF;
 80041ba:	681c      	ldr	r4, [r3, #0]
 80041bc:	4909      	ldr	r1, [pc, #36]	; (80041e4 <SystemInit+0x48>)
 80041be:	4021      	ands	r1, r4
 80041c0:	6019      	str	r1, [r3, #0]

  /* Reset PLLCFGR register */
  RCC->PLLCFGR = 0x24003010;
 80041c2:	4909      	ldr	r1, [pc, #36]	; (80041e8 <SystemInit+0x4c>)
 80041c4:	6059      	str	r1, [r3, #4]

  /* Reset HSEBYP bit */
  RCC->CR &= (uint32_t)0xFFFBFFFF;
 80041c6:	6819      	ldr	r1, [r3, #0]
 80041c8:	f421 2180 	bic.w	r1, r1, #262144	; 0x40000
 80041cc:	6019      	str	r1, [r3, #0]

  /* Disable all interrupts */
  RCC->CIR = 0x00000000;
 80041ce:	60d8      	str	r0, [r3, #12]

  /* Configure the Vector Table location add offset address ------------------*/
#ifdef VECT_TAB_SRAM
  SCB->VTOR = RAMDTCM_BASE | VECT_TAB_OFFSET; /* Vector Table Relocation in Internal SRAM */
#else
  SCB->VTOR = FLASH_BASE | VECT_TAB_OFFSET; /* Vector Table Relocation in Internal FLASH */
 80041d0:	f04f 6300 	mov.w	r3, #134217728	; 0x8000000
 80041d4:	6093      	str	r3, [r2, #8]
#endif
}
 80041d6:	f85d 4b04 	ldr.w	r4, [sp], #4
 80041da:	4770      	bx	lr
 80041dc:	e000ed00 	.word	0xe000ed00
 80041e0:	40023800 	.word	0x40023800
 80041e4:	fef6ffff 	.word	0xfef6ffff
 80041e8:	24003010 	.word	0x24003010

080041ec <MX_USB_DEVICE_Init>:
/**
  * Init USB device Library, add supported class and start the library
  * @retval None
  */
void MX_USB_DEVICE_Init(void)
{
 80041ec:	b508      	push	{r3, lr}
  /* USER CODE BEGIN USB_DEVICE_Init_PreTreatment */
  
  /* USER CODE END USB_DEVICE_Init_PreTreatment */
  
  /* Init Device Library, add supported class and start the library. */
  if (USBD_Init(&hUsbDeviceFS, &FS_Desc, DEVICE_FS) != USBD_OK)
 80041ee:	2200      	movs	r2, #0
 80041f0:	490f      	ldr	r1, [pc, #60]	; (8004230 <MX_USB_DEVICE_Init+0x44>)
 80041f2:	4810      	ldr	r0, [pc, #64]	; (8004234 <MX_USB_DEVICE_Init+0x48>)
 80041f4:	f7ff f8ca 	bl	800338c <USBD_Init>
 80041f8:	b970      	cbnz	r0, 8004218 <MX_USB_DEVICE_Init+0x2c>
  {
    Error_Handler();
  }
  if (USBD_RegisterClass(&hUsbDeviceFS, &USBD_CDC) != USBD_OK)
 80041fa:	490f      	ldr	r1, [pc, #60]	; (8004238 <MX_USB_DEVICE_Init+0x4c>)
 80041fc:	480d      	ldr	r0, [pc, #52]	; (8004234 <MX_USB_DEVICE_Init+0x48>)
 80041fe:	f7ff f8dc 	bl	80033ba <USBD_RegisterClass>
 8004202:	b960      	cbnz	r0, 800421e <MX_USB_DEVICE_Init+0x32>
  {
    Error_Handler();
  }
  if (USBD_CDC_RegisterInterface(&hUsbDeviceFS, &USBD_Interface_fops_FS) != USBD_OK)
 8004204:	490d      	ldr	r1, [pc, #52]	; (800423c <MX_USB_DEVICE_Init+0x50>)
 8004206:	480b      	ldr	r0, [pc, #44]	; (8004234 <MX_USB_DEVICE_Init+0x48>)
 8004208:	f7ff f878 	bl	80032fc <USBD_CDC_RegisterInterface>
 800420c:	b950      	cbnz	r0, 8004224 <MX_USB_DEVICE_Init+0x38>
  {
    Error_Handler();
  }
  if (USBD_Start(&hUsbDeviceFS) != USBD_OK)
 800420e:	4809      	ldr	r0, [pc, #36]	; (8004234 <MX_USB_DEVICE_Init+0x48>)
 8004210:	f7ff f8da 	bl	80033c8 <USBD_Start>
 8004214:	b948      	cbnz	r0, 800422a <MX_USB_DEVICE_Init+0x3e>
  }

  /* USER CODE BEGIN USB_DEVICE_Init_PostTreatment */
  
  /* USER CODE END USB_DEVICE_Init_PostTreatment */
}
 8004216:	bd08      	pop	{r3, pc}
    Error_Handler();
 8004218:	f7ff ff3e 	bl	8004098 <Error_Handler>
 800421c:	e7ed      	b.n	80041fa <MX_USB_DEVICE_Init+0xe>
    Error_Handler();
 800421e:	f7ff ff3b 	bl	8004098 <Error_Handler>
 8004222:	e7ef      	b.n	8004204 <MX_USB_DEVICE_Init+0x18>
    Error_Handler();
 8004224:	f7ff ff38 	bl	8004098 <Error_Handler>
 8004228:	e7f1      	b.n	800420e <MX_USB_DEVICE_Init+0x22>
    Error_Handler();
 800422a:	f7ff ff35 	bl	8004098 <Error_Handler>
}
 800422e:	e7f2      	b.n	8004216 <MX_USB_DEVICE_Init+0x2a>
 8004230:	2000016c 	.word	0x2000016c
 8004234:	200004ac 	.word	0x200004ac
 8004238:	200000e0 	.word	0x200000e0
 800423c:	2000011c 	.word	0x2000011c

08004240 <MX_USB_SEND_DATA>:

void MX_USB_SEND_DATA(uint8_t* Buf, uint16_t Len){
 8004240:	b508      	push	{r3, lr}
	CDC_Transmit_FS(Buf,Len);
 8004242:	f000 f831 	bl	80042a8 <CDC_Transmit_FS>
}
 8004246:	bd08      	pop	{r3, pc}

08004248 <CDC_DeInit_FS>:
static int8_t CDC_DeInit_FS(void)
{
  /* USER CODE BEGIN 4 */
  return (USBD_OK);
  /* USER CODE END 4 */
}
 8004248:	2000      	movs	r0, #0
 800424a:	4770      	bx	lr

0800424c <CDC_Control_FS>:
    break;
  }

  return (USBD_OK);
  /* USER CODE END 5 */
}
 800424c:	2000      	movs	r0, #0
 800424e:	4770      	bx	lr

08004250 <CDC_Receive_FS>:
//  return (USBD_OK);
//  /* USER CODE END 6 */
//}

static int8_t CDC_Receive_FS(uint8_t* Buf, uint32_t *Len)
{
 8004250:	b570      	push	{r4, r5, r6, lr}
 8004252:	4605      	mov	r5, r0
 8004254:	460e      	mov	r6, r1
  /* USER CODE BEGIN 6 */
  USBD_CDC_SetRxBuffer(&hUsbDeviceFS, &Buf[0]);
 8004256:	4c09      	ldr	r4, [pc, #36]	; (800427c <CDC_Receive_FS+0x2c>)
 8004258:	4601      	mov	r1, r0
 800425a:	4620      	mov	r0, r4
 800425c:	f7ff f85d 	bl	800331a <USBD_CDC_SetRxBuffer>
  USBD_CDC_ReceivePacket(&hUsbDeviceFS);
 8004260:	4620      	mov	r0, r4
 8004262:	f7ff f87a 	bl	800335a <USBD_CDC_ReceivePacket>

  for (size_t i=0; i<*Len; i++)
 8004266:	2400      	movs	r4, #0
 8004268:	e003      	b.n	8004272 <CDC_Receive_FS+0x22>
  {
	  uint8_t c = Buf[i];
	  receive_buffer_put_byte(c);
 800426a:	5d28      	ldrb	r0, [r5, r4]
 800426c:	f7ff fe22 	bl	8003eb4 <receive_buffer_put_byte>
  for (size_t i=0; i<*Len; i++)
 8004270:	3401      	adds	r4, #1
 8004272:	6833      	ldr	r3, [r6, #0]
 8004274:	42a3      	cmp	r3, r4
 8004276:	d8f8      	bhi.n	800426a <CDC_Receive_FS+0x1a>
	  // silently ignore unsupported characters
  }
#endif
  return (USBD_OK);
  /* USER CODE END 6 */
}
 8004278:	2000      	movs	r0, #0
 800427a:	bd70      	pop	{r4, r5, r6, pc}
 800427c:	200004ac 	.word	0x200004ac

08004280 <CDC_Init_FS>:
{
 8004280:	b510      	push	{r4, lr}
  USBD_CDC_SetTxBuffer(&hUsbDeviceFS, UserTxBufferFS, 0);
 8004282:	4c06      	ldr	r4, [pc, #24]	; (800429c <CDC_Init_FS+0x1c>)
 8004284:	2200      	movs	r2, #0
 8004286:	4906      	ldr	r1, [pc, #24]	; (80042a0 <CDC_Init_FS+0x20>)
 8004288:	4620      	mov	r0, r4
 800428a:	f7ff f83e 	bl	800330a <USBD_CDC_SetTxBuffer>
  USBD_CDC_SetRxBuffer(&hUsbDeviceFS, UserRxBufferFS);
 800428e:	4905      	ldr	r1, [pc, #20]	; (80042a4 <CDC_Init_FS+0x24>)
 8004290:	4620      	mov	r0, r4
 8004292:	f7ff f842 	bl	800331a <USBD_CDC_SetRxBuffer>
}
 8004296:	2000      	movs	r0, #0
 8004298:	bd10      	pop	{r4, pc}
 800429a:	bf00      	nop
 800429c:	200004ac 	.word	0x200004ac
 80042a0:	20000f48 	.word	0x20000f48
 80042a4:	20000748 	.word	0x20000748

080042a8 <CDC_Transmit_FS>:
  */
uint8_t CDC_Transmit_FS(uint8_t* Buf, uint16_t Len)
{
  uint8_t result = USBD_OK;
  /* USER CODE BEGIN 7 */
  USBD_CDC_HandleTypeDef *hcdc = (USBD_CDC_HandleTypeDef*)hUsbDeviceFS.pClassData;
 80042a8:	4b09      	ldr	r3, [pc, #36]	; (80042d0 <CDC_Transmit_FS+0x28>)
 80042aa:	f8d3 3290 	ldr.w	r3, [r3, #656]	; 0x290
  if (hcdc->TxState != 0){
 80042ae:	f8d3 3214 	ldr.w	r3, [r3, #532]	; 0x214
 80042b2:	b10b      	cbz	r3, 80042b8 <CDC_Transmit_FS+0x10>
    return USBD_BUSY;
 80042b4:	2001      	movs	r0, #1
  }
  USBD_CDC_SetTxBuffer(&hUsbDeviceFS, Buf, Len);
  result = USBD_CDC_TransmitPacket(&hUsbDeviceFS);
  /* USER CODE END 7 */
  return result;
}
 80042b6:	4770      	bx	lr
{
 80042b8:	b510      	push	{r4, lr}
 80042ba:	460a      	mov	r2, r1
 80042bc:	4601      	mov	r1, r0
  USBD_CDC_SetTxBuffer(&hUsbDeviceFS, Buf, Len);
 80042be:	4c04      	ldr	r4, [pc, #16]	; (80042d0 <CDC_Transmit_FS+0x28>)
 80042c0:	4620      	mov	r0, r4
 80042c2:	f7ff f822 	bl	800330a <USBD_CDC_SetTxBuffer>
  result = USBD_CDC_TransmitPacket(&hUsbDeviceFS);
 80042c6:	4620      	mov	r0, r4
 80042c8:	f7ff f82d 	bl	8003326 <USBD_CDC_TransmitPacket>
}
 80042cc:	bd10      	pop	{r4, pc}
 80042ce:	bf00      	nop
 80042d0:	200004ac 	.word	0x200004ac

080042d4 <SystemClockConfig_Resume>:
  * @brief  Configures system clock after wake-up from USB resume callBack:
  *         enable HSI, PLL and select PLL as system clock source.
  * @retval None
  */
static void SystemClockConfig_Resume(void)
{
 80042d4:	b508      	push	{r3, lr}
  SystemClock_Config();
 80042d6:	f7ff fe2d 	bl	8003f34 <SystemClock_Config>
}
 80042da:	bd08      	pop	{r3, pc}

080042dc <HAL_PCD_MspInit>:
{
 80042dc:	b570      	push	{r4, r5, r6, lr}
 80042de:	b088      	sub	sp, #32
  GPIO_InitTypeDef GPIO_InitStruct = {0};
 80042e0:	2300      	movs	r3, #0
 80042e2:	9303      	str	r3, [sp, #12]
 80042e4:	9304      	str	r3, [sp, #16]
 80042e6:	9305      	str	r3, [sp, #20]
 80042e8:	9306      	str	r3, [sp, #24]
 80042ea:	9307      	str	r3, [sp, #28]
  if(pcdHandle->Instance==USB_OTG_FS)
 80042ec:	6803      	ldr	r3, [r0, #0]
 80042ee:	f1b3 4fa0 	cmp.w	r3, #1342177280	; 0x50000000
 80042f2:	d001      	beq.n	80042f8 <HAL_PCD_MspInit+0x1c>
}
 80042f4:	b008      	add	sp, #32
 80042f6:	bd70      	pop	{r4, r5, r6, pc}
    __HAL_RCC_GPIOA_CLK_ENABLE();
 80042f8:	4c1e      	ldr	r4, [pc, #120]	; (8004374 <HAL_PCD_MspInit+0x98>)
 80042fa:	6b23      	ldr	r3, [r4, #48]	; 0x30
 80042fc:	f043 0301 	orr.w	r3, r3, #1
 8004300:	6323      	str	r3, [r4, #48]	; 0x30
 8004302:	6b23      	ldr	r3, [r4, #48]	; 0x30
 8004304:	f003 0301 	and.w	r3, r3, #1
 8004308:	9300      	str	r3, [sp, #0]
 800430a:	9b00      	ldr	r3, [sp, #0]
    GPIO_InitStruct.Pin = USB_SOF_Pin|USB_ID_Pin|USB_DM_Pin|USB_DP_Pin;
 800430c:	f44f 53e8 	mov.w	r3, #7424	; 0x1d00
 8004310:	9303      	str	r3, [sp, #12]
    GPIO_InitStruct.Mode = GPIO_MODE_AF_PP;
 8004312:	2302      	movs	r3, #2
 8004314:	9304      	str	r3, [sp, #16]
    GPIO_InitStruct.Speed = GPIO_SPEED_FREQ_VERY_HIGH;
 8004316:	2303      	movs	r3, #3
 8004318:	9306      	str	r3, [sp, #24]
    GPIO_InitStruct.Alternate = GPIO_AF10_OTG_FS;
 800431a:	230a      	movs	r3, #10
 800431c:	9307      	str	r3, [sp, #28]
    HAL_GPIO_Init(GPIOA, &GPIO_InitStruct);
 800431e:	4e16      	ldr	r6, [pc, #88]	; (8004378 <HAL_PCD_MspInit+0x9c>)
 8004320:	a903      	add	r1, sp, #12
 8004322:	4630      	mov	r0, r6
 8004324:	f7fc fa12 	bl	800074c <HAL_GPIO_Init>
    GPIO_InitStruct.Pin = USB_VBUS_Pin;
 8004328:	f44f 7300 	mov.w	r3, #512	; 0x200
 800432c:	9303      	str	r3, [sp, #12]
    GPIO_InitStruct.Mode = GPIO_MODE_INPUT;
 800432e:	2500      	movs	r5, #0
 8004330:	9504      	str	r5, [sp, #16]
    GPIO_InitStruct.Pull = GPIO_NOPULL;
 8004332:	9505      	str	r5, [sp, #20]
    HAL_GPIO_Init(USB_VBUS_GPIO_Port, &GPIO_InitStruct);
 8004334:	a903      	add	r1, sp, #12
 8004336:	4630      	mov	r0, r6
 8004338:	f7fc fa08 	bl	800074c <HAL_GPIO_Init>
    __HAL_RCC_USB_OTG_FS_CLK_ENABLE();
 800433c:	6b63      	ldr	r3, [r4, #52]	; 0x34
 800433e:	f043 0380 	orr.w	r3, r3, #128	; 0x80
 8004342:	6363      	str	r3, [r4, #52]	; 0x34
 8004344:	6b63      	ldr	r3, [r4, #52]	; 0x34
 8004346:	f003 0380 	and.w	r3, r3, #128	; 0x80
 800434a:	9301      	str	r3, [sp, #4]
 800434c:	9b01      	ldr	r3, [sp, #4]
 800434e:	6c63      	ldr	r3, [r4, #68]	; 0x44
 8004350:	f443 4380 	orr.w	r3, r3, #16384	; 0x4000
 8004354:	6463      	str	r3, [r4, #68]	; 0x44
 8004356:	6c63      	ldr	r3, [r4, #68]	; 0x44
 8004358:	f403 4380 	and.w	r3, r3, #16384	; 0x4000
 800435c:	9302      	str	r3, [sp, #8]
 800435e:	9b02      	ldr	r3, [sp, #8]
    HAL_NVIC_SetPriority(OTG_FS_IRQn, 0, 0);
 8004360:	462a      	mov	r2, r5
 8004362:	4629      	mov	r1, r5
 8004364:	2043      	movs	r0, #67	; 0x43
 8004366:	f7fc f99b 	bl	80006a0 <HAL_NVIC_SetPriority>
    HAL_NVIC_EnableIRQ(OTG_FS_IRQn);
 800436a:	2043      	movs	r0, #67	; 0x43
 800436c:	f7fc f9ca 	bl	8000704 <HAL_NVIC_EnableIRQ>
}
 8004370:	e7c0      	b.n	80042f4 <HAL_PCD_MspInit+0x18>
 8004372:	bf00      	nop
 8004374:	40023800 	.word	0x40023800
 8004378:	40020000 	.word	0x40020000

0800437c <HAL_PCD_SetupStageCallback>:
{
 800437c:	b508      	push	{r3, lr}
  USBD_LL_SetupStage((USBD_HandleTypeDef*)hpcd->pData, (uint8_t *)hpcd->Setup);
 800437e:	f500 7171 	add.w	r1, r0, #964	; 0x3c4
 8004382:	f8d0 0400 	ldr.w	r0, [r0, #1024]	; 0x400
 8004386:	f7ff f838 	bl	80033fa <USBD_LL_SetupStage>
}
 800438a:	bd08      	pop	{r3, pc}

0800438c <HAL_PCD_DataOutStageCallback>:
{
 800438c:	b508      	push	{r3, lr}
  USBD_LL_DataOutStage((USBD_HandleTypeDef*)hpcd->pData, epnum, hpcd->OUT_ep[epnum].xfer_buff);
 800438e:	ebc1 02c1 	rsb	r2, r1, r1, lsl #3
 8004392:	0093      	lsls	r3, r2, #2
 8004394:	4403      	add	r3, r0
 8004396:	f8d3 2208 	ldr.w	r2, [r3, #520]	; 0x208
 800439a:	f8d0 0400 	ldr.w	r0, [r0, #1024]	; 0x400
 800439e:	f7ff f859 	bl	8003454 <USBD_LL_DataOutStage>
}
 80043a2:	bd08      	pop	{r3, pc}

080043a4 <HAL_PCD_DataInStageCallback>:
{
 80043a4:	b508      	push	{r3, lr}
  USBD_LL_DataInStage((USBD_HandleTypeDef*)hpcd->pData, epnum, hpcd->IN_ep[epnum].xfer_buff);
 80043a6:	ebc1 02c1 	rsb	r2, r1, r1, lsl #3
 80043aa:	0093      	lsls	r3, r2, #2
 80043ac:	4403      	add	r3, r0
 80043ae:	6c9a      	ldr	r2, [r3, #72]	; 0x48
 80043b0:	f8d0 0400 	ldr.w	r0, [r0, #1024]	; 0x400
 80043b4:	f7ff f897 	bl	80034e6 <USBD_LL_DataInStage>
}
 80043b8:	bd08      	pop	{r3, pc}

080043ba <HAL_PCD_SOFCallback>:
{
 80043ba:	b508      	push	{r3, lr}
  USBD_LL_SOF((USBD_HandleTypeDef*)hpcd->pData);
 80043bc:	f8d0 0400 	ldr.w	r0, [r0, #1024]	; 0x400
 80043c0:	f7ff f936 	bl	8003630 <USBD_LL_SOF>
}
 80043c4:	bd08      	pop	{r3, pc}

080043c6 <HAL_PCD_ResetCallback>:
{ 
 80043c6:	b510      	push	{r4, lr}
 80043c8:	4604      	mov	r4, r0
  if ( hpcd->Init.speed == PCD_SPEED_HIGH)
 80043ca:	68c3      	ldr	r3, [r0, #12]
 80043cc:	b12b      	cbz	r3, 80043da <HAL_PCD_ResetCallback+0x14>
  else if ( hpcd->Init.speed == PCD_SPEED_FULL)
 80043ce:	2b02      	cmp	r3, #2
 80043d0:	d00d      	beq.n	80043ee <HAL_PCD_ResetCallback+0x28>
    Error_Handler();
 80043d2:	f7ff fe61 	bl	8004098 <Error_Handler>
  USBD_SpeedTypeDef speed = USBD_SPEED_FULL;
 80043d6:	2101      	movs	r1, #1
 80043d8:	e000      	b.n	80043dc <HAL_PCD_ResetCallback+0x16>
    speed = USBD_SPEED_HIGH;
 80043da:	2100      	movs	r1, #0
  USBD_LL_SetSpeed((USBD_HandleTypeDef*)hpcd->pData, speed);
 80043dc:	f8d4 0400 	ldr.w	r0, [r4, #1024]	; 0x400
 80043e0:	f7ff f914 	bl	800360c <USBD_LL_SetSpeed>
  USBD_LL_Reset((USBD_HandleTypeDef*)hpcd->pData);
 80043e4:	f8d4 0400 	ldr.w	r0, [r4, #1024]	; 0x400
 80043e8:	f7ff f8e8 	bl	80035bc <USBD_LL_Reset>
}
 80043ec:	bd10      	pop	{r4, pc}
    speed = USBD_SPEED_FULL;
 80043ee:	2101      	movs	r1, #1
 80043f0:	e7f4      	b.n	80043dc <HAL_PCD_ResetCallback+0x16>
	...

080043f4 <HAL_PCD_SuspendCallback>:
{
 80043f4:	b510      	push	{r4, lr}
 80043f6:	4604      	mov	r4, r0
  USBD_LL_Suspend((USBD_HandleTypeDef*)hpcd->pData);
 80043f8:	f8d0 0400 	ldr.w	r0, [r0, #1024]	; 0x400
 80043fc:	f7ff f909 	bl	8003612 <USBD_LL_Suspend>
  __HAL_PCD_GATE_PHYCLOCK(hpcd);
 8004400:	6822      	ldr	r2, [r4, #0]
 8004402:	f8d2 3e00 	ldr.w	r3, [r2, #3584]	; 0xe00
 8004406:	f043 0301 	orr.w	r3, r3, #1
 800440a:	f8c2 3e00 	str.w	r3, [r2, #3584]	; 0xe00
  if (hpcd->Init.low_power_enable)
 800440e:	6a23      	ldr	r3, [r4, #32]
 8004410:	b123      	cbz	r3, 800441c <HAL_PCD_SuspendCallback+0x28>
    SCB->SCR |= (uint32_t)((uint32_t)(SCB_SCR_SLEEPDEEP_Msk | SCB_SCR_SLEEPONEXIT_Msk));
 8004412:	4a03      	ldr	r2, [pc, #12]	; (8004420 <HAL_PCD_SuspendCallback+0x2c>)
 8004414:	6913      	ldr	r3, [r2, #16]
 8004416:	f043 0306 	orr.w	r3, r3, #6
 800441a:	6113      	str	r3, [r2, #16]
}
 800441c:	bd10      	pop	{r4, pc}
 800441e:	bf00      	nop
 8004420:	e000ed00 	.word	0xe000ed00

08004424 <HAL_PCD_ResumeCallback>:
{
 8004424:	b508      	push	{r3, lr}
  USBD_LL_Resume((USBD_HandleTypeDef*)hpcd->pData);
 8004426:	f8d0 0400 	ldr.w	r0, [r0, #1024]	; 0x400
 800442a:	f7ff f8fb 	bl	8003624 <USBD_LL_Resume>
}
 800442e:	bd08      	pop	{r3, pc}

08004430 <HAL_PCD_ISOOUTIncompleteCallback>:
{
 8004430:	b508      	push	{r3, lr}
  USBD_LL_IsoOUTIncomplete((USBD_HandleTypeDef*)hpcd->pData, epnum);
 8004432:	f8d0 0400 	ldr.w	r0, [r0, #1024]	; 0x400
 8004436:	f7ff f90b 	bl	8003650 <USBD_LL_IsoOUTIncomplete>
}
 800443a:	bd08      	pop	{r3, pc}

0800443c <HAL_PCD_ISOINIncompleteCallback>:
{
 800443c:	b508      	push	{r3, lr}
  USBD_LL_IsoINIncomplete((USBD_HandleTypeDef*)hpcd->pData, epnum);
 800443e:	f8d0 0400 	ldr.w	r0, [r0, #1024]	; 0x400
 8004442:	f7ff f903 	bl	800364c <USBD_LL_IsoINIncomplete>
}
 8004446:	bd08      	pop	{r3, pc}

08004448 <HAL_PCD_ConnectCallback>:
{
 8004448:	b508      	push	{r3, lr}
  USBD_LL_DevConnected((USBD_HandleTypeDef*)hpcd->pData);
 800444a:	f8d0 0400 	ldr.w	r0, [r0, #1024]	; 0x400
 800444e:	f7ff f901 	bl	8003654 <USBD_LL_DevConnected>
}
 8004452:	bd08      	pop	{r3, pc}

08004454 <HAL_PCD_DisconnectCallback>:
{
 8004454:	b508      	push	{r3, lr}
  USBD_LL_DevDisconnected((USBD_HandleTypeDef*)hpcd->pData);
 8004456:	f8d0 0400 	ldr.w	r0, [r0, #1024]	; 0x400
 800445a:	f7ff f8fd 	bl	8003658 <USBD_LL_DevDisconnected>
}
 800445e:	bd08      	pop	{r3, pc}

08004460 <USBD_LL_Init>:
  if (pdev->id == DEVICE_FS) {
 8004460:	7803      	ldrb	r3, [r0, #0]
 8004462:	b10b      	cbz	r3, 8004468 <USBD_LL_Init+0x8>
}
 8004464:	2000      	movs	r0, #0
 8004466:	4770      	bx	lr
{
 8004468:	b510      	push	{r4, lr}
 800446a:	4603      	mov	r3, r0
  hpcd_USB_OTG_FS.pData = pdev;
 800446c:	4815      	ldr	r0, [pc, #84]	; (80044c4 <USBD_LL_Init+0x64>)
 800446e:	f8c0 3400 	str.w	r3, [r0, #1024]	; 0x400
  pdev->pData = &hpcd_USB_OTG_FS;
 8004472:	f8c3 0298 	str.w	r0, [r3, #664]	; 0x298
  hpcd_USB_OTG_FS.Instance = USB_OTG_FS;
 8004476:	f04f 43a0 	mov.w	r3, #1342177280	; 0x50000000
 800447a:	6003      	str	r3, [r0, #0]
  hpcd_USB_OTG_FS.Init.dev_endpoints = 6;
 800447c:	2306      	movs	r3, #6
 800447e:	6043      	str	r3, [r0, #4]
  hpcd_USB_OTG_FS.Init.dma_enable = DISABLE;
 8004480:	2300      	movs	r3, #0
 8004482:	6103      	str	r3, [r0, #16]
  hpcd_USB_OTG_FS.Init.phy_itface = PCD_PHY_EMBEDDED;
 8004484:	2202      	movs	r2, #2
 8004486:	6182      	str	r2, [r0, #24]
  hpcd_USB_OTG_FS.Init.Sof_enable = ENABLE;
 8004488:	2201      	movs	r2, #1
 800448a:	61c2      	str	r2, [r0, #28]
  hpcd_USB_OTG_FS.Init.low_power_enable = DISABLE;
 800448c:	6203      	str	r3, [r0, #32]
  hpcd_USB_OTG_FS.Init.lpm_enable = DISABLE;
 800448e:	6243      	str	r3, [r0, #36]	; 0x24
  hpcd_USB_OTG_FS.Init.battery_charging_enable = ENABLE;
 8004490:	6282      	str	r2, [r0, #40]	; 0x28
  hpcd_USB_OTG_FS.Init.vbus_sensing_enable = ENABLE;
 8004492:	62c2      	str	r2, [r0, #44]	; 0x2c
  hpcd_USB_OTG_FS.Init.use_dedicated_ep1 = DISABLE;
 8004494:	6303      	str	r3, [r0, #48]	; 0x30
  if (HAL_PCD_Init(&hpcd_USB_OTG_FS) != HAL_OK)
 8004496:	f7fc faad 	bl	80009f4 <HAL_PCD_Init>
 800449a:	b980      	cbnz	r0, 80044be <USBD_LL_Init+0x5e>
  HAL_PCDEx_SetRxFiFo(&hpcd_USB_OTG_FS, 0x80);
 800449c:	4c09      	ldr	r4, [pc, #36]	; (80044c4 <USBD_LL_Init+0x64>)
 800449e:	2180      	movs	r1, #128	; 0x80
 80044a0:	4620      	mov	r0, r4
 80044a2:	f7fc fffa 	bl	800149a <HAL_PCDEx_SetRxFiFo>
  HAL_PCDEx_SetTxFiFo(&hpcd_USB_OTG_FS, 0, 0x40);
 80044a6:	2240      	movs	r2, #64	; 0x40
 80044a8:	2100      	movs	r1, #0
 80044aa:	4620      	mov	r0, r4
 80044ac:	f7fc ffd1 	bl	8001452 <HAL_PCDEx_SetTxFiFo>
  HAL_PCDEx_SetTxFiFo(&hpcd_USB_OTG_FS, 1, 0x80);
 80044b0:	2280      	movs	r2, #128	; 0x80
 80044b2:	2101      	movs	r1, #1
 80044b4:	4620      	mov	r0, r4
 80044b6:	f7fc ffcc 	bl	8001452 <HAL_PCDEx_SetTxFiFo>
}
 80044ba:	2000      	movs	r0, #0
 80044bc:	bd10      	pop	{r4, pc}
    Error_Handler( );
 80044be:	f7ff fdeb 	bl	8004098 <Error_Handler>
 80044c2:	e7eb      	b.n	800449c <USBD_LL_Init+0x3c>
 80044c4:	20001748 	.word	0x20001748

080044c8 <USBD_LL_IsStallEP>:
  PCD_HandleTypeDef *hpcd = (PCD_HandleTypeDef*) pdev->pData;
 80044c8:	f8d0 3298 	ldr.w	r3, [r0, #664]	; 0x298
  if((ep_addr & 0x80) == 0x80)
 80044cc:	f011 0f80 	tst.w	r1, #128	; 0x80
 80044d0:	d108      	bne.n	80044e4 <USBD_LL_IsStallEP+0x1c>
    return hpcd->OUT_ep[ep_addr & 0x7F].is_stall; 
 80044d2:	f001 017f 	and.w	r1, r1, #127	; 0x7f
 80044d6:	ebc1 01c1 	rsb	r1, r1, r1, lsl #3
 80044da:	008a      	lsls	r2, r1, #2
 80044dc:	4413      	add	r3, r2
 80044de:	f893 01fe 	ldrb.w	r0, [r3, #510]	; 0x1fe
}
 80044e2:	4770      	bx	lr
    return hpcd->IN_ep[ep_addr & 0x7F].is_stall; 
 80044e4:	f001 017f 	and.w	r1, r1, #127	; 0x7f
 80044e8:	ebc1 01c1 	rsb	r1, r1, r1, lsl #3
 80044ec:	008a      	lsls	r2, r1, #2
 80044ee:	4413      	add	r3, r2
 80044f0:	f893 003e 	ldrb.w	r0, [r3, #62]	; 0x3e
 80044f4:	4770      	bx	lr

080044f6 <USBD_LL_GetRxDataSize>:
{
 80044f6:	b508      	push	{r3, lr}
  return HAL_PCD_EP_GetRxCount((PCD_HandleTypeDef*) pdev->pData, ep_addr);
 80044f8:	f8d0 0298 	ldr.w	r0, [r0, #664]	; 0x298
 80044fc:	f7fc fefe 	bl	80012fc <HAL_PCD_EP_GetRxCount>
}
 8004500:	bd08      	pop	{r3, pc}
	...

08004504 <HAL_PCDEx_LPM_Callback>:
{
 8004504:	b510      	push	{r4, lr}
 8004506:	4604      	mov	r4, r0
  switch (msg)
 8004508:	b111      	cbz	r1, 8004510 <HAL_PCDEx_LPM_Callback+0xc>
 800450a:	2901      	cmp	r1, #1
 800450c:	d016      	beq.n	800453c <HAL_PCDEx_LPM_Callback+0x38>
}
 800450e:	bd10      	pop	{r4, pc}
    if (hpcd->Init.low_power_enable)
 8004510:	6a03      	ldr	r3, [r0, #32]
 8004512:	b95b      	cbnz	r3, 800452c <HAL_PCDEx_LPM_Callback+0x28>
    __HAL_PCD_UNGATE_PHYCLOCK(hpcd);
 8004514:	6822      	ldr	r2, [r4, #0]
 8004516:	f8d2 3e00 	ldr.w	r3, [r2, #3584]	; 0xe00
 800451a:	f023 0301 	bic.w	r3, r3, #1
 800451e:	f8c2 3e00 	str.w	r3, [r2, #3584]	; 0xe00
    USBD_LL_Resume(hpcd->pData);
 8004522:	f8d4 0400 	ldr.w	r0, [r4, #1024]	; 0x400
 8004526:	f7ff f87d 	bl	8003624 <USBD_LL_Resume>
    break;
 800452a:	e7f0      	b.n	800450e <HAL_PCDEx_LPM_Callback+0xa>
      SystemClockConfig_Resume();
 800452c:	f7ff fed2 	bl	80042d4 <SystemClockConfig_Resume>
      SCB->SCR &= (uint32_t)~((uint32_t)(SCB_SCR_SLEEPDEEP_Msk | SCB_SCR_SLEEPONEXIT_Msk));
 8004530:	4a0c      	ldr	r2, [pc, #48]	; (8004564 <HAL_PCDEx_LPM_Callback+0x60>)
 8004532:	6913      	ldr	r3, [r2, #16]
 8004534:	f023 0306 	bic.w	r3, r3, #6
 8004538:	6113      	str	r3, [r2, #16]
 800453a:	e7eb      	b.n	8004514 <HAL_PCDEx_LPM_Callback+0x10>
    __HAL_PCD_GATE_PHYCLOCK(hpcd);
 800453c:	6802      	ldr	r2, [r0, #0]
 800453e:	f8d2 3e00 	ldr.w	r3, [r2, #3584]	; 0xe00
 8004542:	f043 0301 	orr.w	r3, r3, #1
 8004546:	f8c2 3e00 	str.w	r3, [r2, #3584]	; 0xe00
    USBD_LL_Suspend(hpcd->pData);
 800454a:	f8d0 0400 	ldr.w	r0, [r0, #1024]	; 0x400
 800454e:	f7ff f860 	bl	8003612 <USBD_LL_Suspend>
    if (hpcd->Init.low_power_enable)
 8004552:	6a23      	ldr	r3, [r4, #32]
 8004554:	2b00      	cmp	r3, #0
 8004556:	d0da      	beq.n	800450e <HAL_PCDEx_LPM_Callback+0xa>
      SCB->SCR |= (uint32_t)((uint32_t)(SCB_SCR_SLEEPDEEP_Msk | SCB_SCR_SLEEPONEXIT_Msk));
 8004558:	4a02      	ldr	r2, [pc, #8]	; (8004564 <HAL_PCDEx_LPM_Callback+0x60>)
 800455a:	6913      	ldr	r3, [r2, #16]
 800455c:	f043 0306 	orr.w	r3, r3, #6
 8004560:	6113      	str	r3, [r2, #16]
}
 8004562:	e7d4      	b.n	800450e <HAL_PCDEx_LPM_Callback+0xa>
 8004564:	e000ed00 	.word	0xe000ed00

08004568 <USBD_Get_USB_Status>:
  */
USBD_StatusTypeDef USBD_Get_USB_Status(HAL_StatusTypeDef hal_status)
{
  USBD_StatusTypeDef usb_status = USBD_OK;

  switch (hal_status)
 8004568:	b118      	cbz	r0, 8004572 <USBD_Get_USB_Status+0xa>
 800456a:	2802      	cmp	r0, #2
 800456c:	d003      	beq.n	8004576 <USBD_Get_USB_Status+0xe>
  {
    case HAL_OK :
      usb_status = USBD_OK;
    break;
    case HAL_ERROR :
      usb_status = USBD_FAIL;
 800456e:	2002      	movs	r0, #2
    default :
      usb_status = USBD_FAIL;
    break;
  }
  return usb_status;
}
 8004570:	4770      	bx	lr
      usb_status = USBD_OK;
 8004572:	2000      	movs	r0, #0
 8004574:	4770      	bx	lr
      usb_status = USBD_BUSY;
 8004576:	2001      	movs	r0, #1
    break;
 8004578:	4770      	bx	lr

0800457a <USBD_LL_Start>:
{
 800457a:	b508      	push	{r3, lr}
  hal_status = HAL_PCD_Start(pdev->pData);
 800457c:	f8d0 0298 	ldr.w	r0, [r0, #664]	; 0x298
 8004580:	f7fc fac9 	bl	8000b16 <HAL_PCD_Start>
  usb_status =  USBD_Get_USB_Status(hal_status);     
 8004584:	f7ff fff0 	bl	8004568 <USBD_Get_USB_Status>
}
 8004588:	bd08      	pop	{r3, pc}

0800458a <USBD_LL_OpenEP>:
{
 800458a:	b510      	push	{r4, lr}
 800458c:	461c      	mov	r4, r3
  hal_status = HAL_PCD_EP_Open(pdev->pData, ep_addr, ep_mps, ep_type);
 800458e:	4613      	mov	r3, r2
 8004590:	4622      	mov	r2, r4
 8004592:	f8d0 0298 	ldr.w	r0, [r0, #664]	; 0x298
 8004596:	f7fc fe0b 	bl	80011b0 <HAL_PCD_EP_Open>
  usb_status =  USBD_Get_USB_Status(hal_status);
 800459a:	f7ff ffe5 	bl	8004568 <USBD_Get_USB_Status>
}
 800459e:	bd10      	pop	{r4, pc}

080045a0 <USBD_LL_CloseEP>:
{
 80045a0:	b508      	push	{r3, lr}
  hal_status = HAL_PCD_EP_Close(pdev->pData, ep_addr);
 80045a2:	f8d0 0298 	ldr.w	r0, [r0, #664]	; 0x298
 80045a6:	f7fc fe44 	bl	8001232 <HAL_PCD_EP_Close>
  usb_status =  USBD_Get_USB_Status(hal_status);    
 80045aa:	f7ff ffdd 	bl	8004568 <USBD_Get_USB_Status>
}
 80045ae:	bd08      	pop	{r3, pc}

080045b0 <USBD_LL_StallEP>:
{
 80045b0:	b508      	push	{r3, lr}
  hal_status = HAL_PCD_EP_SetStall(pdev->pData, ep_addr);
 80045b2:	f8d0 0298 	ldr.w	r0, [r0, #664]	; 0x298
 80045b6:	f7fc fed4 	bl	8001362 <HAL_PCD_EP_SetStall>
  usb_status =  USBD_Get_USB_Status(hal_status);
 80045ba:	f7ff ffd5 	bl	8004568 <USBD_Get_USB_Status>
}
 80045be:	bd08      	pop	{r3, pc}

080045c0 <USBD_LL_ClearStallEP>:
{
 80045c0:	b508      	push	{r3, lr}
  hal_status = HAL_PCD_EP_ClrStall(pdev->pData, ep_addr);
 80045c2:	f8d0 0298 	ldr.w	r0, [r0, #664]	; 0x298
 80045c6:	f7fc ff0d 	bl	80013e4 <HAL_PCD_EP_ClrStall>
  usb_status =  USBD_Get_USB_Status(hal_status);  
 80045ca:	f7ff ffcd 	bl	8004568 <USBD_Get_USB_Status>
}
 80045ce:	bd08      	pop	{r3, pc}

080045d0 <USBD_LL_SetUSBAddress>:
{
 80045d0:	b508      	push	{r3, lr}
  hal_status = HAL_PCD_SetAddress(pdev->pData, dev_addr);
 80045d2:	f8d0 0298 	ldr.w	r0, [r0, #664]	; 0x298
 80045d6:	f7fc fdd7 	bl	8001188 <HAL_PCD_SetAddress>
  usb_status =  USBD_Get_USB_Status(hal_status);
 80045da:	f7ff ffc5 	bl	8004568 <USBD_Get_USB_Status>
}
 80045de:	bd08      	pop	{r3, pc}

080045e0 <USBD_LL_Transmit>:
{
 80045e0:	b508      	push	{r3, lr}
  hal_status = HAL_PCD_EP_Transmit(pdev->pData, ep_addr, pbuf, size);
 80045e2:	f8d0 0298 	ldr.w	r0, [r0, #664]	; 0x298
 80045e6:	f7fc fe92 	bl	800130e <HAL_PCD_EP_Transmit>
  usb_status =  USBD_Get_USB_Status(hal_status); 
 80045ea:	f7ff ffbd 	bl	8004568 <USBD_Get_USB_Status>
}
 80045ee:	bd08      	pop	{r3, pc}

080045f0 <USBD_LL_PrepareReceive>:
{
 80045f0:	b508      	push	{r3, lr}
  hal_status = HAL_PCD_EP_Receive(pdev->pData, ep_addr, pbuf, size);
 80045f2:	f8d0 0298 	ldr.w	r0, [r0, #664]	; 0x298
 80045f6:	f7fc fe53 	bl	80012a0 <HAL_PCD_EP_Receive>
  usb_status =  USBD_Get_USB_Status(hal_status);   
 80045fa:	f7ff ffb5 	bl	8004568 <USBD_Get_USB_Status>
}
 80045fe:	bd08      	pop	{r3, pc}

08004600 <USBD_FS_DeviceDescriptor>:
  * @retval Pointer to descriptor buffer
  */
uint8_t * USBD_FS_DeviceDescriptor(USBD_SpeedTypeDef speed, uint16_t *length)
{
  UNUSED(speed);
  *length = sizeof(USBD_FS_DeviceDesc);
 8004600:	2312      	movs	r3, #18
 8004602:	800b      	strh	r3, [r1, #0]
  return USBD_FS_DeviceDesc;
}
 8004604:	4800      	ldr	r0, [pc, #0]	; (8004608 <USBD_FS_DeviceDescriptor+0x8>)
 8004606:	4770      	bx	lr
 8004608:	2000012c 	.word	0x2000012c

0800460c <USBD_FS_LangIDStrDescriptor>:
  * @retval Pointer to descriptor buffer
  */
uint8_t * USBD_FS_LangIDStrDescriptor(USBD_SpeedTypeDef speed, uint16_t *length)
{
  UNUSED(speed);
  *length = sizeof(USBD_LangIDDesc);
 800460c:	2304      	movs	r3, #4
 800460e:	800b      	strh	r3, [r1, #0]
  return USBD_LangIDDesc;
}
 8004610:	4800      	ldr	r0, [pc, #0]	; (8004614 <USBD_FS_LangIDStrDescriptor+0x8>)
 8004612:	4770      	bx	lr
 8004614:	20000140 	.word	0x20000140

08004618 <USBD_FS_USR_BOSDescriptor>:
  * @retval Pointer to descriptor buffer
  */
uint8_t * USBD_FS_USR_BOSDescriptor(USBD_SpeedTypeDef speed, uint16_t *length)
{
  UNUSED(speed);
  *length = sizeof(USBD_FS_BOSDesc);
 8004618:	230c      	movs	r3, #12
 800461a:	800b      	strh	r3, [r1, #0]
  return (uint8_t*)USBD_FS_BOSDesc;
}
 800461c:	4800      	ldr	r0, [pc, #0]	; (8004620 <USBD_FS_USR_BOSDescriptor+0x8>)
 800461e:	4770      	bx	lr
 8004620:	20000144 	.word	0x20000144

08004624 <IntToUnicode>:
  */
static void IntToUnicode(uint32_t value, uint8_t * pbuf, uint8_t len)
{
  uint8_t idx = 0;

  for (idx = 0; idx < len; idx++)
 8004624:	2300      	movs	r3, #0
 8004626:	4293      	cmp	r3, r2
 8004628:	d216      	bcs.n	8004658 <IntToUnicode+0x34>
{
 800462a:	b430      	push	{r4, r5}
 800462c:	e00b      	b.n	8004646 <IntToUnicode+0x22>
    {
      pbuf[2 * idx] = (value >> 28) + '0';
    }
    else
    {
      pbuf[2 * idx] = (value >> 28) + 'A' - 10;
 800462e:	3437      	adds	r4, #55	; 0x37
 8004630:	f801 4013 	strb.w	r4, [r1, r3, lsl #1]
    }

    value = value << 4;
 8004634:	0100      	lsls	r0, r0, #4

    pbuf[2 * idx + 1] = 0;
 8004636:	005c      	lsls	r4, r3, #1
 8004638:	3401      	adds	r4, #1
 800463a:	2500      	movs	r5, #0
 800463c:	550d      	strb	r5, [r1, r4]
  for (idx = 0; idx < len; idx++)
 800463e:	3301      	adds	r3, #1
 8004640:	b2db      	uxtb	r3, r3
 8004642:	4293      	cmp	r3, r2
 8004644:	d206      	bcs.n	8004654 <IntToUnicode+0x30>
    if (((value >> 28)) < 0xA)
 8004646:	0f04      	lsrs	r4, r0, #28
 8004648:	2c09      	cmp	r4, #9
 800464a:	d8f0      	bhi.n	800462e <IntToUnicode+0xa>
      pbuf[2 * idx] = (value >> 28) + '0';
 800464c:	3430      	adds	r4, #48	; 0x30
 800464e:	f801 4013 	strb.w	r4, [r1, r3, lsl #1]
 8004652:	e7ef      	b.n	8004634 <IntToUnicode+0x10>
  }
}
 8004654:	bc30      	pop	{r4, r5}
 8004656:	4770      	bx	lr
 8004658:	4770      	bx	lr
	...

0800465c <Get_SerialNum>:
{
 800465c:	b538      	push	{r3, r4, r5, lr}
  deviceserial0 = *(uint32_t *) DEVICE_ID1;
 800465e:	4b0b      	ldr	r3, [pc, #44]	; (800468c <Get_SerialNum+0x30>)
 8004660:	6818      	ldr	r0, [r3, #0]
  deviceserial1 = *(uint32_t *) DEVICE_ID2;
 8004662:	3304      	adds	r3, #4
 8004664:	681c      	ldr	r4, [r3, #0]
  deviceserial2 = *(uint32_t *) DEVICE_ID3;
 8004666:	3304      	adds	r3, #4
 8004668:	681b      	ldr	r3, [r3, #0]
  if (deviceserial0 != 0)
 800466a:	18c0      	adds	r0, r0, r3
 800466c:	d100      	bne.n	8004670 <Get_SerialNum+0x14>
}
 800466e:	bd38      	pop	{r3, r4, r5, pc}
    IntToUnicode(deviceserial0, &USBD_StringSerial[2], 8);
 8004670:	4d07      	ldr	r5, [pc, #28]	; (8004690 <Get_SerialNum+0x34>)
 8004672:	2208      	movs	r2, #8
 8004674:	f105 0126 	add.w	r1, r5, #38	; 0x26
 8004678:	f7ff ffd4 	bl	8004624 <IntToUnicode>
    IntToUnicode(deviceserial1, &USBD_StringSerial[18], 4);
 800467c:	2204      	movs	r2, #4
 800467e:	f105 0136 	add.w	r1, r5, #54	; 0x36
 8004682:	4620      	mov	r0, r4
 8004684:	f7ff ffce 	bl	8004624 <IntToUnicode>
}
 8004688:	e7f1      	b.n	800466e <Get_SerialNum+0x12>
 800468a:	bf00      	nop
 800468c:	1ff07a10 	.word	0x1ff07a10
 8004690:	2000012c 	.word	0x2000012c

08004694 <USBD_FS_SerialStrDescriptor>:
{
 8004694:	b508      	push	{r3, lr}
  *length = USB_SIZ_STRING_SERIAL;
 8004696:	231a      	movs	r3, #26
 8004698:	800b      	strh	r3, [r1, #0]
  Get_SerialNum();
 800469a:	f7ff ffdf 	bl	800465c <Get_SerialNum>
}
 800469e:	4801      	ldr	r0, [pc, #4]	; (80046a4 <USBD_FS_SerialStrDescriptor+0x10>)
 80046a0:	bd08      	pop	{r3, pc}
 80046a2:	bf00      	nop
 80046a4:	20000150 	.word	0x20000150

080046a8 <USBD_FS_ProductStrDescriptor>:
{
 80046a8:	b508      	push	{r3, lr}
 80046aa:	460a      	mov	r2, r1
  if(speed == 0)
 80046ac:	b128      	cbz	r0, 80046ba <USBD_FS_ProductStrDescriptor+0x12>
    USBD_GetString((uint8_t *)USBD_PRODUCT_STRING_FS, USBD_StrDesc, length);
 80046ae:	4905      	ldr	r1, [pc, #20]	; (80046c4 <USBD_FS_ProductStrDescriptor+0x1c>)
 80046b0:	4805      	ldr	r0, [pc, #20]	; (80046c8 <USBD_FS_ProductStrDescriptor+0x20>)
 80046b2:	f7ff fb0a 	bl	8003cca <USBD_GetString>
}
 80046b6:	4803      	ldr	r0, [pc, #12]	; (80046c4 <USBD_FS_ProductStrDescriptor+0x1c>)
 80046b8:	bd08      	pop	{r3, pc}
    USBD_GetString((uint8_t *)USBD_PRODUCT_STRING_FS, USBD_StrDesc, length);
 80046ba:	4902      	ldr	r1, [pc, #8]	; (80046c4 <USBD_FS_ProductStrDescriptor+0x1c>)
 80046bc:	4802      	ldr	r0, [pc, #8]	; (80046c8 <USBD_FS_ProductStrDescriptor+0x20>)
 80046be:	f7ff fb04 	bl	8003cca <USBD_GetString>
 80046c2:	e7f8      	b.n	80046b6 <USBD_FS_ProductStrDescriptor+0xe>
 80046c4:	20001b4c 	.word	0x20001b4c
 80046c8:	080050a4 	.word	0x080050a4

080046cc <USBD_FS_ManufacturerStrDescriptor>:
{
 80046cc:	b510      	push	{r4, lr}
  USBD_GetString((uint8_t *)USBD_MANUFACTURER_STRING, USBD_StrDesc, length);
 80046ce:	4c04      	ldr	r4, [pc, #16]	; (80046e0 <USBD_FS_ManufacturerStrDescriptor+0x14>)
 80046d0:	460a      	mov	r2, r1
 80046d2:	4621      	mov	r1, r4
 80046d4:	4803      	ldr	r0, [pc, #12]	; (80046e4 <USBD_FS_ManufacturerStrDescriptor+0x18>)
 80046d6:	f7ff faf8 	bl	8003cca <USBD_GetString>
}
 80046da:	4620      	mov	r0, r4
 80046dc:	bd10      	pop	{r4, pc}
 80046de:	bf00      	nop
 80046e0:	20001b4c 	.word	0x20001b4c
 80046e4:	080050bc 	.word	0x080050bc

080046e8 <USBD_FS_ConfigStrDescriptor>:
{
 80046e8:	b508      	push	{r3, lr}
 80046ea:	460a      	mov	r2, r1
  if(speed == USBD_SPEED_HIGH)
 80046ec:	b128      	cbz	r0, 80046fa <USBD_FS_ConfigStrDescriptor+0x12>
    USBD_GetString((uint8_t *)USBD_CONFIGURATION_STRING_FS, USBD_StrDesc, length);
 80046ee:	4905      	ldr	r1, [pc, #20]	; (8004704 <USBD_FS_ConfigStrDescriptor+0x1c>)
 80046f0:	4805      	ldr	r0, [pc, #20]	; (8004708 <USBD_FS_ConfigStrDescriptor+0x20>)
 80046f2:	f7ff faea 	bl	8003cca <USBD_GetString>
}
 80046f6:	4803      	ldr	r0, [pc, #12]	; (8004704 <USBD_FS_ConfigStrDescriptor+0x1c>)
 80046f8:	bd08      	pop	{r3, pc}
    USBD_GetString((uint8_t *)USBD_CONFIGURATION_STRING_FS, USBD_StrDesc, length);
 80046fa:	4902      	ldr	r1, [pc, #8]	; (8004704 <USBD_FS_ConfigStrDescriptor+0x1c>)
 80046fc:	4802      	ldr	r0, [pc, #8]	; (8004708 <USBD_FS_ConfigStrDescriptor+0x20>)
 80046fe:	f7ff fae4 	bl	8003cca <USBD_GetString>
 8004702:	e7f8      	b.n	80046f6 <USBD_FS_ConfigStrDescriptor+0xe>
 8004704:	20001b4c 	.word	0x20001b4c
 8004708:	080050d0 	.word	0x080050d0

0800470c <USBD_FS_InterfaceStrDescriptor>:
{
 800470c:	b508      	push	{r3, lr}
 800470e:	460a      	mov	r2, r1
  if(speed == 0)
 8004710:	b128      	cbz	r0, 800471e <USBD_FS_InterfaceStrDescriptor+0x12>
    USBD_GetString((uint8_t *)USBD_INTERFACE_STRING_FS, USBD_StrDesc, length);
 8004712:	4905      	ldr	r1, [pc, #20]	; (8004728 <USBD_FS_InterfaceStrDescriptor+0x1c>)
 8004714:	4805      	ldr	r0, [pc, #20]	; (800472c <USBD_FS_InterfaceStrDescriptor+0x20>)
 8004716:	f7ff fad8 	bl	8003cca <USBD_GetString>
}
 800471a:	4803      	ldr	r0, [pc, #12]	; (8004728 <USBD_FS_InterfaceStrDescriptor+0x1c>)
 800471c:	bd08      	pop	{r3, pc}
    USBD_GetString((uint8_t *)USBD_INTERFACE_STRING_FS, USBD_StrDesc, length);
 800471e:	4902      	ldr	r1, [pc, #8]	; (8004728 <USBD_FS_InterfaceStrDescriptor+0x1c>)
 8004720:	4802      	ldr	r0, [pc, #8]	; (800472c <USBD_FS_InterfaceStrDescriptor+0x20>)
 8004722:	f7ff fad2 	bl	8003cca <USBD_GetString>
 8004726:	e7f8      	b.n	800471a <USBD_FS_InterfaceStrDescriptor+0xe>
 8004728:	20001b4c 	.word	0x20001b4c
 800472c:	080050dc 	.word	0x080050dc

08004730 <Reset_Handler>:

    .section  .text.Reset_Handler
  .weak  Reset_Handler
  .type  Reset_Handler, %function
Reset_Handler:  
  ldr   sp, =_estack      /* set stack pointer */
 8004730:	f8df d034 	ldr.w	sp, [pc, #52]	; 8004768 <LoopFillZerobss+0x14>

/* Copy the data segment initializers from flash to SRAM */  
  movs  r1, #0
 8004734:	2100      	movs	r1, #0
  b  LoopCopyDataInit
 8004736:	e003      	b.n	8004740 <LoopCopyDataInit>

08004738 <CopyDataInit>:

CopyDataInit:
  ldr  r3, =_sidata
 8004738:	4b0c      	ldr	r3, [pc, #48]	; (800476c <LoopFillZerobss+0x18>)
  ldr  r3, [r3, r1]
 800473a:	585b      	ldr	r3, [r3, r1]
  str  r3, [r0, r1]
 800473c:	5043      	str	r3, [r0, r1]
  adds  r1, r1, #4
 800473e:	3104      	adds	r1, #4

08004740 <LoopCopyDataInit>:
    
LoopCopyDataInit:
  ldr  r0, =_sdata
 8004740:	480b      	ldr	r0, [pc, #44]	; (8004770 <LoopFillZerobss+0x1c>)
  ldr  r3, =_edata
 8004742:	4b0c      	ldr	r3, [pc, #48]	; (8004774 <LoopFillZerobss+0x20>)
  adds  r2, r0, r1
 8004744:	1842      	adds	r2, r0, r1
  cmp  r2, r3
 8004746:	429a      	cmp	r2, r3
  bcc  CopyDataInit
 8004748:	d3f6      	bcc.n	8004738 <CopyDataInit>
  ldr  r2, =_sbss
 800474a:	4a0b      	ldr	r2, [pc, #44]	; (8004778 <LoopFillZerobss+0x24>)
  b  LoopFillZerobss
 800474c:	e002      	b.n	8004754 <LoopFillZerobss>

0800474e <FillZerobss>:
/* Zero fill the bss segment. */  
FillZerobss:
  movs  r3, #0
 800474e:	2300      	movs	r3, #0
  str  r3, [r2], #4
 8004750:	f842 3b04 	str.w	r3, [r2], #4

08004754 <LoopFillZerobss>:
    
LoopFillZerobss:
  ldr  r3, = _ebss
 8004754:	4b09      	ldr	r3, [pc, #36]	; (800477c <LoopFillZerobss+0x28>)
  cmp  r2, r3
 8004756:	429a      	cmp	r2, r3
  bcc  FillZerobss
 8004758:	d3f9      	bcc.n	800474e <FillZerobss>

/* Call the clock system intitialization function.*/
  bl  SystemInit   
 800475a:	f7ff fd1f 	bl	800419c <SystemInit>
/* Call static constructors */
    bl __libc_init_array
 800475e:	f000 f817 	bl	8004790 <__libc_init_array>
/* Call the application's entry point.*/
  bl  main
 8004762:	f7ff fc43 	bl	8003fec <main>
  bx  lr    
 8004766:	4770      	bx	lr
  ldr   sp, =_estack      /* set stack pointer */
 8004768:	20040000 	.word	0x20040000
  ldr  r3, =_sidata
 800476c:	08005130 	.word	0x08005130
  ldr  r0, =_sdata
 8004770:	20000000 	.word	0x20000000
  ldr  r3, =_edata
 8004774:	200001f0 	.word	0x200001f0
  ldr  r2, =_sbss
 8004778:	200001f0 	.word	0x200001f0
  ldr  r3, = _ebss
 800477c:	20001d50 	.word	0x20001d50

08004780 <ADC_IRQHandler>:
 * @retval None       
*/
    .section  .text.Default_Handler,"ax",%progbits
Default_Handler:
Infinite_Loop:
  b  Infinite_Loop
 8004780:	e7fe      	b.n	8004780 <ADC_IRQHandler>
	...

08004784 <__errno>:
 8004784:	4b01      	ldr	r3, [pc, #4]	; (800478c <__errno+0x8>)
 8004786:	6818      	ldr	r0, [r3, #0]
 8004788:	4770      	bx	lr
 800478a:	bf00      	nop
 800478c:	2000018c 	.word	0x2000018c

08004790 <__libc_init_array>:
 8004790:	b570      	push	{r4, r5, r6, lr}
 8004792:	4e0d      	ldr	r6, [pc, #52]	; (80047c8 <__libc_init_array+0x38>)
 8004794:	4c0d      	ldr	r4, [pc, #52]	; (80047cc <__libc_init_array+0x3c>)
 8004796:	1ba4      	subs	r4, r4, r6
 8004798:	10a4      	asrs	r4, r4, #2
 800479a:	2500      	movs	r5, #0
 800479c:	42a5      	cmp	r5, r4
 800479e:	d109      	bne.n	80047b4 <__libc_init_array+0x24>
 80047a0:	4e0b      	ldr	r6, [pc, #44]	; (80047d0 <__libc_init_array+0x40>)
 80047a2:	4c0c      	ldr	r4, [pc, #48]	; (80047d4 <__libc_init_array+0x44>)
 80047a4:	f000 fc48 	bl	8005038 <_init>
 80047a8:	1ba4      	subs	r4, r4, r6
 80047aa:	10a4      	asrs	r4, r4, #2
 80047ac:	2500      	movs	r5, #0
 80047ae:	42a5      	cmp	r5, r4
 80047b0:	d105      	bne.n	80047be <__libc_init_array+0x2e>
 80047b2:	bd70      	pop	{r4, r5, r6, pc}
 80047b4:	f856 3025 	ldr.w	r3, [r6, r5, lsl #2]
 80047b8:	4798      	blx	r3
 80047ba:	3501      	adds	r5, #1
 80047bc:	e7ee      	b.n	800479c <__libc_init_array+0xc>
 80047be:	f856 3025 	ldr.w	r3, [r6, r5, lsl #2]
 80047c2:	4798      	blx	r3
 80047c4:	3501      	adds	r5, #1
 80047c6:	e7f2      	b.n	80047ae <__libc_init_array+0x1e>
 80047c8:	08005128 	.word	0x08005128
 80047cc:	08005128 	.word	0x08005128
 80047d0:	08005128 	.word	0x08005128
 80047d4:	0800512c 	.word	0x0800512c

080047d8 <malloc>:
 80047d8:	4b02      	ldr	r3, [pc, #8]	; (80047e4 <malloc+0xc>)
 80047da:	4601      	mov	r1, r0
 80047dc:	6818      	ldr	r0, [r3, #0]
 80047de:	f000 b861 	b.w	80048a4 <_malloc_r>
 80047e2:	bf00      	nop
 80047e4:	2000018c 	.word	0x2000018c

080047e8 <free>:
 80047e8:	4b02      	ldr	r3, [pc, #8]	; (80047f4 <free+0xc>)
 80047ea:	4601      	mov	r1, r0
 80047ec:	6818      	ldr	r0, [r3, #0]
 80047ee:	f000 b80b 	b.w	8004808 <_free_r>
 80047f2:	bf00      	nop
 80047f4:	2000018c 	.word	0x2000018c

080047f8 <memset>:
 80047f8:	4402      	add	r2, r0
 80047fa:	4603      	mov	r3, r0
 80047fc:	4293      	cmp	r3, r2
 80047fe:	d100      	bne.n	8004802 <memset+0xa>
 8004800:	4770      	bx	lr
 8004802:	f803 1b01 	strb.w	r1, [r3], #1
 8004806:	e7f9      	b.n	80047fc <memset+0x4>

08004808 <_free_r>:
 8004808:	b538      	push	{r3, r4, r5, lr}
 800480a:	4605      	mov	r5, r0
 800480c:	2900      	cmp	r1, #0
 800480e:	d045      	beq.n	800489c <_free_r+0x94>
 8004810:	f851 3c04 	ldr.w	r3, [r1, #-4]
 8004814:	1f0c      	subs	r4, r1, #4
 8004816:	2b00      	cmp	r3, #0
 8004818:	bfb8      	it	lt
 800481a:	18e4      	addlt	r4, r4, r3
 800481c:	f000 f8de 	bl	80049dc <__malloc_lock>
 8004820:	4a1f      	ldr	r2, [pc, #124]	; (80048a0 <_free_r+0x98>)
 8004822:	6813      	ldr	r3, [r2, #0]
 8004824:	4610      	mov	r0, r2
 8004826:	b933      	cbnz	r3, 8004836 <_free_r+0x2e>
 8004828:	6063      	str	r3, [r4, #4]
 800482a:	6014      	str	r4, [r2, #0]
 800482c:	4628      	mov	r0, r5
 800482e:	e8bd 4038 	ldmia.w	sp!, {r3, r4, r5, lr}
 8004832:	f000 b8d4 	b.w	80049de <__malloc_unlock>
 8004836:	42a3      	cmp	r3, r4
 8004838:	d90c      	bls.n	8004854 <_free_r+0x4c>
 800483a:	6821      	ldr	r1, [r4, #0]
 800483c:	1862      	adds	r2, r4, r1
 800483e:	4293      	cmp	r3, r2
 8004840:	bf04      	itt	eq
 8004842:	681a      	ldreq	r2, [r3, #0]
 8004844:	685b      	ldreq	r3, [r3, #4]
 8004846:	6063      	str	r3, [r4, #4]
 8004848:	bf04      	itt	eq
 800484a:	1852      	addeq	r2, r2, r1
 800484c:	6022      	streq	r2, [r4, #0]
 800484e:	6004      	str	r4, [r0, #0]
 8004850:	e7ec      	b.n	800482c <_free_r+0x24>
 8004852:	4613      	mov	r3, r2
 8004854:	685a      	ldr	r2, [r3, #4]
 8004856:	b10a      	cbz	r2, 800485c <_free_r+0x54>
 8004858:	42a2      	cmp	r2, r4
 800485a:	d9fa      	bls.n	8004852 <_free_r+0x4a>
 800485c:	6819      	ldr	r1, [r3, #0]
 800485e:	1858      	adds	r0, r3, r1
 8004860:	42a0      	cmp	r0, r4
 8004862:	d10b      	bne.n	800487c <_free_r+0x74>
 8004864:	6820      	ldr	r0, [r4, #0]
 8004866:	4401      	add	r1, r0
 8004868:	1858      	adds	r0, r3, r1
 800486a:	4282      	cmp	r2, r0
 800486c:	6019      	str	r1, [r3, #0]
 800486e:	d1dd      	bne.n	800482c <_free_r+0x24>
 8004870:	6810      	ldr	r0, [r2, #0]
 8004872:	6852      	ldr	r2, [r2, #4]
 8004874:	605a      	str	r2, [r3, #4]
 8004876:	4401      	add	r1, r0
 8004878:	6019      	str	r1, [r3, #0]
 800487a:	e7d7      	b.n	800482c <_free_r+0x24>
 800487c:	d902      	bls.n	8004884 <_free_r+0x7c>
 800487e:	230c      	movs	r3, #12
 8004880:	602b      	str	r3, [r5, #0]
 8004882:	e7d3      	b.n	800482c <_free_r+0x24>
 8004884:	6820      	ldr	r0, [r4, #0]
 8004886:	1821      	adds	r1, r4, r0
 8004888:	428a      	cmp	r2, r1
 800488a:	bf04      	itt	eq
 800488c:	6811      	ldreq	r1, [r2, #0]
 800488e:	6852      	ldreq	r2, [r2, #4]
 8004890:	6062      	str	r2, [r4, #4]
 8004892:	bf04      	itt	eq
 8004894:	1809      	addeq	r1, r1, r0
 8004896:	6021      	streq	r1, [r4, #0]
 8004898:	605c      	str	r4, [r3, #4]
 800489a:	e7c7      	b.n	800482c <_free_r+0x24>
 800489c:	bd38      	pop	{r3, r4, r5, pc}
 800489e:	bf00      	nop
 80048a0:	20000220 	.word	0x20000220

080048a4 <_malloc_r>:
 80048a4:	b570      	push	{r4, r5, r6, lr}
 80048a6:	1ccd      	adds	r5, r1, #3
 80048a8:	f025 0503 	bic.w	r5, r5, #3
 80048ac:	3508      	adds	r5, #8
 80048ae:	2d0c      	cmp	r5, #12
 80048b0:	bf38      	it	cc
 80048b2:	250c      	movcc	r5, #12
 80048b4:	2d00      	cmp	r5, #0
 80048b6:	4606      	mov	r6, r0
 80048b8:	db01      	blt.n	80048be <_malloc_r+0x1a>
 80048ba:	42a9      	cmp	r1, r5
 80048bc:	d903      	bls.n	80048c6 <_malloc_r+0x22>
 80048be:	230c      	movs	r3, #12
 80048c0:	6033      	str	r3, [r6, #0]
 80048c2:	2000      	movs	r0, #0
 80048c4:	bd70      	pop	{r4, r5, r6, pc}
 80048c6:	f000 f889 	bl	80049dc <__malloc_lock>
 80048ca:	4a21      	ldr	r2, [pc, #132]	; (8004950 <_malloc_r+0xac>)
 80048cc:	6814      	ldr	r4, [r2, #0]
 80048ce:	4621      	mov	r1, r4
 80048d0:	b991      	cbnz	r1, 80048f8 <_malloc_r+0x54>
 80048d2:	4c20      	ldr	r4, [pc, #128]	; (8004954 <_malloc_r+0xb0>)
 80048d4:	6823      	ldr	r3, [r4, #0]
 80048d6:	b91b      	cbnz	r3, 80048e0 <_malloc_r+0x3c>
 80048d8:	4630      	mov	r0, r6
 80048da:	f000 f83d 	bl	8004958 <_sbrk_r>
 80048de:	6020      	str	r0, [r4, #0]
 80048e0:	4629      	mov	r1, r5
 80048e2:	4630      	mov	r0, r6
 80048e4:	f000 f838 	bl	8004958 <_sbrk_r>
 80048e8:	1c43      	adds	r3, r0, #1
 80048ea:	d124      	bne.n	8004936 <_malloc_r+0x92>
 80048ec:	230c      	movs	r3, #12
 80048ee:	6033      	str	r3, [r6, #0]
 80048f0:	4630      	mov	r0, r6
 80048f2:	f000 f874 	bl	80049de <__malloc_unlock>
 80048f6:	e7e4      	b.n	80048c2 <_malloc_r+0x1e>
 80048f8:	680b      	ldr	r3, [r1, #0]
 80048fa:	1b5b      	subs	r3, r3, r5
 80048fc:	d418      	bmi.n	8004930 <_malloc_r+0x8c>
 80048fe:	2b0b      	cmp	r3, #11
 8004900:	d90f      	bls.n	8004922 <_malloc_r+0x7e>
 8004902:	600b      	str	r3, [r1, #0]
 8004904:	50cd      	str	r5, [r1, r3]
 8004906:	18cc      	adds	r4, r1, r3
 8004908:	4630      	mov	r0, r6
 800490a:	f000 f868 	bl	80049de <__malloc_unlock>
 800490e:	f104 000b 	add.w	r0, r4, #11
 8004912:	1d23      	adds	r3, r4, #4
 8004914:	f020 0007 	bic.w	r0, r0, #7
 8004918:	1ac3      	subs	r3, r0, r3
 800491a:	d0d3      	beq.n	80048c4 <_malloc_r+0x20>
 800491c:	425a      	negs	r2, r3
 800491e:	50e2      	str	r2, [r4, r3]
 8004920:	e7d0      	b.n	80048c4 <_malloc_r+0x20>
 8004922:	428c      	cmp	r4, r1
 8004924:	684b      	ldr	r3, [r1, #4]
 8004926:	bf16      	itet	ne
 8004928:	6063      	strne	r3, [r4, #4]
 800492a:	6013      	streq	r3, [r2, #0]
 800492c:	460c      	movne	r4, r1
 800492e:	e7eb      	b.n	8004908 <_malloc_r+0x64>
 8004930:	460c      	mov	r4, r1
 8004932:	6849      	ldr	r1, [r1, #4]
 8004934:	e7cc      	b.n	80048d0 <_malloc_r+0x2c>
 8004936:	1cc4      	adds	r4, r0, #3
 8004938:	f024 0403 	bic.w	r4, r4, #3
 800493c:	42a0      	cmp	r0, r4
 800493e:	d005      	beq.n	800494c <_malloc_r+0xa8>
 8004940:	1a21      	subs	r1, r4, r0
 8004942:	4630      	mov	r0, r6
 8004944:	f000 f808 	bl	8004958 <_sbrk_r>
 8004948:	3001      	adds	r0, #1
 800494a:	d0cf      	beq.n	80048ec <_malloc_r+0x48>
 800494c:	6025      	str	r5, [r4, #0]
 800494e:	e7db      	b.n	8004908 <_malloc_r+0x64>
 8004950:	20000220 	.word	0x20000220
 8004954:	20000224 	.word	0x20000224

08004958 <_sbrk_r>:
 8004958:	b538      	push	{r3, r4, r5, lr}
 800495a:	4c06      	ldr	r4, [pc, #24]	; (8004974 <_sbrk_r+0x1c>)
 800495c:	2300      	movs	r3, #0
 800495e:	4605      	mov	r5, r0
 8004960:	4608      	mov	r0, r1
 8004962:	6023      	str	r3, [r4, #0]
 8004964:	f7ff fbfc 	bl	8004160 <_sbrk>
 8004968:	1c43      	adds	r3, r0, #1
 800496a:	d102      	bne.n	8004972 <_sbrk_r+0x1a>
 800496c:	6823      	ldr	r3, [r4, #0]
 800496e:	b103      	cbz	r3, 8004972 <_sbrk_r+0x1a>
 8004970:	602b      	str	r3, [r5, #0]
 8004972:	bd38      	pop	{r3, r4, r5, pc}
 8004974:	20001d4c 	.word	0x20001d4c

08004978 <siprintf>:
 8004978:	b40e      	push	{r1, r2, r3}
 800497a:	b500      	push	{lr}
 800497c:	b09c      	sub	sp, #112	; 0x70
 800497e:	ab1d      	add	r3, sp, #116	; 0x74
 8004980:	9002      	str	r0, [sp, #8]
 8004982:	9006      	str	r0, [sp, #24]
 8004984:	f06f 4100 	mvn.w	r1, #2147483648	; 0x80000000
 8004988:	4809      	ldr	r0, [pc, #36]	; (80049b0 <siprintf+0x38>)
 800498a:	9107      	str	r1, [sp, #28]
 800498c:	9104      	str	r1, [sp, #16]
 800498e:	4909      	ldr	r1, [pc, #36]	; (80049b4 <siprintf+0x3c>)
 8004990:	f853 2b04 	ldr.w	r2, [r3], #4
 8004994:	9105      	str	r1, [sp, #20]
 8004996:	6800      	ldr	r0, [r0, #0]
 8004998:	9301      	str	r3, [sp, #4]
 800499a:	a902      	add	r1, sp, #8
 800499c:	f000 f87a 	bl	8004a94 <_svfiprintf_r>
 80049a0:	9b02      	ldr	r3, [sp, #8]
 80049a2:	2200      	movs	r2, #0
 80049a4:	701a      	strb	r2, [r3, #0]
 80049a6:	b01c      	add	sp, #112	; 0x70
 80049a8:	f85d eb04 	ldr.w	lr, [sp], #4
 80049ac:	b003      	add	sp, #12
 80049ae:	4770      	bx	lr
 80049b0:	2000018c 	.word	0x2000018c
 80049b4:	ffff0208 	.word	0xffff0208

080049b8 <strncmp>:
 80049b8:	b510      	push	{r4, lr}
 80049ba:	b16a      	cbz	r2, 80049d8 <strncmp+0x20>
 80049bc:	3901      	subs	r1, #1
 80049be:	1884      	adds	r4, r0, r2
 80049c0:	f810 3b01 	ldrb.w	r3, [r0], #1
 80049c4:	f811 2f01 	ldrb.w	r2, [r1, #1]!
 80049c8:	4293      	cmp	r3, r2
 80049ca:	d103      	bne.n	80049d4 <strncmp+0x1c>
 80049cc:	42a0      	cmp	r0, r4
 80049ce:	d001      	beq.n	80049d4 <strncmp+0x1c>
 80049d0:	2b00      	cmp	r3, #0
 80049d2:	d1f5      	bne.n	80049c0 <strncmp+0x8>
 80049d4:	1a98      	subs	r0, r3, r2
 80049d6:	bd10      	pop	{r4, pc}
 80049d8:	4610      	mov	r0, r2
 80049da:	e7fc      	b.n	80049d6 <strncmp+0x1e>

080049dc <__malloc_lock>:
 80049dc:	4770      	bx	lr

080049de <__malloc_unlock>:
 80049de:	4770      	bx	lr

080049e0 <__ssputs_r>:
 80049e0:	e92d 47f0 	stmdb	sp!, {r4, r5, r6, r7, r8, r9, sl, lr}
 80049e4:	688e      	ldr	r6, [r1, #8]
 80049e6:	429e      	cmp	r6, r3
 80049e8:	4682      	mov	sl, r0
 80049ea:	460c      	mov	r4, r1
 80049ec:	4690      	mov	r8, r2
 80049ee:	4699      	mov	r9, r3
 80049f0:	d837      	bhi.n	8004a62 <__ssputs_r+0x82>
 80049f2:	898a      	ldrh	r2, [r1, #12]
 80049f4:	f412 6f90 	tst.w	r2, #1152	; 0x480
 80049f8:	d031      	beq.n	8004a5e <__ssputs_r+0x7e>
 80049fa:	6825      	ldr	r5, [r4, #0]
 80049fc:	6909      	ldr	r1, [r1, #16]
 80049fe:	1a6f      	subs	r7, r5, r1
 8004a00:	6965      	ldr	r5, [r4, #20]
 8004a02:	2302      	movs	r3, #2
 8004a04:	eb05 0545 	add.w	r5, r5, r5, lsl #1
 8004a08:	fb95 f5f3 	sdiv	r5, r5, r3
 8004a0c:	f109 0301 	add.w	r3, r9, #1
 8004a10:	443b      	add	r3, r7
 8004a12:	429d      	cmp	r5, r3
 8004a14:	bf38      	it	cc
 8004a16:	461d      	movcc	r5, r3
 8004a18:	0553      	lsls	r3, r2, #21
 8004a1a:	d530      	bpl.n	8004a7e <__ssputs_r+0x9e>
 8004a1c:	4629      	mov	r1, r5
 8004a1e:	f7ff ff41 	bl	80048a4 <_malloc_r>
 8004a22:	4606      	mov	r6, r0
 8004a24:	b950      	cbnz	r0, 8004a3c <__ssputs_r+0x5c>
 8004a26:	230c      	movs	r3, #12
 8004a28:	f8ca 3000 	str.w	r3, [sl]
 8004a2c:	89a3      	ldrh	r3, [r4, #12]
 8004a2e:	f043 0340 	orr.w	r3, r3, #64	; 0x40
 8004a32:	81a3      	strh	r3, [r4, #12]
 8004a34:	f04f 30ff 	mov.w	r0, #4294967295
 8004a38:	e8bd 87f0 	ldmia.w	sp!, {r4, r5, r6, r7, r8, r9, sl, pc}
 8004a3c:	463a      	mov	r2, r7
 8004a3e:	6921      	ldr	r1, [r4, #16]
 8004a40:	f000 faa8 	bl	8004f94 <memcpy>
 8004a44:	89a3      	ldrh	r3, [r4, #12]
 8004a46:	f423 6390 	bic.w	r3, r3, #1152	; 0x480
 8004a4a:	f043 0380 	orr.w	r3, r3, #128	; 0x80
 8004a4e:	81a3      	strh	r3, [r4, #12]
 8004a50:	6126      	str	r6, [r4, #16]
 8004a52:	6165      	str	r5, [r4, #20]
 8004a54:	443e      	add	r6, r7
 8004a56:	1bed      	subs	r5, r5, r7
 8004a58:	6026      	str	r6, [r4, #0]
 8004a5a:	60a5      	str	r5, [r4, #8]
 8004a5c:	464e      	mov	r6, r9
 8004a5e:	454e      	cmp	r6, r9
 8004a60:	d900      	bls.n	8004a64 <__ssputs_r+0x84>
 8004a62:	464e      	mov	r6, r9
 8004a64:	4632      	mov	r2, r6
 8004a66:	4641      	mov	r1, r8
 8004a68:	6820      	ldr	r0, [r4, #0]
 8004a6a:	f000 fa9e 	bl	8004faa <memmove>
 8004a6e:	68a3      	ldr	r3, [r4, #8]
 8004a70:	1b9b      	subs	r3, r3, r6
 8004a72:	60a3      	str	r3, [r4, #8]
 8004a74:	6823      	ldr	r3, [r4, #0]
 8004a76:	441e      	add	r6, r3
 8004a78:	6026      	str	r6, [r4, #0]
 8004a7a:	2000      	movs	r0, #0
 8004a7c:	e7dc      	b.n	8004a38 <__ssputs_r+0x58>
 8004a7e:	462a      	mov	r2, r5
 8004a80:	f000 faac 	bl	8004fdc <_realloc_r>
 8004a84:	4606      	mov	r6, r0
 8004a86:	2800      	cmp	r0, #0
 8004a88:	d1e2      	bne.n	8004a50 <__ssputs_r+0x70>
 8004a8a:	6921      	ldr	r1, [r4, #16]
 8004a8c:	4650      	mov	r0, sl
 8004a8e:	f7ff febb 	bl	8004808 <_free_r>
 8004a92:	e7c8      	b.n	8004a26 <__ssputs_r+0x46>

08004a94 <_svfiprintf_r>:
 8004a94:	e92d 4ff0 	stmdb	sp!, {r4, r5, r6, r7, r8, r9, sl, fp, lr}
 8004a98:	461d      	mov	r5, r3
 8004a9a:	898b      	ldrh	r3, [r1, #12]
 8004a9c:	061f      	lsls	r7, r3, #24
 8004a9e:	b09d      	sub	sp, #116	; 0x74
 8004aa0:	4680      	mov	r8, r0
 8004aa2:	460c      	mov	r4, r1
 8004aa4:	4616      	mov	r6, r2
 8004aa6:	d50f      	bpl.n	8004ac8 <_svfiprintf_r+0x34>
 8004aa8:	690b      	ldr	r3, [r1, #16]
 8004aaa:	b96b      	cbnz	r3, 8004ac8 <_svfiprintf_r+0x34>
 8004aac:	2140      	movs	r1, #64	; 0x40
 8004aae:	f7ff fef9 	bl	80048a4 <_malloc_r>
 8004ab2:	6020      	str	r0, [r4, #0]
 8004ab4:	6120      	str	r0, [r4, #16]
 8004ab6:	b928      	cbnz	r0, 8004ac4 <_svfiprintf_r+0x30>
 8004ab8:	230c      	movs	r3, #12
 8004aba:	f8c8 3000 	str.w	r3, [r8]
 8004abe:	f04f 30ff 	mov.w	r0, #4294967295
 8004ac2:	e0c8      	b.n	8004c56 <_svfiprintf_r+0x1c2>
 8004ac4:	2340      	movs	r3, #64	; 0x40
 8004ac6:	6163      	str	r3, [r4, #20]
 8004ac8:	2300      	movs	r3, #0
 8004aca:	9309      	str	r3, [sp, #36]	; 0x24
 8004acc:	2320      	movs	r3, #32
 8004ace:	f88d 3029 	strb.w	r3, [sp, #41]	; 0x29
 8004ad2:	2330      	movs	r3, #48	; 0x30
 8004ad4:	f88d 302a 	strb.w	r3, [sp, #42]	; 0x2a
 8004ad8:	9503      	str	r5, [sp, #12]
 8004ada:	f04f 0b01 	mov.w	fp, #1
 8004ade:	4637      	mov	r7, r6
 8004ae0:	463d      	mov	r5, r7
 8004ae2:	f815 3b01 	ldrb.w	r3, [r5], #1
 8004ae6:	b10b      	cbz	r3, 8004aec <_svfiprintf_r+0x58>
 8004ae8:	2b25      	cmp	r3, #37	; 0x25
 8004aea:	d13e      	bne.n	8004b6a <_svfiprintf_r+0xd6>
 8004aec:	ebb7 0a06 	subs.w	sl, r7, r6
 8004af0:	d00b      	beq.n	8004b0a <_svfiprintf_r+0x76>
 8004af2:	4653      	mov	r3, sl
 8004af4:	4632      	mov	r2, r6
 8004af6:	4621      	mov	r1, r4
 8004af8:	4640      	mov	r0, r8
 8004afa:	f7ff ff71 	bl	80049e0 <__ssputs_r>
 8004afe:	3001      	adds	r0, #1
 8004b00:	f000 80a4 	beq.w	8004c4c <_svfiprintf_r+0x1b8>
 8004b04:	9b09      	ldr	r3, [sp, #36]	; 0x24
 8004b06:	4453      	add	r3, sl
 8004b08:	9309      	str	r3, [sp, #36]	; 0x24
 8004b0a:	783b      	ldrb	r3, [r7, #0]
 8004b0c:	2b00      	cmp	r3, #0
 8004b0e:	f000 809d 	beq.w	8004c4c <_svfiprintf_r+0x1b8>
 8004b12:	2300      	movs	r3, #0
 8004b14:	f04f 32ff 	mov.w	r2, #4294967295
 8004b18:	e9cd 2305 	strd	r2, r3, [sp, #20]
 8004b1c:	9304      	str	r3, [sp, #16]
 8004b1e:	9307      	str	r3, [sp, #28]
 8004b20:	f88d 3053 	strb.w	r3, [sp, #83]	; 0x53
 8004b24:	931a      	str	r3, [sp, #104]	; 0x68
 8004b26:	462f      	mov	r7, r5
 8004b28:	2205      	movs	r2, #5
 8004b2a:	f817 1b01 	ldrb.w	r1, [r7], #1
 8004b2e:	4850      	ldr	r0, [pc, #320]	; (8004c70 <_svfiprintf_r+0x1dc>)
 8004b30:	f7fb fb7e 	bl	8000230 <memchr>
 8004b34:	9b04      	ldr	r3, [sp, #16]
 8004b36:	b9d0      	cbnz	r0, 8004b6e <_svfiprintf_r+0xda>
 8004b38:	06d9      	lsls	r1, r3, #27
 8004b3a:	bf44      	itt	mi
 8004b3c:	2220      	movmi	r2, #32
 8004b3e:	f88d 2053 	strbmi.w	r2, [sp, #83]	; 0x53
 8004b42:	071a      	lsls	r2, r3, #28
 8004b44:	bf44      	itt	mi
 8004b46:	222b      	movmi	r2, #43	; 0x2b
 8004b48:	f88d 2053 	strbmi.w	r2, [sp, #83]	; 0x53
 8004b4c:	782a      	ldrb	r2, [r5, #0]
 8004b4e:	2a2a      	cmp	r2, #42	; 0x2a
 8004b50:	d015      	beq.n	8004b7e <_svfiprintf_r+0xea>
 8004b52:	9a07      	ldr	r2, [sp, #28]
 8004b54:	462f      	mov	r7, r5
 8004b56:	2000      	movs	r0, #0
 8004b58:	250a      	movs	r5, #10
 8004b5a:	4639      	mov	r1, r7
 8004b5c:	f811 3b01 	ldrb.w	r3, [r1], #1
 8004b60:	3b30      	subs	r3, #48	; 0x30
 8004b62:	2b09      	cmp	r3, #9
 8004b64:	d94d      	bls.n	8004c02 <_svfiprintf_r+0x16e>
 8004b66:	b1b8      	cbz	r0, 8004b98 <_svfiprintf_r+0x104>
 8004b68:	e00f      	b.n	8004b8a <_svfiprintf_r+0xf6>
 8004b6a:	462f      	mov	r7, r5
 8004b6c:	e7b8      	b.n	8004ae0 <_svfiprintf_r+0x4c>
 8004b6e:	4a40      	ldr	r2, [pc, #256]	; (8004c70 <_svfiprintf_r+0x1dc>)
 8004b70:	1a80      	subs	r0, r0, r2
 8004b72:	fa0b f000 	lsl.w	r0, fp, r0
 8004b76:	4318      	orrs	r0, r3
 8004b78:	9004      	str	r0, [sp, #16]
 8004b7a:	463d      	mov	r5, r7
 8004b7c:	e7d3      	b.n	8004b26 <_svfiprintf_r+0x92>
 8004b7e:	9a03      	ldr	r2, [sp, #12]
 8004b80:	1d11      	adds	r1, r2, #4
 8004b82:	6812      	ldr	r2, [r2, #0]
 8004b84:	9103      	str	r1, [sp, #12]
 8004b86:	2a00      	cmp	r2, #0
 8004b88:	db01      	blt.n	8004b8e <_svfiprintf_r+0xfa>
 8004b8a:	9207      	str	r2, [sp, #28]
 8004b8c:	e004      	b.n	8004b98 <_svfiprintf_r+0x104>
 8004b8e:	4252      	negs	r2, r2
 8004b90:	f043 0302 	orr.w	r3, r3, #2
 8004b94:	9207      	str	r2, [sp, #28]
 8004b96:	9304      	str	r3, [sp, #16]
 8004b98:	783b      	ldrb	r3, [r7, #0]
 8004b9a:	2b2e      	cmp	r3, #46	; 0x2e
 8004b9c:	d10c      	bne.n	8004bb8 <_svfiprintf_r+0x124>
 8004b9e:	787b      	ldrb	r3, [r7, #1]
 8004ba0:	2b2a      	cmp	r3, #42	; 0x2a
 8004ba2:	d133      	bne.n	8004c0c <_svfiprintf_r+0x178>
 8004ba4:	9b03      	ldr	r3, [sp, #12]
 8004ba6:	1d1a      	adds	r2, r3, #4
 8004ba8:	681b      	ldr	r3, [r3, #0]
 8004baa:	9203      	str	r2, [sp, #12]
 8004bac:	2b00      	cmp	r3, #0
 8004bae:	bfb8      	it	lt
 8004bb0:	f04f 33ff 	movlt.w	r3, #4294967295
 8004bb4:	3702      	adds	r7, #2
 8004bb6:	9305      	str	r3, [sp, #20]
 8004bb8:	4d2e      	ldr	r5, [pc, #184]	; (8004c74 <_svfiprintf_r+0x1e0>)
 8004bba:	7839      	ldrb	r1, [r7, #0]
 8004bbc:	2203      	movs	r2, #3
 8004bbe:	4628      	mov	r0, r5
 8004bc0:	f7fb fb36 	bl	8000230 <memchr>
 8004bc4:	b138      	cbz	r0, 8004bd6 <_svfiprintf_r+0x142>
 8004bc6:	2340      	movs	r3, #64	; 0x40
 8004bc8:	1b40      	subs	r0, r0, r5
 8004bca:	fa03 f000 	lsl.w	r0, r3, r0
 8004bce:	9b04      	ldr	r3, [sp, #16]
 8004bd0:	4303      	orrs	r3, r0
 8004bd2:	3701      	adds	r7, #1
 8004bd4:	9304      	str	r3, [sp, #16]
 8004bd6:	7839      	ldrb	r1, [r7, #0]
 8004bd8:	4827      	ldr	r0, [pc, #156]	; (8004c78 <_svfiprintf_r+0x1e4>)
 8004bda:	f88d 1028 	strb.w	r1, [sp, #40]	; 0x28
 8004bde:	2206      	movs	r2, #6
 8004be0:	1c7e      	adds	r6, r7, #1
 8004be2:	f7fb fb25 	bl	8000230 <memchr>
 8004be6:	2800      	cmp	r0, #0
 8004be8:	d038      	beq.n	8004c5c <_svfiprintf_r+0x1c8>
 8004bea:	4b24      	ldr	r3, [pc, #144]	; (8004c7c <_svfiprintf_r+0x1e8>)
 8004bec:	bb13      	cbnz	r3, 8004c34 <_svfiprintf_r+0x1a0>
 8004bee:	9b03      	ldr	r3, [sp, #12]
 8004bf0:	3307      	adds	r3, #7
 8004bf2:	f023 0307 	bic.w	r3, r3, #7
 8004bf6:	3308      	adds	r3, #8
 8004bf8:	9303      	str	r3, [sp, #12]
 8004bfa:	9b09      	ldr	r3, [sp, #36]	; 0x24
 8004bfc:	444b      	add	r3, r9
 8004bfe:	9309      	str	r3, [sp, #36]	; 0x24
 8004c00:	e76d      	b.n	8004ade <_svfiprintf_r+0x4a>
 8004c02:	fb05 3202 	mla	r2, r5, r2, r3
 8004c06:	2001      	movs	r0, #1
 8004c08:	460f      	mov	r7, r1
 8004c0a:	e7a6      	b.n	8004b5a <_svfiprintf_r+0xc6>
 8004c0c:	2300      	movs	r3, #0
 8004c0e:	3701      	adds	r7, #1
 8004c10:	9305      	str	r3, [sp, #20]
 8004c12:	4619      	mov	r1, r3
 8004c14:	250a      	movs	r5, #10
 8004c16:	4638      	mov	r0, r7
 8004c18:	f810 2b01 	ldrb.w	r2, [r0], #1
 8004c1c:	3a30      	subs	r2, #48	; 0x30
 8004c1e:	2a09      	cmp	r2, #9
 8004c20:	d903      	bls.n	8004c2a <_svfiprintf_r+0x196>
 8004c22:	2b00      	cmp	r3, #0
 8004c24:	d0c8      	beq.n	8004bb8 <_svfiprintf_r+0x124>
 8004c26:	9105      	str	r1, [sp, #20]
 8004c28:	e7c6      	b.n	8004bb8 <_svfiprintf_r+0x124>
 8004c2a:	fb05 2101 	mla	r1, r5, r1, r2
 8004c2e:	2301      	movs	r3, #1
 8004c30:	4607      	mov	r7, r0
 8004c32:	e7f0      	b.n	8004c16 <_svfiprintf_r+0x182>
 8004c34:	ab03      	add	r3, sp, #12
 8004c36:	9300      	str	r3, [sp, #0]
 8004c38:	4622      	mov	r2, r4
 8004c3a:	4b11      	ldr	r3, [pc, #68]	; (8004c80 <_svfiprintf_r+0x1ec>)
 8004c3c:	a904      	add	r1, sp, #16
 8004c3e:	4640      	mov	r0, r8
 8004c40:	f3af 8000 	nop.w
 8004c44:	f1b0 3fff 	cmp.w	r0, #4294967295
 8004c48:	4681      	mov	r9, r0
 8004c4a:	d1d6      	bne.n	8004bfa <_svfiprintf_r+0x166>
 8004c4c:	89a3      	ldrh	r3, [r4, #12]
 8004c4e:	065b      	lsls	r3, r3, #25
 8004c50:	f53f af35 	bmi.w	8004abe <_svfiprintf_r+0x2a>
 8004c54:	9809      	ldr	r0, [sp, #36]	; 0x24
 8004c56:	b01d      	add	sp, #116	; 0x74
 8004c58:	e8bd 8ff0 	ldmia.w	sp!, {r4, r5, r6, r7, r8, r9, sl, fp, pc}
 8004c5c:	ab03      	add	r3, sp, #12
 8004c5e:	9300      	str	r3, [sp, #0]
 8004c60:	4622      	mov	r2, r4
 8004c62:	4b07      	ldr	r3, [pc, #28]	; (8004c80 <_svfiprintf_r+0x1ec>)
 8004c64:	a904      	add	r1, sp, #16
 8004c66:	4640      	mov	r0, r8
 8004c68:	f000 f882 	bl	8004d70 <_printf_i>
 8004c6c:	e7ea      	b.n	8004c44 <_svfiprintf_r+0x1b0>
 8004c6e:	bf00      	nop
 8004c70:	080050ec 	.word	0x080050ec
 8004c74:	080050f2 	.word	0x080050f2
 8004c78:	080050f6 	.word	0x080050f6
 8004c7c:	00000000 	.word	0x00000000
 8004c80:	080049e1 	.word	0x080049e1

08004c84 <_printf_common>:
 8004c84:	e92d 47f0 	stmdb	sp!, {r4, r5, r6, r7, r8, r9, sl, lr}
 8004c88:	4691      	mov	r9, r2
 8004c8a:	461f      	mov	r7, r3
 8004c8c:	688a      	ldr	r2, [r1, #8]
 8004c8e:	690b      	ldr	r3, [r1, #16]
 8004c90:	f8dd 8020 	ldr.w	r8, [sp, #32]
 8004c94:	4293      	cmp	r3, r2
 8004c96:	bfb8      	it	lt
 8004c98:	4613      	movlt	r3, r2
 8004c9a:	f8c9 3000 	str.w	r3, [r9]
 8004c9e:	f891 2043 	ldrb.w	r2, [r1, #67]	; 0x43
 8004ca2:	4606      	mov	r6, r0
 8004ca4:	460c      	mov	r4, r1
 8004ca6:	b112      	cbz	r2, 8004cae <_printf_common+0x2a>
 8004ca8:	3301      	adds	r3, #1
 8004caa:	f8c9 3000 	str.w	r3, [r9]
 8004cae:	6823      	ldr	r3, [r4, #0]
 8004cb0:	0699      	lsls	r1, r3, #26
 8004cb2:	bf42      	ittt	mi
 8004cb4:	f8d9 3000 	ldrmi.w	r3, [r9]
 8004cb8:	3302      	addmi	r3, #2
 8004cba:	f8c9 3000 	strmi.w	r3, [r9]
 8004cbe:	6825      	ldr	r5, [r4, #0]
 8004cc0:	f015 0506 	ands.w	r5, r5, #6
 8004cc4:	d107      	bne.n	8004cd6 <_printf_common+0x52>
 8004cc6:	f104 0a19 	add.w	sl, r4, #25
 8004cca:	68e3      	ldr	r3, [r4, #12]
 8004ccc:	f8d9 2000 	ldr.w	r2, [r9]
 8004cd0:	1a9b      	subs	r3, r3, r2
 8004cd2:	42ab      	cmp	r3, r5
 8004cd4:	dc28      	bgt.n	8004d28 <_printf_common+0xa4>
 8004cd6:	f894 3043 	ldrb.w	r3, [r4, #67]	; 0x43
 8004cda:	6822      	ldr	r2, [r4, #0]
 8004cdc:	3300      	adds	r3, #0
 8004cde:	bf18      	it	ne
 8004ce0:	2301      	movne	r3, #1
 8004ce2:	0692      	lsls	r2, r2, #26
 8004ce4:	d42d      	bmi.n	8004d42 <_printf_common+0xbe>
 8004ce6:	f104 0243 	add.w	r2, r4, #67	; 0x43
 8004cea:	4639      	mov	r1, r7
 8004cec:	4630      	mov	r0, r6
 8004cee:	47c0      	blx	r8
 8004cf0:	3001      	adds	r0, #1
 8004cf2:	d020      	beq.n	8004d36 <_printf_common+0xb2>
 8004cf4:	6823      	ldr	r3, [r4, #0]
 8004cf6:	68e5      	ldr	r5, [r4, #12]
 8004cf8:	f8d9 2000 	ldr.w	r2, [r9]
 8004cfc:	f003 0306 	and.w	r3, r3, #6
 8004d00:	2b04      	cmp	r3, #4
 8004d02:	bf08      	it	eq
 8004d04:	1aad      	subeq	r5, r5, r2
 8004d06:	68a3      	ldr	r3, [r4, #8]
 8004d08:	6922      	ldr	r2, [r4, #16]
 8004d0a:	bf0c      	ite	eq
 8004d0c:	ea25 75e5 	biceq.w	r5, r5, r5, asr #31
 8004d10:	2500      	movne	r5, #0
 8004d12:	4293      	cmp	r3, r2
 8004d14:	bfc4      	itt	gt
 8004d16:	1a9b      	subgt	r3, r3, r2
 8004d18:	18ed      	addgt	r5, r5, r3
 8004d1a:	f04f 0900 	mov.w	r9, #0
 8004d1e:	341a      	adds	r4, #26
 8004d20:	454d      	cmp	r5, r9
 8004d22:	d11a      	bne.n	8004d5a <_printf_common+0xd6>
 8004d24:	2000      	movs	r0, #0
 8004d26:	e008      	b.n	8004d3a <_printf_common+0xb6>
 8004d28:	2301      	movs	r3, #1
 8004d2a:	4652      	mov	r2, sl
 8004d2c:	4639      	mov	r1, r7
 8004d2e:	4630      	mov	r0, r6
 8004d30:	47c0      	blx	r8
 8004d32:	3001      	adds	r0, #1
 8004d34:	d103      	bne.n	8004d3e <_printf_common+0xba>
 8004d36:	f04f 30ff 	mov.w	r0, #4294967295
 8004d3a:	e8bd 87f0 	ldmia.w	sp!, {r4, r5, r6, r7, r8, r9, sl, pc}
 8004d3e:	3501      	adds	r5, #1
 8004d40:	e7c3      	b.n	8004cca <_printf_common+0x46>
 8004d42:	18e1      	adds	r1, r4, r3
 8004d44:	1c5a      	adds	r2, r3, #1
 8004d46:	2030      	movs	r0, #48	; 0x30
 8004d48:	f881 0043 	strb.w	r0, [r1, #67]	; 0x43
 8004d4c:	4422      	add	r2, r4
 8004d4e:	f894 1045 	ldrb.w	r1, [r4, #69]	; 0x45
 8004d52:	f882 1043 	strb.w	r1, [r2, #67]	; 0x43
 8004d56:	3302      	adds	r3, #2
 8004d58:	e7c5      	b.n	8004ce6 <_printf_common+0x62>
 8004d5a:	2301      	movs	r3, #1
 8004d5c:	4622      	mov	r2, r4
 8004d5e:	4639      	mov	r1, r7
 8004d60:	4630      	mov	r0, r6
 8004d62:	47c0      	blx	r8
 8004d64:	3001      	adds	r0, #1
 8004d66:	d0e6      	beq.n	8004d36 <_printf_common+0xb2>
 8004d68:	f109 0901 	add.w	r9, r9, #1
 8004d6c:	e7d8      	b.n	8004d20 <_printf_common+0x9c>
	...

08004d70 <_printf_i>:
 8004d70:	e92d 43f0 	stmdb	sp!, {r4, r5, r6, r7, r8, r9, lr}
 8004d74:	f101 0c43 	add.w	ip, r1, #67	; 0x43
 8004d78:	460c      	mov	r4, r1
 8004d7a:	7e09      	ldrb	r1, [r1, #24]
 8004d7c:	b085      	sub	sp, #20
 8004d7e:	296e      	cmp	r1, #110	; 0x6e
 8004d80:	4617      	mov	r7, r2
 8004d82:	4606      	mov	r6, r0
 8004d84:	4698      	mov	r8, r3
 8004d86:	9a0c      	ldr	r2, [sp, #48]	; 0x30
 8004d88:	f000 80b3 	beq.w	8004ef2 <_printf_i+0x182>
 8004d8c:	d822      	bhi.n	8004dd4 <_printf_i+0x64>
 8004d8e:	2963      	cmp	r1, #99	; 0x63
 8004d90:	d036      	beq.n	8004e00 <_printf_i+0x90>
 8004d92:	d80a      	bhi.n	8004daa <_printf_i+0x3a>
 8004d94:	2900      	cmp	r1, #0
 8004d96:	f000 80b9 	beq.w	8004f0c <_printf_i+0x19c>
 8004d9a:	2958      	cmp	r1, #88	; 0x58
 8004d9c:	f000 8083 	beq.w	8004ea6 <_printf_i+0x136>
 8004da0:	f104 0542 	add.w	r5, r4, #66	; 0x42
 8004da4:	f884 1042 	strb.w	r1, [r4, #66]	; 0x42
 8004da8:	e032      	b.n	8004e10 <_printf_i+0xa0>
 8004daa:	2964      	cmp	r1, #100	; 0x64
 8004dac:	d001      	beq.n	8004db2 <_printf_i+0x42>
 8004dae:	2969      	cmp	r1, #105	; 0x69
 8004db0:	d1f6      	bne.n	8004da0 <_printf_i+0x30>
 8004db2:	6820      	ldr	r0, [r4, #0]
 8004db4:	6813      	ldr	r3, [r2, #0]
 8004db6:	0605      	lsls	r5, r0, #24
 8004db8:	f103 0104 	add.w	r1, r3, #4
 8004dbc:	d52a      	bpl.n	8004e14 <_printf_i+0xa4>
 8004dbe:	681b      	ldr	r3, [r3, #0]
 8004dc0:	6011      	str	r1, [r2, #0]
 8004dc2:	2b00      	cmp	r3, #0
 8004dc4:	da03      	bge.n	8004dce <_printf_i+0x5e>
 8004dc6:	222d      	movs	r2, #45	; 0x2d
 8004dc8:	425b      	negs	r3, r3
 8004dca:	f884 2043 	strb.w	r2, [r4, #67]	; 0x43
 8004dce:	486f      	ldr	r0, [pc, #444]	; (8004f8c <_printf_i+0x21c>)
 8004dd0:	220a      	movs	r2, #10
 8004dd2:	e039      	b.n	8004e48 <_printf_i+0xd8>
 8004dd4:	2973      	cmp	r1, #115	; 0x73
 8004dd6:	f000 809d 	beq.w	8004f14 <_printf_i+0x1a4>
 8004dda:	d808      	bhi.n	8004dee <_printf_i+0x7e>
 8004ddc:	296f      	cmp	r1, #111	; 0x6f
 8004dde:	d020      	beq.n	8004e22 <_printf_i+0xb2>
 8004de0:	2970      	cmp	r1, #112	; 0x70
 8004de2:	d1dd      	bne.n	8004da0 <_printf_i+0x30>
 8004de4:	6823      	ldr	r3, [r4, #0]
 8004de6:	f043 0320 	orr.w	r3, r3, #32
 8004dea:	6023      	str	r3, [r4, #0]
 8004dec:	e003      	b.n	8004df6 <_printf_i+0x86>
 8004dee:	2975      	cmp	r1, #117	; 0x75
 8004df0:	d017      	beq.n	8004e22 <_printf_i+0xb2>
 8004df2:	2978      	cmp	r1, #120	; 0x78
 8004df4:	d1d4      	bne.n	8004da0 <_printf_i+0x30>
 8004df6:	2378      	movs	r3, #120	; 0x78
 8004df8:	f884 3045 	strb.w	r3, [r4, #69]	; 0x45
 8004dfc:	4864      	ldr	r0, [pc, #400]	; (8004f90 <_printf_i+0x220>)
 8004dfe:	e055      	b.n	8004eac <_printf_i+0x13c>
 8004e00:	6813      	ldr	r3, [r2, #0]
 8004e02:	1d19      	adds	r1, r3, #4
 8004e04:	681b      	ldr	r3, [r3, #0]
 8004e06:	6011      	str	r1, [r2, #0]
 8004e08:	f104 0542 	add.w	r5, r4, #66	; 0x42
 8004e0c:	f884 3042 	strb.w	r3, [r4, #66]	; 0x42
 8004e10:	2301      	movs	r3, #1
 8004e12:	e08c      	b.n	8004f2e <_printf_i+0x1be>
 8004e14:	681b      	ldr	r3, [r3, #0]
 8004e16:	6011      	str	r1, [r2, #0]
 8004e18:	f010 0f40 	tst.w	r0, #64	; 0x40
 8004e1c:	bf18      	it	ne
 8004e1e:	b21b      	sxthne	r3, r3
 8004e20:	e7cf      	b.n	8004dc2 <_printf_i+0x52>
 8004e22:	6813      	ldr	r3, [r2, #0]
 8004e24:	6825      	ldr	r5, [r4, #0]
 8004e26:	1d18      	adds	r0, r3, #4
 8004e28:	6010      	str	r0, [r2, #0]
 8004e2a:	0628      	lsls	r0, r5, #24
 8004e2c:	d501      	bpl.n	8004e32 <_printf_i+0xc2>
 8004e2e:	681b      	ldr	r3, [r3, #0]
 8004e30:	e002      	b.n	8004e38 <_printf_i+0xc8>
 8004e32:	0668      	lsls	r0, r5, #25
 8004e34:	d5fb      	bpl.n	8004e2e <_printf_i+0xbe>
 8004e36:	881b      	ldrh	r3, [r3, #0]
 8004e38:	4854      	ldr	r0, [pc, #336]	; (8004f8c <_printf_i+0x21c>)
 8004e3a:	296f      	cmp	r1, #111	; 0x6f
 8004e3c:	bf14      	ite	ne
 8004e3e:	220a      	movne	r2, #10
 8004e40:	2208      	moveq	r2, #8
 8004e42:	2100      	movs	r1, #0
 8004e44:	f884 1043 	strb.w	r1, [r4, #67]	; 0x43
 8004e48:	6865      	ldr	r5, [r4, #4]
 8004e4a:	60a5      	str	r5, [r4, #8]
 8004e4c:	2d00      	cmp	r5, #0
 8004e4e:	f2c0 8095 	blt.w	8004f7c <_printf_i+0x20c>
 8004e52:	6821      	ldr	r1, [r4, #0]
 8004e54:	f021 0104 	bic.w	r1, r1, #4
 8004e58:	6021      	str	r1, [r4, #0]
 8004e5a:	2b00      	cmp	r3, #0
 8004e5c:	d13d      	bne.n	8004eda <_printf_i+0x16a>
 8004e5e:	2d00      	cmp	r5, #0
 8004e60:	f040 808e 	bne.w	8004f80 <_printf_i+0x210>
 8004e64:	4665      	mov	r5, ip
 8004e66:	2a08      	cmp	r2, #8
 8004e68:	d10b      	bne.n	8004e82 <_printf_i+0x112>
 8004e6a:	6823      	ldr	r3, [r4, #0]
 8004e6c:	07db      	lsls	r3, r3, #31
 8004e6e:	d508      	bpl.n	8004e82 <_printf_i+0x112>
 8004e70:	6923      	ldr	r3, [r4, #16]
 8004e72:	6862      	ldr	r2, [r4, #4]
 8004e74:	429a      	cmp	r2, r3
 8004e76:	bfde      	ittt	le
 8004e78:	2330      	movle	r3, #48	; 0x30
 8004e7a:	f805 3c01 	strble.w	r3, [r5, #-1]
 8004e7e:	f105 35ff 	addle.w	r5, r5, #4294967295
 8004e82:	ebac 0305 	sub.w	r3, ip, r5
 8004e86:	6123      	str	r3, [r4, #16]
 8004e88:	f8cd 8000 	str.w	r8, [sp]
 8004e8c:	463b      	mov	r3, r7
 8004e8e:	aa03      	add	r2, sp, #12
 8004e90:	4621      	mov	r1, r4
 8004e92:	4630      	mov	r0, r6
 8004e94:	f7ff fef6 	bl	8004c84 <_printf_common>
 8004e98:	3001      	adds	r0, #1
 8004e9a:	d14d      	bne.n	8004f38 <_printf_i+0x1c8>
 8004e9c:	f04f 30ff 	mov.w	r0, #4294967295
 8004ea0:	b005      	add	sp, #20
 8004ea2:	e8bd 83f0 	ldmia.w	sp!, {r4, r5, r6, r7, r8, r9, pc}
 8004ea6:	4839      	ldr	r0, [pc, #228]	; (8004f8c <_printf_i+0x21c>)
 8004ea8:	f884 1045 	strb.w	r1, [r4, #69]	; 0x45
 8004eac:	6813      	ldr	r3, [r2, #0]
 8004eae:	6821      	ldr	r1, [r4, #0]
 8004eb0:	1d1d      	adds	r5, r3, #4
 8004eb2:	681b      	ldr	r3, [r3, #0]
 8004eb4:	6015      	str	r5, [r2, #0]
 8004eb6:	060a      	lsls	r2, r1, #24
 8004eb8:	d50b      	bpl.n	8004ed2 <_printf_i+0x162>
 8004eba:	07ca      	lsls	r2, r1, #31
 8004ebc:	bf44      	itt	mi
 8004ebe:	f041 0120 	orrmi.w	r1, r1, #32
 8004ec2:	6021      	strmi	r1, [r4, #0]
 8004ec4:	b91b      	cbnz	r3, 8004ece <_printf_i+0x15e>
 8004ec6:	6822      	ldr	r2, [r4, #0]
 8004ec8:	f022 0220 	bic.w	r2, r2, #32
 8004ecc:	6022      	str	r2, [r4, #0]
 8004ece:	2210      	movs	r2, #16
 8004ed0:	e7b7      	b.n	8004e42 <_printf_i+0xd2>
 8004ed2:	064d      	lsls	r5, r1, #25
 8004ed4:	bf48      	it	mi
 8004ed6:	b29b      	uxthmi	r3, r3
 8004ed8:	e7ef      	b.n	8004eba <_printf_i+0x14a>
 8004eda:	4665      	mov	r5, ip
 8004edc:	fbb3 f1f2 	udiv	r1, r3, r2
 8004ee0:	fb02 3311 	mls	r3, r2, r1, r3
 8004ee4:	5cc3      	ldrb	r3, [r0, r3]
 8004ee6:	f805 3d01 	strb.w	r3, [r5, #-1]!
 8004eea:	460b      	mov	r3, r1
 8004eec:	2900      	cmp	r1, #0
 8004eee:	d1f5      	bne.n	8004edc <_printf_i+0x16c>
 8004ef0:	e7b9      	b.n	8004e66 <_printf_i+0xf6>
 8004ef2:	6813      	ldr	r3, [r2, #0]
 8004ef4:	6825      	ldr	r5, [r4, #0]
 8004ef6:	6961      	ldr	r1, [r4, #20]
 8004ef8:	1d18      	adds	r0, r3, #4
 8004efa:	6010      	str	r0, [r2, #0]
 8004efc:	0628      	lsls	r0, r5, #24
 8004efe:	681b      	ldr	r3, [r3, #0]
 8004f00:	d501      	bpl.n	8004f06 <_printf_i+0x196>
 8004f02:	6019      	str	r1, [r3, #0]
 8004f04:	e002      	b.n	8004f0c <_printf_i+0x19c>
 8004f06:	066a      	lsls	r2, r5, #25
 8004f08:	d5fb      	bpl.n	8004f02 <_printf_i+0x192>
 8004f0a:	8019      	strh	r1, [r3, #0]
 8004f0c:	2300      	movs	r3, #0
 8004f0e:	6123      	str	r3, [r4, #16]
 8004f10:	4665      	mov	r5, ip
 8004f12:	e7b9      	b.n	8004e88 <_printf_i+0x118>
 8004f14:	6813      	ldr	r3, [r2, #0]
 8004f16:	1d19      	adds	r1, r3, #4
 8004f18:	6011      	str	r1, [r2, #0]
 8004f1a:	681d      	ldr	r5, [r3, #0]
 8004f1c:	6862      	ldr	r2, [r4, #4]
 8004f1e:	2100      	movs	r1, #0
 8004f20:	4628      	mov	r0, r5
 8004f22:	f7fb f985 	bl	8000230 <memchr>
 8004f26:	b108      	cbz	r0, 8004f2c <_printf_i+0x1bc>
 8004f28:	1b40      	subs	r0, r0, r5
 8004f2a:	6060      	str	r0, [r4, #4]
 8004f2c:	6863      	ldr	r3, [r4, #4]
 8004f2e:	6123      	str	r3, [r4, #16]
 8004f30:	2300      	movs	r3, #0
 8004f32:	f884 3043 	strb.w	r3, [r4, #67]	; 0x43
 8004f36:	e7a7      	b.n	8004e88 <_printf_i+0x118>
 8004f38:	6923      	ldr	r3, [r4, #16]
 8004f3a:	462a      	mov	r2, r5
 8004f3c:	4639      	mov	r1, r7
 8004f3e:	4630      	mov	r0, r6
 8004f40:	47c0      	blx	r8
 8004f42:	3001      	adds	r0, #1
 8004f44:	d0aa      	beq.n	8004e9c <_printf_i+0x12c>
 8004f46:	6823      	ldr	r3, [r4, #0]
 8004f48:	079b      	lsls	r3, r3, #30
 8004f4a:	d413      	bmi.n	8004f74 <_printf_i+0x204>
 8004f4c:	68e0      	ldr	r0, [r4, #12]
 8004f4e:	9b03      	ldr	r3, [sp, #12]
 8004f50:	4298      	cmp	r0, r3
 8004f52:	bfb8      	it	lt
 8004f54:	4618      	movlt	r0, r3
 8004f56:	e7a3      	b.n	8004ea0 <_printf_i+0x130>
 8004f58:	2301      	movs	r3, #1
 8004f5a:	464a      	mov	r2, r9
 8004f5c:	4639      	mov	r1, r7
 8004f5e:	4630      	mov	r0, r6
 8004f60:	47c0      	blx	r8
 8004f62:	3001      	adds	r0, #1
 8004f64:	d09a      	beq.n	8004e9c <_printf_i+0x12c>
 8004f66:	3501      	adds	r5, #1
 8004f68:	68e3      	ldr	r3, [r4, #12]
 8004f6a:	9a03      	ldr	r2, [sp, #12]
 8004f6c:	1a9b      	subs	r3, r3, r2
 8004f6e:	42ab      	cmp	r3, r5
 8004f70:	dcf2      	bgt.n	8004f58 <_printf_i+0x1e8>
 8004f72:	e7eb      	b.n	8004f4c <_printf_i+0x1dc>
 8004f74:	2500      	movs	r5, #0
 8004f76:	f104 0919 	add.w	r9, r4, #25
 8004f7a:	e7f5      	b.n	8004f68 <_printf_i+0x1f8>
 8004f7c:	2b00      	cmp	r3, #0
 8004f7e:	d1ac      	bne.n	8004eda <_printf_i+0x16a>
 8004f80:	7803      	ldrb	r3, [r0, #0]
 8004f82:	f884 3042 	strb.w	r3, [r4, #66]	; 0x42
 8004f86:	f104 0542 	add.w	r5, r4, #66	; 0x42
 8004f8a:	e76c      	b.n	8004e66 <_printf_i+0xf6>
 8004f8c:	080050fd 	.word	0x080050fd
 8004f90:	0800510e 	.word	0x0800510e

08004f94 <memcpy>:
 8004f94:	b510      	push	{r4, lr}
 8004f96:	1e43      	subs	r3, r0, #1
 8004f98:	440a      	add	r2, r1
 8004f9a:	4291      	cmp	r1, r2
 8004f9c:	d100      	bne.n	8004fa0 <memcpy+0xc>
 8004f9e:	bd10      	pop	{r4, pc}
 8004fa0:	f811 4b01 	ldrb.w	r4, [r1], #1
 8004fa4:	f803 4f01 	strb.w	r4, [r3, #1]!
 8004fa8:	e7f7      	b.n	8004f9a <memcpy+0x6>

08004faa <memmove>:
 8004faa:	4288      	cmp	r0, r1
 8004fac:	b510      	push	{r4, lr}
 8004fae:	eb01 0302 	add.w	r3, r1, r2
 8004fb2:	d807      	bhi.n	8004fc4 <memmove+0x1a>
 8004fb4:	1e42      	subs	r2, r0, #1
 8004fb6:	4299      	cmp	r1, r3
 8004fb8:	d00a      	beq.n	8004fd0 <memmove+0x26>
 8004fba:	f811 4b01 	ldrb.w	r4, [r1], #1
 8004fbe:	f802 4f01 	strb.w	r4, [r2, #1]!
 8004fc2:	e7f8      	b.n	8004fb6 <memmove+0xc>
 8004fc4:	4283      	cmp	r3, r0
 8004fc6:	d9f5      	bls.n	8004fb4 <memmove+0xa>
 8004fc8:	1881      	adds	r1, r0, r2
 8004fca:	1ad2      	subs	r2, r2, r3
 8004fcc:	42d3      	cmn	r3, r2
 8004fce:	d100      	bne.n	8004fd2 <memmove+0x28>
 8004fd0:	bd10      	pop	{r4, pc}
 8004fd2:	f813 4d01 	ldrb.w	r4, [r3, #-1]!
 8004fd6:	f801 4d01 	strb.w	r4, [r1, #-1]!
 8004fda:	e7f7      	b.n	8004fcc <memmove+0x22>

08004fdc <_realloc_r>:
 8004fdc:	b5f8      	push	{r3, r4, r5, r6, r7, lr}
 8004fde:	4607      	mov	r7, r0
 8004fe0:	4614      	mov	r4, r2
 8004fe2:	460e      	mov	r6, r1
 8004fe4:	b921      	cbnz	r1, 8004ff0 <_realloc_r+0x14>
 8004fe6:	4611      	mov	r1, r2
 8004fe8:	e8bd 40f8 	ldmia.w	sp!, {r3, r4, r5, r6, r7, lr}
 8004fec:	f7ff bc5a 	b.w	80048a4 <_malloc_r>
 8004ff0:	b922      	cbnz	r2, 8004ffc <_realloc_r+0x20>
 8004ff2:	f7ff fc09 	bl	8004808 <_free_r>
 8004ff6:	4625      	mov	r5, r4
 8004ff8:	4628      	mov	r0, r5
 8004ffa:	bdf8      	pop	{r3, r4, r5, r6, r7, pc}
 8004ffc:	f000 f814 	bl	8005028 <_malloc_usable_size_r>
 8005000:	42a0      	cmp	r0, r4
 8005002:	d20f      	bcs.n	8005024 <_realloc_r+0x48>
 8005004:	4621      	mov	r1, r4
 8005006:	4638      	mov	r0, r7
 8005008:	f7ff fc4c 	bl	80048a4 <_malloc_r>
 800500c:	4605      	mov	r5, r0
 800500e:	2800      	cmp	r0, #0
 8005010:	d0f2      	beq.n	8004ff8 <_realloc_r+0x1c>
 8005012:	4631      	mov	r1, r6
 8005014:	4622      	mov	r2, r4
 8005016:	f7ff ffbd 	bl	8004f94 <memcpy>
 800501a:	4631      	mov	r1, r6
 800501c:	4638      	mov	r0, r7
 800501e:	f7ff fbf3 	bl	8004808 <_free_r>
 8005022:	e7e9      	b.n	8004ff8 <_realloc_r+0x1c>
 8005024:	4635      	mov	r5, r6
 8005026:	e7e7      	b.n	8004ff8 <_realloc_r+0x1c>

08005028 <_malloc_usable_size_r>:
 8005028:	f851 3c04 	ldr.w	r3, [r1, #-4]
 800502c:	1f18      	subs	r0, r3, #4
 800502e:	2b00      	cmp	r3, #0
 8005030:	bfbc      	itt	lt
 8005032:	580b      	ldrlt	r3, [r1, r0]
 8005034:	18c0      	addlt	r0, r0, r3
 8005036:	4770      	bx	lr

08005038 <_init>:
 8005038:	b5f8      	push	{r3, r4, r5, r6, r7, lr}
 800503a:	bf00      	nop
 800503c:	bcf8      	pop	{r3, r4, r5, r6, r7}
 800503e:	bc08      	pop	{r3}
 8005040:	469e      	mov	lr, r3
 8005042:	4770      	bx	lr

08005044 <_fini>:
 8005044:	b5f8      	push	{r3, r4, r5, r6, r7, lr}
 8005046:	bf00      	nop
 8005048:	bcf8      	pop	{r3, r4, r5, r6, r7}
 800504a:	bc08      	pop	{r3}
 800504c:	469e      	mov	lr, r3
 800504e:	4770      	bx	lr
